 GameServer

 Timestamp is 65189805 (Sun Oct  1 00:49:57 2023)

 Preferred load address is 00400000

 Start         Length     Name                   Class
 0001:00000000 000038b0H .text$di                CODE
 0001:000038b0 00193c30H .text$mn                CODE
 0001:001974e0 00004860H .text$x                 CODE
 0001:0019bd40 00002800H .text$yd                CODE
 0002:00000000 00000370H .idata$5                DATA
 0002:00000370 00000004H .00cfg                  DATA
 0002:00000374 00000004H .CRT$XCA                DATA
 0002:00000378 00000004H .CRT$XCAA               DATA
 0002:0000037c 0000000cH .CRT$XCC                DATA
 0002:00000388 0000000cH .CRT$XCL                DATA
 0002:00000394 000003d8H .CRT$XCU                DATA
 0002:0000076c 00000004H .CRT$XCZ                DATA
 0002:00000770 00000004H .CRT$XIA                DATA
 0002:00000774 00000004H .CRT$XIAA               DATA
 0002:00000778 00000004H .CRT$XIAC               DATA
 0002:0000077c 0000001cH .CRT$XIC                DATA
 0002:00000798 00000004H .CRT$XIZ                DATA
 0002:0000079c 00000004H .CRT$XLA                DATA
 0002:000007a0 00000004H .CRT$XLZ                DATA
 0002:000007a4 00000004H .CRT$XPA                DATA
 0002:000007a8 0000000cH .CRT$XPX                DATA
 0002:000007b4 00000004H .CRT$XPXA               DATA
 0002:000007b8 00000004H .CRT$XPZ                DATA
 0002:000007bc 00000004H .CRT$XTA                DATA
 0002:000007c0 00000010H .CRT$XTZ                DATA
 0002:000007c4 00000000H .gfids$y                DATA
 0002:000007d0 000308f0H .rdata                  DATA
 0002:000310c0 00000000H .rdata$CastGuardVftablesA DATA
 0002:000310c0 00000000H .rdata$CastGuardVftablesC DATA
 0002:000310c0 00000018H .rdata$T                DATA
 0002:000310d8 00004854H .rdata$r                DATA
 0002:0003592c 000004b4H .rdata$sxdata           DATA
 0002:00035de0 00000018H .rdata$voltmd           DATA
 0002:00035df8 0000044cH .rdata$zzzdbg           DATA
 0002:00036244 00000004H .rtc$IAA                DATA
 0002:00036248 00000004H .rtc$IZZ                DATA
 0002:0003624c 00000004H .rtc$TAA                DATA
 0002:00036250 00000004H .rtc$TZZ                DATA
 0002:00036254 00000004H .tls                    DATA
 0002:00036258 00000004H .tls$                   DATA
 0002:0003625c 00000004H .tls$ZZZ                DATA
 0002:00036260 00005f18H .xdata$x                DATA
 0002:0003c178 00000000H ATL$__a                 DATA
 0002:0003c178 00000000H ATL$__z                 DATA
 0002:0003c178 00000000H .edata                  DATA
 0002:0003c178 00000078H .idata$2                DATA
 0002:0003c1f0 00000014H .idata$3                DATA
 0002:0003c204 00000370H .idata$4                DATA
 0002:0003c574 00000e0cH .idata$6                DATA
 0003:00000000 00812300H .data                   DATA
 0003:00812300 000001c0H .data$r                 DATA
 0003:008124c0 00001d30H .data$rs                DATA
 0003:008141f0 02a6768cH .bss                    DATA
 0004:00000000 00000400H .rsrc$01                DATA
 0004:00000400 0001a878H .rsrc$02                DATA

  Address         Publics by Value              Rva+Base       Lib:Object

 0000:00000000       ___guard_fids_count        00000000     <absolute>
 0000:00000000       ___guard_eh_cont_table     00000000     <absolute>
 0000:00000000       ___guard_longjmp_table     00000000     <absolute>
 0000:00000000       ___guard_iat_count         00000000     <absolute>
 0000:00000000       ___arm64x_extra_rfe_table  00000000     <absolute>
 0000:00000000       ___arm64x_redirection_metadata 00000000     <absolute>
 0000:00000000       __except_list              00000000     <absolute>
 0000:00000000       ___guard_eh_cont_count     00000000     <absolute>
 0000:00000000       ___x64_code_ranges_to_entry_points_count 00000000     <absolute>
 0000:00000000       ___hybrid_code_map_count   00000000     <absolute>
 0000:00000000       ___x64_code_ranges_to_entry_points 00000000     <absolute>
 0000:00000000       ___guard_iat_table         00000000     <absolute>
 0000:00000000       ___arm64x_native_entrypoint 00000000     <absolute>
 0000:00000000       ___hybrid_code_map         00000000     <absolute>
 0000:00000000       ___arm64x_extra_rfe_table_size 00000000     <absolute>
 0000:00000000       ___guard_longjmp_count     00000000     <absolute>
 0000:00000000       ___guard_check_icall_a64n_fptr 00000000     <absolute>
 0000:00000000       ___arm64x_redirection_metadata_count 00000000     <absolute>
 0000:00000000       ___hybrid_auxiliary_iat    00000000     <absolute>
 0000:00000000       ___dynamic_value_reloc_table 00000000     <absolute>
 0000:00000000       ___AbsoluteZero            00000000     <absolute>
 0000:00000000       ___enclave_config          00000000     <absolute>
 0000:00000000       ___guard_fids_table        00000000     <absolute>
 0000:00000000       ___hybrid_auxiliary_iat_copy 00000000     <absolute>
 0000:0000002c       __tls_array                0000002c     <absolute>
 0000:00000100       ___guard_flags             00000100     <absolute>
 0000:0000012d       ___safe_se_handler_count   0000012d     <absolute>
 0000:00000000       ___ImageBase               00400000     <linker-defined>
 0001:000038b0       _AngleMatrix               004048b0 f   Math.obj
 0001:00003a50       _sqrtf                     00404a50 f i Math.obj
 0001:00003a80       ??_EC380ItemOption@@UAEPAXI@Z 00404a80 f i * CIL library *:* CIL module *
 0001:00003a80       ??_GC380ItemOption@@UAEPAXI@Z 00404a80 f i 380ItemOption.obj
 0001:00003ab0       ?Init@C380ItemOption@@QAEXXZ 00404ab0 f   380ItemOption.obj
 0001:00003b20       ?Load@C380ItemOption@@QAEXPAD@Z 00404b20 f   380ItemOption.obj
 0001:00003cf0       ?Calc380ItemOption@C380ItemOption@@QAEXPAUOBJECTSTRUCT@@_N@Z 00404cf0 f   380ItemOption.obj
 0001:00003f10       ??_GC380ItemType@@UAEPAXI@Z 00404f10 f i 380ItemType.obj
 0001:00003f10       ??_EC380ItemType@@UAEPAXI@Z 00404f10 f i * CIL library *:* CIL module *
 0001:00003f40       ?Load@C380ItemType@@QAEXPAD@Z 00404f40 f   380ItemType.obj
 0001:000041e0       ?clear@?$_Tree@V?$_Tmap_traits@HUITEM_MOVE_INFO@@U?$less@H@std@@V?$allocator@U?$pair@$$CBHUITEM_MOVE_INFO@@@std@@@3@$0A@@std@@@std@@QAEXXZ 004051e0 f i ItemMove.obj
 0001:000041e0       ?clear@?$_Tree@V?$_Tmap_traits@HUITEM_380_TYPE_INFO@@U?$less@H@std@@V?$allocator@U?$pair@$$CBHUITEM_380_TYPE_INFO@@@std@@@3@$0A@@std@@@std@@QAEXXZ 004051e0 f i 380ItemType.obj
 0001:00004230       ??1?$_Tree@V?$_Tmap_traits@HUITEM_MOVE_INFO@@U?$less@H@std@@V?$allocator@U?$pair@$$CBHUITEM_MOVE_INFO@@@std@@@3@$0A@@std@@@std@@QAE@XZ 00405230 f i ItemMove.obj
 0001:00004230       ??1?$_Tree@V?$_Tmap_traits@HUMUUN_SYSTEM_INFO@@U?$less@H@std@@V?$allocator@U?$pair@$$CBHUMUUN_SYSTEM_INFO@@@std@@@3@$0A@@std@@@std@@QAE@XZ 00405230 f i MuunSystem.obj
 0001:00004230       ??1?$_Tree@V?$_Tmap_traits@HUCOSTUME_LIST@@U?$less@H@std@@V?$allocator@U?$pair@$$CBHUCOSTUME_LIST@@@std@@@3@$0A@@std@@@std@@QAE@XZ 00405230 f i CostumeSystem.obj
 0001:00004230       ??1?$_Tree@V?$_Tmap_traits@HUITEM_380_TYPE_INFO@@U?$less@H@std@@V?$allocator@U?$pair@$$CBHUITEM_380_TYPE_INFO@@@std@@@3@$0A@@std@@@std@@QAE@XZ 00405230 f i 380ItemType.obj
 0001:00004270       ??$_Erase_tree@V?$allocator@U?$_Tree_node@U?$pair@$$CBHUITEM_MOVE_INFO@@@std@@PAX@std@@@std@@@?$_Tree_val@U?$_Tree_simple_types@U?$pair@$$CBHUITEM_MOVE_INFO@@@std@@@std@@@std@@QAEXAAV?$allocator@U?$_Tree_node@U?$pair@$$CBHUITEM_MOVE_INFO@@@std@@PAX@std@@@1@PAU?$_Tree_node@U?$pair@$$CBHUITEM_MOVE_INFO@@@std@@PAX@1@@Z 00405270 f i ItemMove.obj
 0001:00004270       ??$_Erase_tree@V?$allocator@U?$_Tree_node@U?$pair@$$CBHUCOSTUME_LIST@@@std@@PAX@std@@@std@@@?$_Tree_val@U?$_Tree_simple_types@U?$pair@$$CBHUCOSTUME_LIST@@@std@@@std@@@std@@QAEXAAV?$allocator@U?$_Tree_node@U?$pair@$$CBHUCOSTUME_LIST@@@std@@PAX@std@@@1@PAU?$_Tree_node@U?$pair@$$CBHUCOSTUME_LIST@@@std@@PAX@1@@Z 00405270 f i CostumeSystem.obj
 0001:00004270       ??$_Erase_tree@V?$allocator@U?$_Tree_node@U?$pair@$$CBHUMUUN_SYSTEM_INFO@@@std@@PAX@std@@@std@@@?$_Tree_val@U?$_Tree_simple_types@U?$pair@$$CBHUMUUN_SYSTEM_INFO@@@std@@@std@@@std@@QAEXAAV?$allocator@U?$_Tree_node@U?$pair@$$CBHUMUUN_SYSTEM_INFO@@@std@@PAX@std@@@1@PAU?$_Tree_node@U?$pair@$$CBHUMUUN_SYSTEM_INFO@@@std@@PAX@1@@Z 00405270 f i MuunSystem.obj
 0001:00004270       ??$_Erase_tree@V?$allocator@U?$_Tree_node@U?$pair@$$CBHUITEM_380_TYPE_INFO@@@std@@PAX@std@@@std@@@?$_Tree_val@U?$_Tree_simple_types@U?$pair@$$CBHUITEM_380_TYPE_INFO@@@std@@@std@@@std@@QAEXAAV?$allocator@U?$_Tree_node@U?$pair@$$CBHUITEM_380_TYPE_INFO@@@std@@PAX@std@@@1@PAU?$_Tree_node@U?$pair@$$CBHUITEM_380_TYPE_INFO@@@std@@PAX@1@@Z 00405270 f i 380ItemType.obj
 0001:000042b0       ?_Insert_node@?$_Tree_val@U?$_Tree_simple_types@U?$pair@$$CBEUskill_data@CComboSkillData@@@std@@@std@@@std@@QAEPAU?$_Tree_node@U?$pair@$$CBEUskill_data@CComboSkillData@@@std@@PAX@2@U?$_Tree_id@PAU?$_Tree_node@U?$pair@$$CBEUskill_data@CComboSkillData@@@std@@PAX@std@@@2@QAU32@@Z 004052b0 f i ComboSkillData.obj
 0001:000042b0       ?_Insert_node@?$_Tree_val@U?$_Tree_simple_types@U?$pair@$$CBHPAVCUnionInfo@@@std@@@std@@@std@@QAEPAU?$_Tree_node@U?$pair@$$CBHPAVCUnionInfo@@@std@@PAX@2@U?$_Tree_id@PAU?$_Tree_node@U?$pair@$$CBHPAVCUnionInfo@@@std@@PAX@std@@@2@QAU32@@Z 004052b0 f i Union.obj
 0001:000042b0       ?_Insert_node@?$_Tree_val@U?$_Tree_simple_types@U?$pair@$$CBHV?$vector@UITEM_OPTION_INFO@@V?$allocator@UITEM_OPTION_INFO@@@std@@@std@@@std@@@std@@@std@@QAEPAU?$_Tree_node@U?$pair@$$CBHV?$vector@UITEM_OPTION_INFO@@V?$allocator@UITEM_OPTION_INFO@@@std@@@std@@@std@@PAX@2@U?$_Tree_id@PAU?$_Tree_node@U?$pair@$$CBHV?$vector@UITEM_OPTION_INFO@@V?$allocator@UITEM_OPTION_INFO@@@std@@@std@@@std@@PAX@std@@@2@QAU32@@Z 004052b0 f i ItemOption.obj
 0001:000042b0       ?_Insert_node@?$_Tree_val@U?$_Tree_simple_types@U?$pair@$$CBHUQUEUE_TIMER_INFO@@@std@@@std@@@std@@QAEPAU?$_Tree_node@U?$pair@$$CBHUQUEUE_TIMER_INFO@@@std@@PAX@2@U?$_Tree_id@PAU?$_Tree_node@U?$pair@$$CBHUQUEUE_TIMER_INFO@@@std@@PAX@std@@@2@QAU32@@Z 004052b0 f i QueueTimer.obj
 0001:000042b0       ?_Insert_node@?$_Tree_val@U?$_Tree_simple_types@U?$pair@$$CBHUGATE_INFO@@@std@@@std@@@std@@QAEPAU?$_Tree_node@U?$pair@$$CBHUGATE_INFO@@@std@@PAX@2@U?$_Tree_id@PAU?$_Tree_node@U?$pair@$$CBHUGATE_INFO@@@std@@PAX@std@@@2@QAU32@@Z 004052b0 f i Gate.obj
 0001:000042b0       ?_Insert_node@?$_Tree_val@U?$_Tree_simple_types@U?$pair@$$CBHU_CS_MINIMAP_DATA@@@std@@@std@@@std@@QAEPAU?$_Tree_node@U?$pair@$$CBHU_CS_MINIMAP_DATA@@@std@@PAX@2@U?$_Tree_id@PAU?$_Tree_node@U?$pair@$$CBHU_CS_MINIMAP_DATA@@@std@@PAX@std@@@2@QAU32@@Z 004052b0 f i CastleSiege.obj
 0001:000042b0       ?_Insert_node@?$_Tree_val@U?$_Tree_simple_types@U?$pair@$$CBHUInvasionsData@@@std@@@std@@@std@@QAEPAU?$_Tree_node@U?$pair@$$CBHUInvasionsData@@@std@@PAX@2@U?$_Tree_id@PAU?$_Tree_node@U?$pair@$$CBHUInvasionsData@@@std@@PAX@std@@@2@QAU32@@Z 004052b0 f i ActiveInvasions.obj
 0001:000042b0       ?_Insert_node@?$_Tree_val@U?$_Tree_simple_types@U?$pair@$$CBV?$basic_string@DU?$char_traits@D@std@@V?$allocator@D@2@@std@@URECONNECT_INFO@@@std@@@std@@@std@@QAEPAU?$_Tree_node@U?$pair@$$CBV?$basic_string@DU?$char_traits@D@std@@V?$allocator@D@2@@std@@URECONNECT_INFO@@@std@@PAX@2@U?$_Tree_id@PAU?$_Tree_node@U?$pair@$$CBV?$basic_string@DU?$char_traits@D@std@@V?$allocator@D@2@@std@@URECONNECT_INFO@@@std@@PAX@std@@@2@QAU32@@Z 004052b0 f i Reconnect.obj
 0001:000042b0       ?_Insert_node@?$_Tree_val@U?$_Tree_simple_types@U?$pair@$$CBHUMAP_INFO@@@std@@@std@@@std@@QAEPAU?$_Tree_node@U?$pair@$$CBHUMAP_INFO@@@std@@PAX@2@U?$_Tree_id@PAU?$_Tree_node@U?$pair@$$CBHUMAP_INFO@@@std@@PAX@std@@@2@QAU32@@Z 004052b0 f i Message.obj
 0001:000042b0       ?_Insert_node@?$_Tree_val@U?$_Tree_simple_types@U?$pair@$$CBHPAVCMapServerData@@@std@@@std@@@std@@QAEPAU?$_Tree_node@U?$pair@$$CBHPAVCMapServerData@@@std@@PAX@2@U?$_Tree_id@PAU?$_Tree_node@U?$pair@$$CBHPAVCMapServerData@@@std@@PAX@std@@@2@QAU32@@Z 004052b0 f i MapServerManager.obj
 0001:000042b0       ?_Insert_node@?$_Tree_val@U?$_Tree_simple_types@U?$pair@$$CBHUITEM_OPTION0_RATE_INFO@@@std@@@std@@@std@@QAEPAU?$_Tree_node@U?$pair@$$CBHUITEM_OPTION0_RATE_INFO@@@std@@PAX@2@U?$_Tree_id@PAU?$_Tree_node@U?$pair@$$CBHUITEM_OPTION0_RATE_INFO@@@std@@PAX@std@@@2@QAU32@@Z 004052b0 f i ItemOptionRate.obj
 0001:000042b0       ?_Insert_node@?$_Tree_val@U?$_Tree_simple_types@U?$pair@$$CBV?$basic_string@DU?$char_traits@D@std@@V?$allocator@D@2@@std@@UIP_ADDRESS_INFO@@@std@@@std@@@std@@QAEPAU?$_Tree_node@U?$pair@$$CBV?$basic_string@DU?$char_traits@D@std@@V?$allocator@D@2@@std@@UIP_ADDRESS_INFO@@@std@@PAX@2@U?$_Tree_id@PAU?$_Tree_node@U?$pair@$$CBV?$basic_string@DU?$char_traits@D@std@@V?$allocator@D@2@@std@@UIP_ADDRESS_INFO@@@std@@PAX@std@@@2@QAU32@@Z 004052b0 f i IpManager.obj
 0001:000042b0       ?_Insert_node@?$_Tree_val@U?$_Tree_simple_types@U?$pair@$$CBHUMAP_MANAGER_INFO@@@std@@@std@@@std@@QAEPAU?$_Tree_node@U?$pair@$$CBHUMAP_MANAGER_INFO@@@std@@PAX@2@U?$_Tree_id@PAU?$_Tree_node@U?$pair@$$CBHUMAP_MANAGER_INFO@@@std@@PAX@std@@@2@QAU32@@Z 004052b0 f i MapManager.obj
 0001:000042b0       ?_Insert_node@?$_Tree_val@U?$_Tree_simple_types@U?$pair@$$CBIH@std@@@std@@@std@@QAEPAU?$_Tree_node@U?$pair@$$CBIH@std@@PAX@2@U?$_Tree_id@PAU?$_Tree_node@U?$pair@$$CBIH@std@@PAX@std@@@2@QAU32@@Z 004052b0 f i CastleSiege.obj
 0001:000042b0       ?_Insert_node@?$_Tree_val@U?$_Tree_simple_types@U?$pair@$$CBV?$basic_string@DU?$char_traits@D@std@@V?$allocator@D@2@@std@@UHardwareId_INFO@@@std@@@std@@@std@@QAEPAU?$_Tree_node@U?$pair@$$CBV?$basic_string@DU?$char_traits@D@std@@V?$allocator@D@2@@std@@UHardwareId_INFO@@@std@@PAX@2@U?$_Tree_id@PAU?$_Tree_node@U?$pair@$$CBV?$basic_string@DU?$char_traits@D@std@@V?$allocator@D@2@@std@@UHardwareId_INFO@@@std@@PAX@std@@@2@QAU32@@Z 004052b0 f i HwidManager.obj
 0001:000042b0       ?_Insert_node@?$_Tree_val@U?$_Tree_simple_types@U?$pair@$$CBHUITEM_MOVE_INFO@@@std@@@std@@@std@@QAEPAU?$_Tree_node@U?$pair@$$CBHUITEM_MOVE_INFO@@@std@@PAX@2@U?$_Tree_id@PAU?$_Tree_node@U?$pair@$$CBHUITEM_MOVE_INFO@@@std@@PAX@std@@@2@QAU32@@Z 004052b0 f i ItemMove.obj
 0001:000042b0       ?_Insert_node@?$_Tree_val@U?$_Tree_simple_types@U?$pair@$$CBHUITEM_380_TYPE_INFO@@@std@@@std@@@std@@QAEPAU?$_Tree_node@U?$pair@$$CBHUITEM_380_TYPE_INFO@@@std@@PAX@2@U?$_Tree_id@PAU?$_Tree_node@U?$pair@$$CBHUITEM_380_TYPE_INFO@@@std@@PAX@std@@@2@QAU32@@Z 004052b0 f i 380ItemType.obj
 0001:000042b0       ?_Insert_node@?$_Tree_val@U?$_Tree_simple_types@U?$pair@$$CBHUITEM_OPTION5_RATE_INFO@@@std@@@std@@@std@@QAEPAU?$_Tree_node@U?$pair@$$CBHUITEM_OPTION5_RATE_INFO@@@std@@PAX@2@U?$_Tree_id@PAU?$_Tree_node@U?$pair@$$CBHUITEM_OPTION5_RATE_INFO@@@std@@PAX@std@@@2@QAU32@@Z 004052b0 f i ItemOptionRate.obj
 0001:000042b0       ?_Insert_node@?$_Tree_val@U?$_Tree_simple_types@U?$pair@$$CBHUMASTER_SKILL_TREE_INFO@@@std@@@std@@@std@@QAEPAU?$_Tree_node@U?$pair@$$CBHUMASTER_SKILL_TREE_INFO@@@std@@PAX@2@U?$_Tree_id@PAU?$_Tree_node@U?$pair@$$CBHUMASTER_SKILL_TREE_INFO@@@std@@PAX@std@@@2@QAU32@@Z 004052b0 f i MasterSkillTree.obj
 0001:000042b0       ?_Insert_node@?$_Tree_val@U?$_Tree_simple_types@U?$pair@$$CBH_N@std@@@std@@@std@@QAEPAU?$_Tree_node@U?$pair@$$CBH_N@std@@PAX@2@U?$_Tree_id@PAU?$_Tree_node@U?$pair@$$CBH_N@std@@PAX@std@@@2@QAU32@@Z 004052b0 f i Protection.obj
 0001:000042b0       ?_Insert_node@?$_Tree_val@U?$_Tree_simple_types@U?$pair@$$CBHUMOVE_INFO@@@std@@@std@@@std@@QAEPAU?$_Tree_node@U?$pair@$$CBHUMOVE_INFO@@@std@@PAX@2@U?$_Tree_id@PAU?$_Tree_node@U?$pair@$$CBHUMOVE_INFO@@@std@@PAX@std@@@2@QAU32@@Z 004052b0 f i Move.obj
 0001:000042b0       ?_Insert_node@?$_Tree_val@U?$_Tree_simple_types@U?$pair@$$CBHUITEM_INFO@@@std@@@std@@@std@@QAEPAU?$_Tree_node@U?$pair@$$CBHUITEM_INFO@@@std@@PAX@2@U?$_Tree_id@PAU?$_Tree_node@U?$pair@$$CBHUITEM_INFO@@@std@@PAX@std@@@2@QAU32@@Z 004052b0 f i ItemManager.obj
 0001:000042b0       ?_Insert_node@?$_Tree_val@U?$_Tree_simple_types@U?$pair@$$CBHV?$map@HV?$vector@UMONSTER_SET_BASE_INFO@@V?$allocator@UMONSTER_SET_BASE_INFO@@@std@@@std@@U?$less@H@2@V?$allocator@U?$pair@$$CBHV?$vector@UMONSTER_SET_BASE_INFO@@V?$allocator@UMONSTER_SET_BASE_INFO@@@std@@@std@@@std@@@2@@std@@@std@@@std@@@std@@QAEPAU?$_Tree_node@U?$pair@$$CBHV?$map@HV?$vector@UMONSTER_SET_BASE_INFO@@V?$allocator@UMONSTER_SET_BASE_INFO@@@std@@@std@@U?$less@H@2@V?$allocator@U?$pair@$$CBHV?$vector@UMONSTER_SET_BASE_INFO@@V?$allocator@UMONSTER_SET_BASE_INFO@@@std@@@std@@@std@@@2@@std@@@std@@PAX@2@U?$_Tree_id@PAU?$_Tree_node@U?$pair@$$CBHV?$map@HV?$vector@UMONSTER_SET_BASE_INFO@@V?$allocator@UMONSTER_SET_BASE_INFO@@@std@@@std@@U?$less@H@2@V?$allocator@U?$pair@$$CBHV?$vector@UMONSTER_SET_BASE_INFO@@V?$allocator@UMONSTER_SET_BASE_INFO@@@std@@@std@@@std@@@2@@std@@@std@@PAX@std@@@2@QAU32@@Z 004052b0 f i MonsterSetBase.obj
 0001:000042b0       ?_Insert_node@?$_Tree_val@U?$_Tree_simple_types@U?$pair@$$CBHUITEM_BAG_MANAGER_INFO@@@std@@@std@@@std@@QAEPAU?$_Tree_node@U?$pair@$$CBHUITEM_BAG_MANAGER_INFO@@@std@@PAX@2@U?$_Tree_id@PAU?$_Tree_node@U?$pair@$$CBHUITEM_BAG_MANAGER_INFO@@@std@@PAX@std@@@2@QAU32@@Z 004052b0 f i ItemBagManager.obj
 0001:000042b0       ?_Insert_node@?$_Tree_val@U?$_Tree_simple_types@U?$pair@$$CBHUITEM_OPTION1_RATE_INFO@@@std@@@std@@@std@@QAEPAU?$_Tree_node@U?$pair@$$CBHUITEM_OPTION1_RATE_INFO@@@std@@PAX@2@U?$_Tree_id@PAU?$_Tree_node@U?$pair@$$CBHUITEM_OPTION1_RATE_INFO@@@std@@PAX@std@@@2@QAU32@@Z 004052b0 f i ItemOptionRate.obj
 0001:000042b0       ?_Insert_node@?$_Tree_val@U?$_Tree_simple_types@U?$pair@$$CBV?$basic_string@DU?$char_traits@D@std@@V?$allocator@D@2@@std@@UREGION_DATA@@@std@@@std@@@std@@QAEPAU?$_Tree_node@U?$pair@$$CBV?$basic_string@DU?$char_traits@D@std@@V?$allocator@D@2@@std@@UREGION_DATA@@@std@@PAX@2@U?$_Tree_id@PAU?$_Tree_node@U?$pair@$$CBV?$basic_string@DU?$char_traits@D@std@@V?$allocator@D@2@@std@@UREGION_DATA@@@std@@PAX@std@@@2@QAU32@@Z 004052b0 f i RegionSystem.obj
 0001:000042b0       ?_Insert_node@?$_Tree_val@U?$_Tree_simple_types@U?$pair@$$CBV?$basic_string@DU?$char_traits@D@std@@V?$allocator@D@2@@std@@UREGISTERED_INFO@@@std@@@std@@@std@@QAEPAU?$_Tree_node@U?$pair@$$CBV?$basic_string@DU?$char_traits@D@std@@V?$allocator@D@2@@std@@UREGISTERED_INFO@@@std@@PAX@2@U?$_Tree_id@PAU?$_Tree_node@U?$pair@$$CBV?$basic_string@DU?$char_traits@D@std@@V?$allocator@D@2@@std@@UREGISTERED_INFO@@@std@@PAX@std@@@2@QAU32@@Z 004052b0 f i PartySearch.obj
 0001:000042b0       ?_Insert_node@?$_Tree_val@U?$_Tree_simple_types@U?$pair@$$CBV?$basic_string@DU?$char_traits@D@std@@V?$allocator@D@2@@std@@PAUGUILD_INFO_STRUCT@@@std@@@std@@@std@@QAEPAU?$_Tree_node@U?$pair@$$CBV?$basic_string@DU?$char_traits@D@std@@V?$allocator@D@2@@std@@PAUGUILD_INFO_STRUCT@@@std@@PAX@2@U?$_Tree_id@PAU?$_Tree_node@U?$pair@$$CBV?$basic_string@DU?$char_traits@D@std@@V?$allocator@D@2@@std@@PAUGUILD_INFO_STRUCT@@@std@@PAX@std@@@2@QAU32@@Z 004052b0 f i GuildClass.obj
 0001:000042b0       ?_Insert_node@?$_Tree_val@U?$_Tree_simple_types@U?$pair@$$CBGUTELEPORT_PANEL_INFO@@@std@@@std@@@std@@QAEPAU?$_Tree_node@U?$pair@$$CBGUTELEPORT_PANEL_INFO@@@std@@PAX@2@U?$_Tree_id@PAU?$_Tree_node@U?$pair@$$CBGUTELEPORT_PANEL_INFO@@@std@@PAX@std@@@2@QAU32@@Z 004052b0 f i TeleportPanel.obj
 0001:000042b0       ?_Insert_node@?$_Tree_val@U?$_Tree_simple_types@U?$pair@$$CBHUITEM_BAG_EX_INFO@@@std@@@std@@@std@@QAEPAU?$_Tree_node@U?$pair@$$CBHUITEM_BAG_EX_INFO@@@std@@PAX@2@U?$_Tree_id@PAU?$_Tree_node@U?$pair@$$CBHUITEM_BAG_EX_INFO@@@std@@PAX@std@@@2@QAU32@@Z 004052b0 f i ItemBagEx.obj
 0001:000042b0       ?_Insert_node@?$_Tree_val@U?$_Tree_simple_types@U?$pair@$$CBHUQUEST_DATA@@@std@@@std@@@std@@QAEPAU?$_Tree_node@U?$pair@$$CBHUQUEST_DATA@@@std@@PAX@2@U?$_Tree_id@PAU?$_Tree_node@U?$pair@$$CBHUQUEST_DATA@@@std@@PAX@std@@@2@QAU32@@Z 004052b0 f i CommandManager.obj
 0001:000042b0       ?_Insert_node@?$_Tree_val@U?$_Tree_simple_types@U?$pair@$$CBHUITEM_OPTION2_RATE_INFO@@@std@@@std@@@std@@QAEPAU?$_Tree_node@U?$pair@$$CBHUITEM_OPTION2_RATE_INFO@@@std@@PAX@2@U?$_Tree_id@PAU?$_Tree_node@U?$pair@$$CBHUITEM_OPTION2_RATE_INFO@@@std@@PAX@std@@@2@QAU32@@Z 004052b0 f i ItemOptionRate.obj
 0001:000042b0       ?_Insert_node@?$_Tree_val@U?$_Tree_simple_types@U?$pair@$$CBHUITEM_OPTION3_RATE_INFO@@@std@@@std@@@std@@QAEPAU?$_Tree_node@U?$pair@$$CBHUITEM_OPTION3_RATE_INFO@@@std@@PAX@2@U?$_Tree_id@PAU?$_Tree_node@U?$pair@$$CBHUITEM_OPTION3_RATE_INFO@@@std@@PAX@std@@@2@QAU32@@Z 004052b0 f i ItemOptionRate.obj
 0001:000042b0       ?_Insert_node@?$_Tree_val@U?$_Tree_simple_types@U?$pair@$$CBHUSKILL_INFO@@@std@@@std@@@std@@QAEPAU?$_Tree_node@U?$pair@$$CBHUSKILL_INFO@@@std@@PAX@2@U?$_Tree_id@PAU?$_Tree_node@U?$pair@$$CBHUSKILL_INFO@@@std@@PAX@std@@@2@QAU32@@Z 004052b0 f i SkillManager.obj
 0001:000042b0       ?_Insert_node@?$_Tree_val@U?$_Tree_simple_types@U?$pair@$$CBHPAUGUILD_INFO_STRUCT@@@std@@@std@@@std@@QAEPAU?$_Tree_node@U?$pair@$$CBHPAUGUILD_INFO_STRUCT@@@std@@PAX@2@U?$_Tree_id@PAU?$_Tree_node@U?$pair@$$CBHPAUGUILD_INFO_STRUCT@@@std@@PAX@std@@@2@QAU32@@Z 004052b0 f i GuildClass.obj
 0001:000042b0       ?_Insert_node@?$_Tree_val@U?$_Tree_simple_types@U?$pair@$$CBHV?$vector@UMONSTER_SET_BASE_INFO@@V?$allocator@UMONSTER_SET_BASE_INFO@@@std@@@std@@@std@@@std@@@std@@QAEPAU?$_Tree_node@U?$pair@$$CBHV?$vector@UMONSTER_SET_BASE_INFO@@V?$allocator@UMONSTER_SET_BASE_INFO@@@std@@@std@@@std@@PAX@2@U?$_Tree_id@PAU?$_Tree_node@U?$pair@$$CBHV?$vector@UMONSTER_SET_BASE_INFO@@V?$allocator@UMONSTER_SET_BASE_INFO@@@std@@@std@@@std@@PAX@std@@@2@QAU32@@Z 004052b0 f i MonsterSetBase.obj
 0001:000042b0       ?_Insert_node@?$_Tree_val@U?$_Tree_simple_types@U?$pair@$$CBHUITEM_OPTION6_RATE_INFO@@@std@@@std@@@std@@QAEPAU?$_Tree_node@U?$pair@$$CBHUITEM_OPTION6_RATE_INFO@@@std@@PAX@2@U?$_Tree_id@PAU?$_Tree_node@U?$pair@$$CBHUITEM_OPTION6_RATE_INFO@@@std@@PAX@std@@@2@QAU32@@Z 004052b0 f i ItemOptionRate.obj
 0001:000042b0       ?_Insert_node@?$_Tree_val@U?$_Tree_simple_types@U?$pair@$$CBHH@std@@@std@@@std@@QAEPAU?$_Tree_node@U?$pair@$$CBHH@std@@PAX@2@U?$_Tree_id@PAU?$_Tree_node@U?$pair@$$CBHH@std@@PAX@std@@@2@QAU32@@Z 004052b0 f i ItemBagManager.obj
 0001:000042b0       ?_Insert_node@?$_Tree_val@U?$_Tree_simple_types@U?$pair@$$CBHUSHOP_MANAGER_INFO@@@std@@@std@@@std@@QAEPAU?$_Tree_node@U?$pair@$$CBHUSHOP_MANAGER_INFO@@@std@@PAX@2@U?$_Tree_id@PAU?$_Tree_node@U?$pair@$$CBHUSHOP_MANAGER_INFO@@@std@@PAX@std@@@2@QAU32@@Z 004052b0 f i ShopManager.obj
 0001:000042b0       ?_Insert_node@?$_Tree_val@U?$_Tree_simple_types@U?$pair@$$CBHUITEM_OPTION4_RATE_INFO@@@std@@@std@@@std@@QAEPAU?$_Tree_node@U?$pair@$$CBHUITEM_OPTION4_RATE_INFO@@@std@@PAX@2@U?$_Tree_id@PAU?$_Tree_node@U?$pair@$$CBHUITEM_OPTION4_RATE_INFO@@@std@@PAX@std@@@2@QAU32@@Z 004052b0 f i ItemOptionRate.obj
 0001:000042b0       ?_Insert_node@?$_Tree_val@U?$_Tree_simple_types@U?$pair@$$CBHV?$vector@UITEM_BAG_EX_ITEM_INFO@@V?$allocator@UITEM_BAG_EX_ITEM_INFO@@@std@@@std@@@std@@@std@@@std@@QAEPAU?$_Tree_node@U?$pair@$$CBHV?$vector@UITEM_BAG_EX_ITEM_INFO@@V?$allocator@UITEM_BAG_EX_ITEM_INFO@@@std@@@std@@@std@@PAX@2@U?$_Tree_id@PAU?$_Tree_node@U?$pair@$$CBHV?$vector@UITEM_BAG_EX_ITEM_INFO@@V?$allocator@UITEM_BAG_EX_ITEM_INFO@@@std@@@std@@@std@@PAX@std@@@2@QAU32@@Z 004052b0 f i ItemBagEx.obj
 0001:000042b0       ?_Insert_node@?$_Tree_val@U?$_Tree_simple_types@U?$pair@$$CBHUZEN_DROP@@@std@@@std@@@std@@QAEPAU?$_Tree_node@U?$pair@$$CBHUZEN_DROP@@@std@@PAX@2@U?$_Tree_id@PAU?$_Tree_node@U?$pair@$$CBHUZEN_DROP@@@std@@PAX@std@@@2@QAU32@@Z 004052b0 f i ZenDrop.obj
 0001:000042b0       ?_Insert_node@?$_Tree_val@U?$_Tree_simple_types@U?$pair@$$CBV?$basic_string@DU?$char_traits@D@std@@V?$allocator@D@2@@std@@U_CS_TOTAL_GUILD_DATA@@@std@@@std@@@std@@QAEPAU?$_Tree_node@U?$pair@$$CBV?$basic_string@DU?$char_traits@D@std@@V?$allocator@D@2@@std@@U_CS_TOTAL_GUILD_DATA@@@std@@PAX@2@U?$_Tree_id@PAU?$_Tree_node@U?$pair@$$CBV?$basic_string@DU?$char_traits@D@std@@V?$allocator@D@2@@std@@U_CS_TOTAL_GUILD_DATA@@@std@@PAX@std@@@2@QAU32@@Z 004052b0 f i CastleSiege.obj
 0001:000042b0       ?_Insert_node@?$_Tree_val@U?$_Tree_simple_types@U?$pair@$$CBHUMESSAGE_INFO@@@std@@@std@@@std@@QAEPAU?$_Tree_node@U?$pair@$$CBHUMESSAGE_INFO@@@std@@PAX@2@U?$_Tree_id@PAU?$_Tree_node@U?$pair@$$CBHUMESSAGE_INFO@@@std@@PAX@std@@@2@QAU32@@Z 004052b0 f i Message.obj
 0001:000042b0       ?_Insert_node@?$_Tree_val@U?$_Tree_simple_types@U?$pair@$$CBHUSOCKET_ITEM_TYPE_INFO@@@std@@@std@@@std@@QAEPAU?$_Tree_node@U?$pair@$$CBHUSOCKET_ITEM_TYPE_INFO@@@std@@PAX@2@U?$_Tree_id@PAU?$_Tree_node@U?$pair@$$CBHUSOCKET_ITEM_TYPE_INFO@@@std@@PAX@std@@@2@QAU32@@Z 004052b0 f i SocketItemType.obj
 0001:000042b0       ?_Insert_node@?$_Tree_val@U?$_Tree_simple_types@U?$pair@$$CBHUITEM_EXCELLENT_RATE_INFO@@@std@@@std@@@std@@QAEPAU?$_Tree_node@U?$pair@$$CBHUITEM_EXCELLENT_RATE_INFO@@@std@@PAX@2@U?$_Tree_id@PAU?$_Tree_node@U?$pair@$$CBHUITEM_EXCELLENT_RATE_INFO@@@std@@PAX@std@@@2@QAU32@@Z 004052b0 f i ItemOptionRate.obj
 0001:000042b0       ?_Insert_node@?$_Tree_val@U?$_Tree_simple_types@U?$pair@$$CBGUCUSTOM_MOVE_INFO@@@std@@@std@@@std@@QAEPAU?$_Tree_node@U?$pair@$$CBGUCUSTOM_MOVE_INFO@@@std@@PAX@2@U?$_Tree_id@PAU?$_Tree_node@U?$pair@$$CBGUCUSTOM_MOVE_INFO@@@std@@PAX@std@@@2@QAU32@@Z 004052b0 f i CustomMove.obj
 0001:000044c0       ??1?$_Alloc_construct_ptr@V?$allocator@U?$_Tree_node@U?$pair@$$CBHUITEM_MOVE_INFO@@@std@@PAX@std@@@std@@@std@@QAE@XZ 004054c0 f i ItemMove.obj
 0001:000044c0       ??1?$_Alloc_construct_ptr@V?$allocator@U?$_Tree_node@U?$pair@$$CBHUITEM_BAG_EX_INFO@@@std@@PAX@std@@@std@@@std@@QAE@XZ 004054c0 f i ItemBagEx.obj
 0001:000044c0       ??1?$_Alloc_construct_ptr@V?$allocator@U?$_Tree_node@U?$pair@$$CBHUITEM_380_TYPE_INFO@@@std@@PAX@std@@@std@@@std@@QAE@XZ 004054c0 f i 380ItemType.obj
 0001:000044e0       ?_Throw_tree_length_error@std@@YAXXZ 004054e0 f i 380ItemType.obj
 0001:000044f0       ??0bad_array_new_length@std@@QAE@XZ 004054f0 f i 380ItemType.obj
 0001:00004510       ??1bad_array_new_length@std@@UAE@XZ 00405510 f i 380ItemType.obj
 0001:00004510       ??1bad_alloc@std@@UAE@XZ   00405510 f i 380ItemType.obj
 0001:00004510       ??1length_error@std@@UAE@XZ 00405510 f i libcpmt:xthrow.obj
 0001:00004510       ??1bad_exception@std@@UAE@XZ 00405510 f i libvcruntime:frame.obj
 0001:00004510       ??1failure@ios_base@std@@UAE@XZ 00405510 f i computerHash.obj
 0001:00004510       ??1runtime_error@std@@UAE@XZ 00405510 f i computerHash.obj
 0001:00004510       ??1out_of_range@std@@UAE@XZ 00405510 f i libcpmt:xthrow.obj
 0001:00004510       ??1system_error@std@@UAE@XZ 00405510 f i computerHash.obj
 0001:00004530       ??_Ebad_array_new_length@std@@UAEPAXI@Z 00405530 f i * CIL library *:* CIL module *
 0001:00004530       ??_Gbad_array_new_length@std@@UAEPAXI@Z 00405530 f i 380ItemType.obj
 0001:00004530       ??_Eruntime_error@std@@UAEPAXI@Z 00405530 f i * CIL library *:* CIL module *
 0001:00004530       ??_Eexception@std@@UAEPAXI@Z 00405530 f i * CIL library *:* CIL module *
 0001:00004530       ??_Gruntime_error@std@@UAEPAXI@Z 00405530 f i computerHash.obj
 0001:00004530       ??_Gbad_alloc@std@@UAEPAXI@Z 00405530 f i 380ItemType.obj
 0001:00004530       ??_Ebad_alloc@std@@UAEPAXI@Z 00405530 f i * CIL library *:* CIL module *
 0001:00004530       ??_Gexception@std@@UAEPAXI@Z 00405530 f i 380ItemType.obj
 0001:00004560       ??0bad_array_new_length@std@@QAE@ABV01@@Z 00405560 f i 380ItemType.obj
 0001:000045a0       ??0bad_alloc@std@@QAE@ABV01@@Z 004055a0 f i 380ItemType.obj
 0001:000045e0       ?what@exception@std@@UBEPBDXZ 004055e0 f i 380ItemType.obj
 0001:000045f0       ??0exception@std@@QAE@ABV01@@Z 004055f0 f i 380ItemType.obj
 0001:00004620       ?__scrt_throw_std_bad_array_new_length@@YAXXZ 00405620 f i LIBCMT:throw_bad_alloc.obj
 0001:00004620       ?_Throw_bad_array_new_length@std@@YAXXZ 00405620 f i 380ItemType.obj
 0001:00004640       ?Read@CAchievements@@QAEXPAD@Z 00405640 f   Achievements.obj
 0001:000050b0       ?GCSettingsData@CAchievements@@QAEXH@Z 004060b0 f   Achievements.obj
 0001:000052e0       ?GCPlayerData@CAchievements@@QAEXH_N@Z 004062e0 f   Achievements.obj
 0001:000053b0       ?PlayerReward@CAchievements@@QAEXHH@Z 004063b0 f   Achievements.obj
 0001:00005750       ?ImperialGuardianEvent@CAchievements@@QAEXHH@Z 00406750 f   Achievements.obj
 0001:00005860       ?MonsterKill@CAchievements@@QAEXHH@Z 00406860 f   Achievements.obj
 0001:00006350       ?PlayerKill@CAchievements@@QAEXHH@Z 00407350 f   Achievements.obj
 0001:00006720       ?PickUp@CAchievements@@QAEXHHHHHH@Z 00407720 f   Achievements.obj
 0001:000069f0       ?UsedJewel@CAchievements@@QAEXH@Z 004079f0 f   Achievements.obj
 0001:00006ad0       ?TimeInGame@CAchievements@@QAEXH@Z 00407ad0 f   Achievements.obj
 0001:00006d00       ?LevelUp@CAchievements@@QAEXH@Z 00407d00 f   Achievements.obj
 0001:00006eb0       ?MootopVoteUp@CAchievements@@QAEXH@Z 00407eb0 f   Achievements.obj
 0001:00006fb0       ?WinCastleSiege@CAchievements@@QAEXPAD@Z 00407fb0 f   Achievements.obj
 0001:000071f0       ?BuyDonateShopItem@CAchievements@@QAEXHH@Z 004081f0 f   Achievements.obj
 0001:00007320       ?CalculatorPower@CAchievements@@QAEXH@Z 00408320 f   Achievements.obj
 0001:000075b0       ??1?$vector@UACHIEVEMENTS_INFO@@V?$allocator@UACHIEVEMENTS_INFO@@@std@@@std@@QAE@XZ 004085b0 f i Achievements.obj
 0001:00007620       ?_Xrange@?$vector@URAND_MONSTERCALL_INFO@@V?$allocator@URAND_MONSTERCALL_INFO@@@std@@@std@@CAXXZ 00408620 f i RandomMonsterCall.obj
 0001:00007620       ?_Xrange@?$vector@UACHIEVEMENTS_INFO@@V?$allocator@UACHIEVEMENTS_INFO@@@std@@@std@@CAXXZ 00408620 f i Achievements.obj
 0001:00007630       ??$_Emplace_reallocate@AAUACHIEVEMENTS_INFO@@@?$vector@UACHIEVEMENTS_INFO@@V?$allocator@UACHIEVEMENTS_INFO@@@std@@@std@@QAEPAUACHIEVEMENTS_INFO@@QAU2@AAU2@@Z 00408630 f i Achievements.obj
 0001:000077e0       ?_Xlength@?$vector@UEXPERIENCE_TABLE_INFO@@V?$allocator@UEXPERIENCE_TABLE_INFO@@@std@@@std@@CAXXZ 004087e0 f i ExperienceTable.obj
 0001:000077e0       ?_Xlength@?$vector@UChaosProduce@@V?$allocator@UChaosProduce@@@std@@@std@@CAXXZ 004087e0 f i ChaosBoxManager.obj
 0001:000077e0       ?_Xlength@?$vector@UINVASION_MONSTER_INFO@@V?$allocator@UINVASION_MONSTER_INFO@@@std@@@std@@CAXXZ 004087e0 f i InvasionManager.obj
 0001:000077e0       ?_Xlength@?$vector@UILLUSION_TEMPLE_START_TIME@@V?$allocator@UILLUSION_TEMPLE_START_TIME@@@std@@@std@@CAXXZ 004087e0 f i IllusionTemple.obj
 0001:000077e0       ?_Xlength@?$vector@U_CS_NPC_DATA@@V?$allocator@U_CS_NPC_DATA@@@std@@@std@@CAXXZ 004087e0 f i CastleSiege.obj
 0001:000077e0       ?_Xlength@?$vector@UEVENTTIMER_INFO@@V?$allocator@UEVENTTIMER_INFO@@@std@@@std@@CAXXZ 004087e0 f i EventTimer.obj
 0001:000077e0       ?_Xlength@?$vector@UCSUM_LIST_INFO@@V?$allocator@UCSUM_LIST_INFO@@@std@@@std@@CAXXZ 004087e0 f i FileCheck.obj
 0001:000077e0       ?_Xlength@?$vector@UINVASION_START_TIME@@V?$allocator@UINVASION_START_TIME@@@std@@@std@@CAXXZ 004087e0 f i InvasionManager.obj
 0001:000077e0       ?_Xlength@?$vector@UITEM_DROP_INFO@@V?$allocator@UITEM_DROP_INFO@@@std@@@std@@CAXXZ 004087e0 f i ItemDrop.obj
 0001:000077e0       ?_Xlength@?$vector@URAND_MONSTERCALL_DATA@@V?$allocator@URAND_MONSTERCALL_DATA@@@std@@@std@@CAXXZ 004087e0 f i RandomMonsterCall.obj
 0001:000077e0       ?_Xlength@?$vector@UBOTS_DATA@@V?$allocator@UBOTS_DATA@@@std@@@std@@CAXXZ 004087e0 f i MonsterSpawn.obj
 0001:000077e0       ?_Xlength@?$vector@UBONUS_START_TIME@@V?$allocator@UBONUS_START_TIME@@@std@@@std@@CAXXZ 004087e0 f i BonusManager.obj
 0001:000077e0       ?_Xlength@?$vector@USHOPPOINTEX_MONSTER@@V?$allocator@USHOPPOINTEX_MONSTER@@@std@@@std@@CAXXZ 004087e0 f i ShopPointEx.obj
 0001:000077e0       ?_Xlength@?$vector@UDEVIL_SQUARE_START_TIME@@V?$allocator@UDEVIL_SQUARE_START_TIME@@@std@@@std@@CAXXZ 004087e0 f i DevilSquare.obj
 0001:000077e0       ?_Xlength@?$vector@UADMIN_CHAT_DATA@@V?$allocator@UADMIN_CHAT_DATA@@@std@@@std@@CAXXZ 004087e0 f i AdminChat.obj
 0001:000077e0       ?_Xlength@?$vector@UCHAOS_CASTLE_DELAY_SCORE@@V?$allocator@UCHAOS_CASTLE_DELAY_SCORE@@@std@@@std@@CAXXZ 004087e0 f i ChaosCastle.obj
 0001:000077e0       ?_Xlength@?$vector@UStartBuffData@@V?$allocator@UStartBuffData@@@std@@@std@@CAXXZ 004087e0 f i CustomStartItem.obj
 0001:000077e0       ?_Xlength@?$vector@UBONUS_VALUE_INFO@@V?$allocator@UBONUS_VALUE_INFO@@@std@@@std@@CAXXZ 004087e0 f i BonusManager.obj
 0001:000077e0       ?_Xlength@?$vector@UTVT_EVENT_START_TIME@@V?$allocator@UTVT_EVENT_START_TIME@@@std@@@std@@CAXXZ 004087e0 f i TvTEvent.obj
 0001:000077e0       ?_Xlength@?$vector@UBLOOD_CASTLE_DELAY_SCORE@@V?$allocator@UBLOOD_CASTLE_DELAY_SCORE@@@std@@@std@@CAXXZ 004087e0 f i BloodCastle.obj
 0001:000077e0       ?_Xlength@?$vector@UChaosIngredient@@V?$allocator@UChaosIngredient@@@std@@@std@@CAXXZ 004087e0 f i ChaosBoxManager.obj
 0001:000077e0       ?_Xlength@?$vector@UITEM_OPTION_INFO@@V?$allocator@UITEM_OPTION_INFO@@@std@@@std@@CAXXZ 004087e0 f i ItemOption.obj
 0001:000077e0       ?_Xlength@?$vector@HV?$allocator@H@std@@@std@@CAXXZ 004087e0 f i CastleSiege.obj
 0001:000077e0       ?_Xlength@?$vector@UCUSTOM_ARENA_START_TIME@@V?$allocator@UCUSTOM_ARENA_START_TIME@@@std@@@std@@CAXXZ 004087e0 f i CustomArena.obj
 0001:000077e0       ?_Xlength@?$vector@USKILLS_INFO@@V?$allocator@USKILLS_INFO@@@std@@@std@@CAXXZ 004087e0 f i OfflineMode.obj
 0001:000077e0       ?_Xlength@?$vector@UPackSystemData@@V?$allocator@UPackSystemData@@@std@@@std@@CAXXZ 004087e0 f i PackSystem.obj
 0001:000077e0       ?_Xlength@?$vector@UOFFEXP_ITEMS@@V?$allocator@UOFFEXP_ITEMS@@@std@@@std@@CAXXZ 004087e0 f i CustomAttack.obj
 0001:000077e0       ?_Xlength@?$vector@UTELEPORTS_NPC_DATA@@V?$allocator@UTELEPORTS_NPC_DATA@@@std@@@std@@CAXXZ 004087e0 f i NPCTeleport.obj
 0001:000077e0       ?_Xlength@?$vector@UPREMIUM_DROP_INFO@@V?$allocator@UPREMIUM_DROP_INFO@@@std@@@std@@CAXXZ 004087e0 f i PremiumDrop.obj
 0001:000077e0       ?_Xlength@?$vector@UCASTLE_DEEP_GROUP@@V?$allocator@UCASTLE_DEEP_GROUP@@@std@@@std@@CAXXZ 004087e0 f i CastleDeep.obj
 0001:000077e0       ?_Xlength@?$vector@UCASTLE_DEEP_MONSTER@@V?$allocator@UCASTLE_DEEP_MONSTER@@@std@@@std@@CAXXZ 004087e0 f i CastleDeep.obj
 0001:000077e0       ?_Xlength@?$vector@UITEM_VALUE_INFO@@V?$allocator@UITEM_VALUE_INFO@@@std@@@std@@CAXXZ 004087e0 f i ItemValue.obj
 0001:000077e0       ?_Xlength@?$vector@UChaosTalisman@@V?$allocator@UChaosTalisman@@@std@@@std@@CAXXZ 004087e0 f i ChaosBoxManager.obj
 0001:000077e0       ?_Xlength@?$vector@UROULETTE_INFO@@V?$allocator@UROULETTE_INFO@@@std@@@std@@CAXXZ 004087e0 f i Roulette.obj
 0001:000077e0       ?_Xlength@?$vector@UINVASION_RESPWAN_INFO@@V?$allocator@UINVASION_RESPWAN_INFO@@@std@@@std@@CAXXZ 004087e0 f i InvasionManager.obj
 0001:000077e0       ?_Xlength@?$vector@UMMOTOP_DATA@@V?$allocator@UMMOTOP_DATA@@@std@@@std@@CAXXZ 004087e0 f i MMOTOP.obj
 0001:000077e0       ?_Xlength@?$vector@USUPERPOINTS_INFO@@V?$allocator@USUPERPOINTS_INFO@@@std@@@std@@CAXXZ 004087e0 f i SuperPoints.obj
 0001:000077e0       ?_Xlength@?$vector@UMOSS_MERCHANT_ITEM_INFO@@V?$allocator@UMOSS_MERCHANT_ITEM_INFO@@@std@@@std@@CAXXZ 004087e0 f i MossMerchant.obj
 0001:000077e0       ?_Xlength@?$vector@PAUINVASION_RESPWAN_INFO@@V?$allocator@PAUINVASION_RESPWAN_INFO@@@std@@@std@@CAXXZ 004087e0 f i InvasionManager.obj
 0001:000077e0       ?_Xlength@?$vector@URESET_ITEM_REWARD_DATA@@V?$allocator@URESET_ITEM_REWARD_DATA@@@std@@@std@@CAXXZ 004087e0 f i ResetSystem.obj
 0001:000077e0       ?_Xlength@?$vector@UCASTLE_DEEP_SPAWN@@V?$allocator@UCASTLE_DEEP_SPAWN@@@std@@@std@@CAXXZ 004087e0 f i CastleDeep.obj
 0001:000077e0       ?_Xlength@?$vector@PAVCMapServerData@@V?$allocator@PAVCMapServerData@@@std@@@std@@CAXXZ 004087e0 f i MapServerManager.obj
 0001:000077e0       ?_Xlength@?$vector@UCUSTOM_WING_INFO@@V?$allocator@UCUSTOM_WING_INFO@@@std@@@std@@CAXXZ 004087e0 f i CustomWing.obj
 0001:000077e0       ?_Xlength@?$vector@UCUSTOM_EVENT_DROP_START_TIME@@V?$allocator@UCUSTOM_EVENT_DROP_START_TIME@@@std@@@std@@CAXXZ 004087e0 f i CustomEventDrop.obj
 0001:000077e0       ?_Xlength@?$vector@UChaosCombination@@V?$allocator@UChaosCombination@@@std@@@std@@CAXXZ 004087e0 f i ChaosBoxManager.obj
 0001:000077e0       ?_Xlength@?$vector@UCUSTOM_MONSTER_INFO@@V?$allocator@UCUSTOM_MONSTER_INFO@@@std@@@std@@CAXXZ 004087e0 f i CustomMonster.obj
 0001:000077e0       ?_Xlength@?$vector@UPVPZONE_DATA@@V?$allocator@UPVPZONE_DATA@@@std@@@std@@CAXXZ 004087e0 f i PVPZone.obj
 0001:000077e0       ?_Xlength@?$vector@UPICKUP@@V?$allocator@UPICKUP@@@std@@@std@@CAXXZ 004087e0 f i Pickup.obj
 0001:000077e0       ?_Xlength@?$vector@UMOSS_MERCHANT_START_TIME@@V?$allocator@UMOSS_MERCHANT_START_TIME@@@std@@@std@@CAXXZ 004087e0 f i MossMerchant.obj
 0001:000077e0       ?_Xlength@?$vector@UBLOOD_CASTLE_START_TIME@@V?$allocator@UBLOOD_CASTLE_START_TIME@@@std@@@std@@CAXXZ 004087e0 f i BloodCastle.obj
 0001:000077e0       ?_Xlength@?$vector@UCUSTOM_JEWEL_ITEM_REPLACE_INFO@@V?$allocator@UCUSTOM_JEWEL_ITEM_REPLACE_INFO@@@std@@@std@@CAXXZ 004087e0 f i CustomJewel.obj
 0001:000077e0       ?_Xlength@?$vector@URAND_MONSTERCALL_INFO@@V?$allocator@URAND_MONSTERCALL_INFO@@@std@@@std@@CAXXZ 004087e0 f i RandomMonsterCall.obj
 0001:000077e0       ?_Xlength@?$vector@USDHP_RANKINGS_INFO@@V?$allocator@USDHP_RANKINGS_INFO@@@std@@@std@@CAXXZ 004087e0 f i Rankings.obj
 0001:000077e0       ?_Xlength@?$vector@UCASTLE_DEEP_START_TIME@@V?$allocator@UCASTLE_DEEP_START_TIME@@@std@@@std@@CAXXZ 004087e0 f i CastleDeep.obj
 0001:000077e0       ?_Xlength@?$vector@UMARRY_ITEM@@V?$allocator@UMARRY_ITEM@@@std@@@std@@CAXXZ 004087e0 f i Marry.obj
 0001:000077e0       ?_Xlength@?$vector@UStartItemData@@V?$allocator@UStartItemData@@@std@@@std@@CAXXZ 004087e0 f i CustomStartItem.obj
 0001:000077e0       ?_Xlength@?$vector@U_CS_REG_GUILD_DATA@@V?$allocator@U_CS_REG_GUILD_DATA@@@std@@@std@@CAXXZ 004087e0 f i CastleSiege.obj
 0001:000077e0       ?_Xlength@?$vector@VCTime@ATL@@V?$allocator@VCTime@ATL@@@std@@@std@@CAXXZ 004087e0 f i ScheduleManager.obj
 0001:000077e0       ?_Xlength@?$vector@URANDOM_MANAGER_INFO@@V?$allocator@URANDOM_MANAGER_INFO@@@std@@@std@@CAXXZ 004087e0 f i RandomManager.obj
 0001:000077e0       ?_Xlength@?$vector@V?$basic_string@DU?$char_traits@D@std@@V?$allocator@D@2@@std@@V?$allocator@V?$basic_string@DU?$char_traits@D@std@@V?$allocator@D@2@@std@@@2@@std@@CAXXZ 004087e0 f i Filter.obj
 0001:000077e0       ?_Xlength@?$vector@UTELEPORTS_COMMAND_DATA@@V?$allocator@UTELEPORTS_COMMAND_DATA@@@std@@@std@@CAXXZ 004087e0 f i NPCTeleport.obj
 0001:000077e0       ?_Xlength@?$vector@ULUCKY_ITEM_INFO@@V?$allocator@ULUCKY_ITEM_INFO@@@std@@@std@@CAXXZ 004087e0 f i LuckyItem.obj
 0001:000077e0       ?_Xlength@?$vector@U_CS_SCHEDULE_DATA@@V?$allocator@U_CS_SCHEDULE_DATA@@@std@@@std@@CAXXZ 004087e0 f i CastleSiege.obj
 0001:000077e0       ?_Xlength@?$vector@PAUOBJECTSTRUCT@@V?$allocator@PAUOBJECTSTRUCT@@@std@@@std@@CAXXZ 004087e0 f i Crywolf.obj
 0001:000077e0       ?_Xlength@?$vector@UACHIEVEMENTS_INFO@@V?$allocator@UACHIEVEMENTS_INFO@@@std@@@std@@CAXXZ 004087e0 f i Achievements.obj
 0001:000077e0       ?_Xlength@?$vector@URESPLOC_DATA@@V?$allocator@URESPLOC_DATA@@@std@@@std@@CAXXZ 004087e0 f i RespawnLocation.obj
 0001:000077e0       ?_Xlength@?$vector@URESET_TABLE_INFO@@V?$allocator@URESET_TABLE_INFO@@@std@@@std@@CAXXZ 004087e0 f i ResetTable.obj
 0001:000077e0       ?_Xlength@?$vector@UItemToPointsData@@V?$allocator@UItemToPointsData@@@std@@@std@@CAXXZ 004087e0 f i ItemToPoints.obj
 0001:000077e0       ?_Xlength@?$vector@PAUINVASION_MONSTER_INFO@@V?$allocator@PAUINVASION_MONSTER_INFO@@@std@@@std@@CAXXZ 004087e0 f i InvasionManager.obj
 0001:000077e0       ?_Xlength@?$vector@USmithyDATA@@V?$allocator@USmithyDATA@@@std@@@std@@CAXXZ 004087e0 f i Smithy.obj
 0001:000077e0       ?_Xlength@?$vector@UCUSTOM_EVENT_DROP_ITEM_INFO@@V?$allocator@UCUSTOM_EVENT_DROP_ITEM_INFO@@@std@@@std@@CAXXZ 004087e0 f i CustomEventDrop.obj
 0001:000077e0       ?_Xlength@?$vector@PAVcChaosRecipe@@V?$allocator@PAVcChaosRecipe@@@std@@@std@@CAXXZ 004087e0 f i ChaosBoxManager.obj
 0001:000077e0       ?_Xlength@?$vector@UCALL_INFO@@V?$allocator@UCALL_INFO@@@std@@@std@@CAXXZ 004087e0 f i MonsterCall.obj
 0001:000077e0       ?_Xlength@?$vector@UITEM_STACK_INFO@@V?$allocator@UITEM_STACK_INFO@@@std@@@std@@CAXXZ 004087e0 f i ItemStack.obj
 0001:000077e0       ?_Xlength@?$vector@UDAILY_REWARD_DATA@@V?$allocator@UDAILY_REWARD_DATA@@@std@@@std@@CAXXZ 004087e0 f i DailyReward.obj
 0001:000077e0       ?_Xlength@?$vector@UMOVE_SUMMON_INFO@@V?$allocator@UMOVE_SUMMON_INFO@@@std@@@std@@CAXXZ 004087e0 f i MoveSummon.obj
 0001:000077e0       ?_Xlength@?$vector@UMONSTER_SET_BASE_INFO@@V?$allocator@UMONSTER_SET_BASE_INFO@@@std@@@std@@CAXXZ 004087e0 f i MonsterSetBase.obj
 0001:000077e0       ?_Xlength@?$vector@UCHAOS_CASTLE_START_TIME@@V?$allocator@UCHAOS_CASTLE_START_TIME@@@std@@@std@@CAXXZ 004087e0 f i ChaosCastle.obj
 0001:000077e0       ?_Xlength@?$vector@UITEM_BAG_EX_ITEM_INFO@@V?$allocator@UITEM_BAG_EX_ITEM_INFO@@@std@@@std@@CAXXZ 004087e0 f i ItemBagEx.obj
 0001:000077e0       ?_Xlength@?$vector@UOPTION_REPLACE_INFO@@V?$allocator@UOPTION_REPLACE_INFO@@@std@@@std@@CAXXZ 004087e0 f i OptionReplace.obj
 0001:000077e0       ?_Xlength@?$vector@UITEM_BAG_EX_DROP_INFO@@V?$allocator@UITEM_BAG_EX_DROP_INFO@@@std@@@std@@CAXXZ 004087e0 f i ItemBagEx.obj
 0001:000077e0       ?_Xlength@?$vector@UREGISTERED_GUILD_INFO@@V?$allocator@UREGISTERED_GUILD_INFO@@@std@@@std@@CAXXZ 004087e0 f i Diablo.obj
 0001:000077f0       ?monster_add@CActiveInvasions@@QAEXH@Z 004087f0 f   ActiveInvasions.obj
 0001:00007970       ?monster_del@CActiveInvasions@@QAEXH_N@Z 00408970 f   ActiveInvasions.obj
 0001:00007b60       ?send_list_to_client@CActiveInvasions@@QBEXXZ 00408b60 f   ActiveInvasions.obj
 0001:00007cc0       ?clear@?$_Tree@V?$_Tmap_traits@HUInvasionsData@@U?$less@H@std@@V?$allocator@U?$pair@$$CBHUInvasionsData@@@std@@@3@$0A@@std@@@std@@QAEXXZ 00408cc0 f i ActiveInvasions.obj
 0001:00007d10       ?erase@?$_Tree@V?$_Tmap_traits@HUInvasionsData@@U?$less@H@std@@V?$allocator@U?$pair@$$CBHUInvasionsData@@@std@@@3@$0A@@std@@@std@@QAEIABH@Z 00408d10 f i ActiveInvasions.obj
 0001:00007ea0       ??1?$_Tree@V?$_Tmap_traits@HUSOCKET_ITEM_TYPE_INFO@@U?$less@H@std@@V?$allocator@U?$pair@$$CBHUSOCKET_ITEM_TYPE_INFO@@@std@@@3@$0A@@std@@@std@@QAE@XZ 00408ea0 f i SocketItemType.obj
 0001:00007ea0       ??1?$_Tree@V?$_Tmap_traits@HUInvasionsData@@U?$less@H@std@@V?$allocator@U?$pair@$$CBHUInvasionsData@@@std@@@3@$0A@@std@@@std@@QAE@XZ 00408ea0 f i ActiveInvasions.obj
 0001:00007ea0       ??1?$_Tree@V?$_Tmap_traits@HUQUEUE_TIMER_INFO@@U?$less@H@std@@V?$allocator@U?$pair@$$CBHUQUEUE_TIMER_INFO@@@std@@@3@$0A@@std@@@std@@QAE@XZ 00408ea0 f i QueueTimer.obj
 0001:00007ee0       ?_Extract@?$_Tree_val@U?$_Tree_simple_types@U?$pair@$$CBHPAVCUnionInfo@@@std@@@std@@@std@@QAEPAU?$_Tree_node@U?$pair@$$CBHPAVCUnionInfo@@@std@@PAX@2@V?$_Tree_unchecked_const_iterator@V?$_Tree_val@U?$_Tree_simple_types@U?$pair@$$CBHPAVCUnionInfo@@@std@@@std@@@std@@U_Iterator_base0@2@@2@@Z 00408ee0 f i Union.obj
 0001:00007ee0       ?_Extract@?$_Tree_val@U?$_Tree_simple_types@U?$pair@$$CBV?$basic_string@DU?$char_traits@D@std@@V?$allocator@D@2@@std@@URECONNECT_INFO@@@std@@@std@@@std@@QAEPAU?$_Tree_node@U?$pair@$$CBV?$basic_string@DU?$char_traits@D@std@@V?$allocator@D@2@@std@@URECONNECT_INFO@@@std@@PAX@2@V?$_Tree_unchecked_const_iterator@V?$_Tree_val@U?$_Tree_simple_types@U?$pair@$$CBV?$basic_string@DU?$char_traits@D@std@@V?$allocator@D@2@@std@@URECONNECT_INFO@@@std@@@std@@@std@@U_Iterator_base0@2@@2@@Z 00408ee0 f i Reconnect.obj
 0001:00007ee0       ?_Extract@?$_Tree_val@U?$_Tree_simple_types@U?$pair@$$CBHUInvasionsData@@@std@@@std@@@std@@QAEPAU?$_Tree_node@U?$pair@$$CBHUInvasionsData@@@std@@PAX@2@V?$_Tree_unchecked_const_iterator@V?$_Tree_val@U?$_Tree_simple_types@U?$pair@$$CBHUInvasionsData@@@std@@@std@@@std@@U_Iterator_base0@2@@2@@Z 00408ee0 f i ActiveInvasions.obj
 0001:00008300       ??$_Erase_tree@V?$allocator@U?$_Tree_node@U?$pair@$$CBHUSOCKET_ITEM_TYPE_INFO@@@std@@PAX@std@@@std@@@?$_Tree_val@U?$_Tree_simple_types@U?$pair@$$CBHUSOCKET_ITEM_TYPE_INFO@@@std@@@std@@@std@@QAEXAAV?$allocator@U?$_Tree_node@U?$pair@$$CBHUSOCKET_ITEM_TYPE_INFO@@@std@@PAX@std@@@1@PAU?$_Tree_node@U?$pair@$$CBHUSOCKET_ITEM_TYPE_INFO@@@std@@PAX@1@@Z 00409300 f i SocketItemType.obj
 0001:00008300       ??$_Erase_tree@V?$allocator@U?$_Tree_node@U?$pair@$$CBHUQUEUE_TIMER_INFO@@@std@@PAX@std@@@std@@@?$_Tree_val@U?$_Tree_simple_types@U?$pair@$$CBHUQUEUE_TIMER_INFO@@@std@@@std@@@std@@QAEXAAV?$allocator@U?$_Tree_node@U?$pair@$$CBHUQUEUE_TIMER_INFO@@@std@@PAX@std@@@1@PAU?$_Tree_node@U?$pair@$$CBHUQUEUE_TIMER_INFO@@@std@@PAX@1@@Z 00409300 f i QueueTimer.obj
 0001:00008300       ??$_Erase_tree@V?$allocator@U?$_Tree_node@U?$pair@$$CBHUInvasionsData@@@std@@PAX@std@@@std@@@?$_Tree_val@U?$_Tree_simple_types@U?$pair@$$CBHUInvasionsData@@@std@@@std@@@std@@QAEXAAV?$allocator@U?$_Tree_node@U?$pair@$$CBHUInvasionsData@@@std@@PAX@std@@@1@PAU?$_Tree_node@U?$pair@$$CBHUInvasionsData@@@std@@PAX@1@@Z 00409300 f i ActiveInvasions.obj
 0001:00008340       ??1?$_Tree_temp_node_alloc@V?$allocator@U?$_Tree_node@U?$pair@$$CBHV?$map@HV?$vector@UMONSTER_SET_BASE_INFO@@V?$allocator@UMONSTER_SET_BASE_INFO@@@std@@@std@@U?$less@H@2@V?$allocator@U?$pair@$$CBHV?$vector@UMONSTER_SET_BASE_INFO@@V?$allocator@UMONSTER_SET_BASE_INFO@@@std@@@std@@@std@@@2@@std@@@std@@PAX@std@@@std@@@std@@QAE@XZ 00409340 f i MonsterSetBase.obj
 0001:00008340       ??1?$_Alloc_construct_ptr@V?$allocator@U?$_Tree_node@U?$pair@$$CBHV?$map@HV?$vector@UMONSTER_SET_BASE_INFO@@V?$allocator@UMONSTER_SET_BASE_INFO@@@std@@@std@@U?$less@H@2@V?$allocator@U?$pair@$$CBHV?$vector@UMONSTER_SET_BASE_INFO@@V?$allocator@UMONSTER_SET_BASE_INFO@@@std@@@std@@@std@@@2@@std@@@std@@PAX@std@@@std@@@std@@QAE@XZ 00409340 f i MonsterSetBase.obj
 0001:00008340       ??1?$_Alloc_construct_ptr@V?$allocator@U?$_Tree_node@U?$pair@$$CBHUQUEUE_TIMER_INFO@@@std@@PAX@std@@@std@@@std@@QAE@XZ 00409340 f i QueueTimer.obj
 0001:00008340       ??1?$_Alloc_construct_ptr@V?$allocator@U?$_Tree_node@U?$pair@$$CBHUSOCKET_ITEM_TYPE_INFO@@@std@@PAX@std@@@std@@@std@@QAE@XZ 00409340 f i SocketItemType.obj
 0001:00008340       ??1?$_Alloc_construct_ptr@V?$allocator@U?$_Tree_node@U?$pair@$$CBHUInvasionsData@@@std@@PAX@std@@@std@@@std@@QAE@XZ 00409340 f i ActiveInvasions.obj
 0001:00008360       ?StringToUTF8@CAdminChat@@SAHAAV?$CStringT@DV?$StrTraitATL@DV?$ChTraitsCRT@D@ATL@@@ATL@@@ATL@@@Z 00409360 f   AdminChat.obj
 0001:00008570       ?add_to_list@CAdminChat@@QAEXV?$basic_string@DU?$char_traits@D@std@@V?$allocator@D@2@@std@@0W4eChatType@@@Z 00409570 f   AdminChat.obj
 0001:00008cd0       ??1ADMIN_CHAT_DATA@@QAE@XZ 00409cd0 f i AdminChat.obj
 0001:00008d60       ?update_view@CAdminChat@@QAEXPAUHWND__@@0@Z 00409d60 f   AdminChat.obj
 0001:00008f60       ?gObjGetBySelectedIndex@CAdminChat@@QAEPAUOBJECTSTRUCT@@H@Z 00409f60 f   AdminChat.obj
 0001:00009010       ??1?$vector@UADMIN_CHAT_DATA@@V?$allocator@UADMIN_CHAT_DATA@@@std@@@std@@QAE@XZ 0040a010 f i AdminChat.obj
 0001:00009090       ?_Destroy@?$vector@UADMIN_CHAT_DATA@@V?$allocator@UADMIN_CHAT_DATA@@@std@@@std@@AAEXPAUADMIN_CHAT_DATA@@0@Z 0040a090 f i AdminChat.obj
 0001:000090c0       ?deallocate@?$allocator@UADMIN_CHAT_DATA@@@std@@QAEXQAUADMIN_CHAT_DATA@@I@Z 0040a0c0 f i AdminChat.obj
 0001:00009100       ??$?HDU?$char_traits@D@std@@V?$allocator@D@1@@std@@YA?AV?$basic_string@DU?$char_traits@D@std@@V?$allocator@D@2@@0@QBD$$QAV10@@Z 0040a100 f i AdminChat.obj
 0001:00009210       ??$_Emplace_reallocate@AAUADMIN_CHAT_DATA@@@?$vector@UADMIN_CHAT_DATA@@V?$allocator@UADMIN_CHAT_DATA@@@std@@@std@@QAEPAUADMIN_CHAT_DATA@@QAU2@AAU2@@Z 0040a210 f i AdminChat.obj
 0001:00009460       ??$_Traits_find@U?$char_traits@D@std@@@std@@YAIQBDII0I@Z 0040a460 f i AdminChat.obj
 0001:00009550       ??4?$basic_string@DU?$char_traits@D@std@@V?$allocator@D@2@@std@@QAEAAV01@$$QAV01@@Z 0040a550 f i AdminChat.obj
 0001:000095d0       ?_Xran@?$_String_val@U?$_Simple_types@D@std@@@std@@SAXXZ 0040a5d0 f i AdminChat.obj
 0001:000095e0       ??$_Uninitialized_move@PAUADMIN_CHAT_DATA@@V?$allocator@UADMIN_CHAT_DATA@@@std@@@std@@YAPAUADMIN_CHAT_DATA@@QAU1@0PAU1@AAV?$allocator@UADMIN_CHAT_DATA@@@0@@Z 0040a5e0 f i AdminChat.obj
 0001:00009690       ??$_Reallocate_grow_by@V<lambda_4d79bb85f269e6e8002a4599002d832c>@@IPBDI@?$basic_string@DU?$char_traits@D@std@@V?$allocator@D@2@@std@@AAEAAV01@IV<lambda_4d79bb85f269e6e8002a4599002d832c>@@IPBDI@Z 0040a690 f i AdminChat.obj
 0001:000097d0       ??0?$basic_string@DU?$char_traits@D@std@@V?$allocator@D@2@@std@@QAE@ABV01@@Z 0040a7d0 f i AdminChat.obj
 0001:000098a0       ?append@?$basic_string@DU?$char_traits@D@std@@V?$allocator@D@2@@std@@QAEAAV12@ABV12@@Z 0040a8a0 f i AdminChat.obj
 0001:00009920       ??$_Reallocate_grow_by@V<lambda_ab246b20b9526e2ef7792587e4298a77>@@PBDI@?$basic_string@DU?$char_traits@D@std@@V?$allocator@D@2@@std@@AAEAAV01@IV<lambda_ab246b20b9526e2ef7792587e4298a77>@@PBDI@Z 0040a920 f i AdminChat.obj
 0001:00009a80       ?append@?$basic_string@DU?$char_traits@D@std@@V?$allocator@D@2@@std@@QAEAAV12@QBD@Z 0040aa80 f i AdminChat.obj
 0001:00009af0       ___local_stdio_printf_options 0040aaf0 f i AdminChat.obj
 0001:00009b00       __vsnprintf_l              0040ab00 f i AdminChat.obj
 0001:00009b40       _sprintf                   0040ab40 f i AdminChat.obj
 0001:00009b60       ?compare@?$basic_string@DU?$char_traits@D@std@@V?$allocator@D@2@@std@@QBEHABV12@@Z 0040ab60 f i AdminChat.obj
 0001:00009c00       ??$_UIntegral_to_buff@D_K@std@@YAPADPAD_K@Z 0040ac00 f i AdminChat.obj
 0001:00009d20       ?to_string@std@@YA?AV?$basic_string@DU?$char_traits@D@std@@V?$allocator@D@2@@1@_J@Z 0040ad20 f i AdminChat.obj
 0001:00009dc0       ?Allocate@CWin32Heap@ATL@@UAEPAXI@Z 0040adc0 f i AdminChat.obj
 0001:00009de0       ?Free@CWin32Heap@ATL@@UAEXPAX@Z 0040ade0 f i AdminChat.obj
 0001:00009e00       ?Reallocate@CWin32Heap@ATL@@UAEPAXPAXI@Z 0040ae00 f i AdminChat.obj
 0001:00009e40       ?GetSize@CWin32Heap@ATL@@UAEIPAX@Z 0040ae40 f i AdminChat.obj
 0001:00009e60       ??_ECWin32Heap@ATL@@UAEPAXI@Z 0040ae60 f i * CIL library *:* CIL module *
 0001:00009e60       ??_GCWin32Heap@ATL@@UAEPAXI@Z 0040ae60 f i AdminChat.obj
 0001:00009ea0       ?Allocate@CAtlStringMgr@ATL@@UAEPAUCStringData@2@HH@Z 0040aea0 f i AdminChat.obj
 0001:00009f10       ?Free@CAtlStringMgr@ATL@@UAEXPAUCStringData@2@@Z 0040af10 f i AdminChat.obj
 0001:00009f20       ?Reallocate@CAtlStringMgr@ATL@@UAEPAUCStringData@2@PAU32@HH@Z 0040af20 f i AdminChat.obj
 0001:00009f80       ?GetNilString@CAtlStringMgr@ATL@@UAEPAUCStringData@2@XZ 0040af80 f i AdminChat.obj
 0001:00009f90       ?_Getal@?$_Tree@V?$_Tmap_traits@HV?$vector@UMONSTER_SET_BASE_INFO@@V?$allocator@UMONSTER_SET_BASE_INFO@@@std@@@std@@U?$less@H@2@V?$allocator@U?$pair@$$CBHV?$vector@UMONSTER_SET_BASE_INFO@@V?$allocator@UMONSTER_SET_BASE_INFO@@@std@@@std@@@std@@@2@$0A@@std@@@std@@IAEAAV?$allocator@U?$_Tree_node@U?$pair@$$CBHV?$vector@UMONSTER_SET_BASE_INFO@@V?$allocator@UMONSTER_SET_BASE_INFO@@@std@@@std@@@std@@PAX@std@@@2@XZ 0040af90 f i MonsterSetBase.obj
 0001:00009f90       ?_Getal@?$_Tree@V?$_Tmap_traits@HUITEM_BAG_EX_INFO@@U?$less@H@std@@V?$allocator@U?$pair@$$CBHUITEM_BAG_EX_INFO@@@std@@@3@$0A@@std@@@std@@IAEAAV?$allocator@U?$_Tree_node@U?$pair@$$CBHUITEM_BAG_EX_INFO@@@std@@PAX@std@@@2@XZ 0040af90 f i ItemBagEx.obj
 0001:00009f90       ?_Getal@?$_Tree@V?$_Tmap_traits@HV?$vector@UITEM_BAG_EX_ITEM_INFO@@V?$allocator@UITEM_BAG_EX_ITEM_INFO@@@std@@@std@@U?$less@H@2@V?$allocator@U?$pair@$$CBHV?$vector@UITEM_BAG_EX_ITEM_INFO@@V?$allocator@UITEM_BAG_EX_ITEM_INFO@@@std@@@std@@@std@@@2@$0A@@std@@@std@@IAEAAV?$allocator@U?$_Tree_node@U?$pair@$$CBHV?$vector@UITEM_BAG_EX_ITEM_INFO@@V?$allocator@UITEM_BAG_EX_ITEM_INFO@@@std@@@std@@@std@@PAX@std@@@2@XZ 0040af90 f i ItemBagEx.obj
 0001:00009f90       ?Clone@CAtlStringMgr@ATL@@UAEPAUIAtlStringMgr@2@XZ 0040af90 f i AdminChat.obj
 0001:00009fa0       ??_GCAtlStringMgr@ATL@@UAEPAXI@Z 0040afa0 f i AdminChat.obj
 0001:00009fa0       ??_ECAtlStringMgr@ATL@@UAEPAXI@Z 0040afa0 f i * CIL library *:* CIL module *
 0001:00009fe0       ?GetInstance@CAtlStringMgr@ATL@@SAPAUIAtlStringMgr@2@XZ 0040afe0 f i AdminChat.obj
 0001:0000a0d0       ?_AtlGetStringResourceImage@ATL@@YAPBUATLSTRINGRESOURCEIMAGE@1@PAUHINSTANCE__@@PAUHRSRC__@@I@Z 0040b0d0 f i AdminChat.obj
 0001:0000a130       ?LoadStringA@?$CStringT@DV?$StrTraitATL@DV?$ChTraitsCRT@D@ATL@@@ATL@@@ATL@@QAEHI@Z 0040b130 f i AdminChat.obj
 0001:0000a260       ?Fork@?$CSimpleStringT@D$0A@@ATL@@AAEXH@Z 0040b260 f i AdminChat.obj
 0001:0000a2f0       ?ThrowMemoryException@?$CSimpleStringT@D$0A@@ATL@@KAXXZ 0040b2f0 f i AdminChat.obj
 0001:0000a300       ?Reallocate@?$CSimpleStringT@D$0A@@ATL@@AAEXH@Z 0040b300 f i AdminChat.obj
 0001:0000a340       ?PrepareWrite2@?$CSimpleStringT@D$0A@@ATL@@AAEXH@Z 0040b340 f i AdminChat.obj
 0001:0000a3a0       ?CopyChars@?$CSimpleStringT@D$0A@@ATL@@SAXPADIPBDH@Z 0040b3a0 f i AdminChat.obj
 0001:0000a420       ?SetString@?$CSimpleStringT@D$0A@@ATL@@QAEXPBDH@Z 0040b420 f i AdminChat.obj
 0001:0000a500       ??0?$CStringT@DV?$StrTraitATL@DV?$ChTraitsCRT@D@ATL@@@ATL@@@ATL@@QAE@PBD@Z 0040b500 f i AdminChat.obj
 0001:0000a5a0       ?_Xlen_string@std@@YAXXZ   0040b5a0 f i AdminChat.obj
 0001:0000a5b0       ?assign@?$basic_string@DU?$char_traits@D@std@@V?$allocator@D@2@@std@@QAEAAV12@QBDI@Z 0040b5b0 f i AdminChat.obj
 0001:0000a6e0       ??0?$basic_string@DU?$char_traits@D@std@@V?$allocator@D@2@@std@@QAE@QBD@Z 0040b6e0 f i AdminChat.obj
 0001:0000a720       ??1?$CStringT@DV?$StrTraitATL@DV?$ChTraitsCRT@D@ATL@@@ATL@@@ATL@@QAE@XZ 0040b720 f i AdminChat.obj
 0001:0000a720       ??1?$CSimpleStringT@D$0A@@ATL@@QAE@XZ 0040b720 f i AdminChat.obj
 0001:0000a740       ??0CAtlException@ATL@@QAE@J@Z 0040b740 f i AdminChat.obj
 0001:0000a750       ?AtlThrowImpl@ATL@@YGXJ@Z  0040b750 f i AdminChat.obj
 0001:0000a770       ?Empty@?$CSimpleStringT@D$0A@@ATL@@QAEXXZ 0040b770 f i AdminChat.obj
 0001:0000a810       ??1?$pair@V?$basic_string@DU?$char_traits@D@std@@V?$allocator@D@2@@std@@UIP_ADDRESS_INFO@@@std@@QAE@XZ 0040b810 f i IpManager.obj
 0001:0000a810       ??1?$pair@V?$basic_string@DU?$char_traits@D@std@@V?$allocator@D@2@@std@@UREGISTERED_INFO@@@std@@QAE@XZ 0040b810 f i PartySearch.obj
 0001:0000a810       ??1?$pair@V?$basic_string@DU?$char_traits@D@std@@V?$allocator@D@2@@std@@UHardwareId_INFO@@@std@@QAE@XZ 0040b810 f i HwidManager.obj
 0001:0000a810       ??1?$basic_string@DU?$char_traits@D@std@@V?$allocator@D@2@@std@@QAE@XZ 0040b810 f i AdminChat.obj
 0001:0000a810       ??1?$pair@V?$basic_string@DU?$char_traits@D@std@@V?$allocator@D@2@@std@@URECONNECT_INFO@@@std@@QAE@XZ 0040b810 f i Reconnect.obj
 0001:0000a860       ??0ARCA_BATTLE_OBELISK_AURA_INFO@@QAE@XZ 0040b860 f i ArcaBattle.obj
 0001:0000a890       ??0ARCA_BATTLE_OBELISK_INFO@@QAE@XZ 0040b890 f i ArcaBattle.obj
 0001:0000a8f0       ??_GCArcaBattle@@UAEPAXI@Z 0040b8f0 f i ArcaBattle.obj
 0001:0000a8f0       ??_ECArcaBattle@@UAEPAXI@Z 0040b8f0 f i * CIL library *:* CIL module *
 0001:0000a930       ??1?$vector@UROULETTE_INFO@@V?$allocator@UROULETTE_INFO@@@std@@@std@@QAE@XZ 0040b930 f i Roulette.obj
 0001:0000a930       ?_Tidy@?$vector@UITEM_REQUIREMENTS@@V?$allocator@UITEM_REQUIREMENTS@@@std@@@std@@AAEXXZ 0040b930 f i MapQuestSystem.obj
 0001:0000a930       ??1?$vector@UARCA_BATTLE_START_TIME@@V?$allocator@UARCA_BATTLE_START_TIME@@@std@@@std@@QAE@XZ 0040b930 f i ArcaBattle.obj
 0001:0000a930       ??1?$vector@UITEM_VALUE_INFO@@V?$allocator@UITEM_VALUE_INFO@@@std@@@std@@QAE@XZ 0040b930 f i ItemValue.obj
 0001:0000a930       ??1?$vector@UPackSystemData@@V?$allocator@UPackSystemData@@@std@@@std@@QAE@XZ 0040b930 f i PackSystem.obj
 0001:0000a930       ??1?$vector@UPREMIUM_DROP_INFO@@V?$allocator@UPREMIUM_DROP_INFO@@@std@@@std@@QAE@XZ 0040b930 f i PremiumDrop.obj
 0001:0000a930       ??1?$vector@USDHP_RANKINGS_INFO@@V?$allocator@USDHP_RANKINGS_INFO@@@std@@@std@@QAE@XZ 0040b930 f i Rankings.obj
 0001:0000a930       ??1?$vector@UCASTLE_DEEP_MONSTER@@V?$allocator@UCASTLE_DEEP_MONSTER@@@std@@@std@@QAE@XZ 0040b930 f i CastleDeep.obj
 0001:0000a990       ??_GCAttack@@UAEPAXI@Z     0040b990 f i Attack.obj
 0001:0000a990       ??_ECAttack@@UAEPAXI@Z     0040b990 f i * CIL library *:* CIL module *
 0001:0000a9c0       ?Attack@CAttack@@QAE_NPAUOBJECTSTRUCT@@0PAVCSkill@@_NEHH22@Z 0040b9c0 f   Attack.obj
 0001:0000cb10       ?DecreaseArrow@CAttack@@QAE_NPAUOBJECTSTRUCT@@@Z 0040db10 f   Attack.obj
 0001:0000cce0       ?WingSprite@CAttack@@QAEXPAUOBJECTSTRUCT@@0PAH@Z 0040dce0 f   Attack.obj
 0001:0000d1e0       ?HelperSprite@CAttack@@QAEXPAUOBJECTSTRUCT@@0PAH@Z 0040e1e0 f   Attack.obj
 0001:0000d4e0       ?DamageSprite@CAttack@@QAEXPAUOBJECTSTRUCT@@H@Z 0040e4e0 f   Attack.obj
 0001:0000dac0       ?ArmorDurabilityDown@CAttack@@QAEXPAUOBJECTSTRUCT@@0@Z 0040eac0 f   Attack.obj
 0001:0000dbb0       ?CheckPlayerTarget@CAttack@@QAE_NPAUOBJECTSTRUCT@@0@Z 0040ebb0 f   Attack.obj
 0001:0000e350       ?MissSend@CAttack@@QAEXPAUOBJECTSTRUCT@@0PAVCSkill@@HH@Z 0040f350 f   Attack.obj
 0001:0000e410       ?MissCheckPvP@CAttack@@QAE_NPAUOBJECTSTRUCT@@0PAVCSkill@@HHPAE@Z 0040f410 f   Attack.obj
 0001:0000e530       ?ApplySkillEffect@CAttack@@QAE_NPAUOBJECTSTRUCT@@0PAVCSkill@@H@Z 0040f530 f   Attack.obj
 0001:0000f680       ?GetAttackDamage@CAttack@@QAEHPAUOBJECTSTRUCT@@0PAVCSkill@@PAGH@Z 00410680 f   Attack.obj
 0001:0000fbf0       ?GetAttackDamageWizard@CAttack@@QAEHPAUOBJECTSTRUCT@@0PAVCSkill@@PAGH@Z 00410bf0 f   Attack.obj
 0001:0000ff50       ?GetAttackDamageCursed@CAttack@@QAEHPAUOBJECTSTRUCT@@0PAVCSkill@@PAGH@Z 00410f50 f   Attack.obj
 0001:00010270       ?GetAttackDamageFenrir@CAttack@@QAEHPAUOBJECTSTRUCT@@0PAVCSkill@@PAGH@Z 00411270 f   Attack.obj
 0001:00010560       ?GetShieldDamage@CAttack@@QAEHPAUOBJECTSTRUCT@@0H@Z 00411560 f   Attack.obj
 0001:000106a0       ?CGAttackRecv@CAttack@@QAEXPAUPMSG_ATTACK_RECV@@H@Z 004116a0 f   Attack.obj
 0001:00010950       ??_ECBankEx@@UAEPAXI@Z     00411950 f i * CIL library *:* CIL module *
 0001:00010950       ??_GCBankEx@@UAEPAXI@Z     00411950 f i BankEx.obj
 0001:00010980       ?GDSavePoint@CBankEx@@QAEXH@Z 00411980 f   BankEx.obj
 0001:00010a90       ?GCUpdateBankEx@CBankEx@@QAEXH@Z 00411a90 f   BankEx.obj
 0001:00010bb0       ??_ECBattleGround@@UAEPAXI@Z 00411bb0 f i * CIL library *:* CIL module *
 0001:00010bb0       ??_GCBattleGround@@UAEPAXI@Z 00411bb0 f i BattleGround.obj
 0001:00010be0       ??_GCBattleSoccer@@UAEPAXI@Z 00411be0 f i BattleSoccer.obj
 0001:00010be0       ??_ECBattleSoccer@@UAEPAXI@Z 00411be0 f i * CIL library *:* CIL module *
 0001:00010c10       ?gBattleGroundEnable@@YAXHH@Z 00411c10 f   BattleSoccerManager.obj
 0001:00010c80       ?gCheckBattleGround@@YAHPAUOBJECTSTRUCT@@@Z 00411c80 f   BattleSoccerManager.obj
 0001:00010d10       ??0BLOOD_CASTLE_LEVEL@@QAE@XZ 00411d10 f i BloodCastle.obj
 0001:00010d40       ??_ECBloodCastle@@UAEPAXI@Z 00411d40 f i * CIL library *:* CIL module *
 0001:00010d40       ??_GCBloodCastle@@UAEPAXI@Z 00411d40 f i BloodCastle.obj
 0001:00010dc0       ??1BLOOD_CASTLE_LEVEL@@QAE@XZ 00411dc0 f i BloodCastle.obj
 0001:00010dd0       ?Init@CBloodCastle@@QAEXXZ 00411dd0 f   BloodCastle.obj
 0001:00010e30       ?Load@CBloodCastle@@QAEXPAD@Z 00411e30 f   BloodCastle.obj
 0001:00011340       ?MainProc@CBloodCastle@@QAEXXZ 00412340 f   BloodCastle.obj
 0001:000115f0       ?ProcState_EMPTY@CBloodCastle@@QAEXPAUBLOOD_CASTLE_LEVEL@@@Z 004125f0 f   BloodCastle.obj
 0001:00011860       ?ProcState_START@CBloodCastle@@QAEXPAUBLOOD_CASTLE_LEVEL@@@Z 00412860 f   BloodCastle.obj
 0001:00011bf0       ?SetState@CBloodCastle@@QAEXPAUBLOOD_CASTLE_LEVEL@@H@Z 00412bf0 f   BloodCastle.obj
 0001:00011cc0       ?SetState_EMPTY@CBloodCastle@@QAEXPAUBLOOD_CASTLE_LEVEL@@@Z 00412cc0 f   BloodCastle.obj
 0001:00011fd0       ?SetState_START@CBloodCastle@@QAEXPAUBLOOD_CASTLE_LEVEL@@@Z 00412fd0 f   BloodCastle.obj
 0001:000123d0       ?SetState_CLEAN@CBloodCastle@@QAEXPAUBLOOD_CASTLE_LEVEL@@@Z 004133d0 f   BloodCastle.obj
 0001:00012750       ?SetStage2@CBloodCastle@@QAEXPAUBLOOD_CASTLE_LEVEL@@@Z 00413750 f   BloodCastle.obj
 0001:000128f0       ?SetStage3@CBloodCastle@@QAEXPAUBLOOD_CASTLE_LEVEL@@@Z 004138f0 f   BloodCastle.obj
 0001:00012ab0       ?CheckSync@CBloodCastle@@QAEXPAUBLOOD_CASTLE_LEVEL@@@Z 00413ab0 f   BloodCastle.obj
 0001:00012c80       ?GetRemainTime@CBloodCastle@@QAEHH@Z 00413c80 f   BloodCastle.obj
 0001:00012e40       ?DelUser@CBloodCastle@@QAE_NPAUBLOOD_CASTLE_LEVEL@@H@Z 00413e40 f   BloodCastle.obj
 0001:00012ec0       ?CheckUser@CBloodCastle@@QAEXPAUBLOOD_CASTLE_LEVEL@@@Z 00413ec0 f   BloodCastle.obj
 0001:00012f10       ?GetUserAbleLevel@CBloodCastle@@QAEHPAUOBJECTSTRUCT@@@Z 00413f10 f   BloodCastle.obj
 0001:000130b0       ?GetUserAbleLevelNew@CBloodCastle@@QAEHPAUOBJECTSTRUCT@@@Z 004140b0 f   BloodCastle.obj
 0001:00013260       ?GiveUserRewardExperience@CBloodCastle@@QAEXPAUBLOOD_CASTLE_LEVEL@@H@Z 00414260 f   BloodCastle.obj
 0001:000133b0       ?GiveUserRewardMoney@CBloodCastle@@QAEXPAUBLOOD_CASTLE_LEVEL@@H@Z 004143b0 f   BloodCastle.obj
 0001:000134c0       ?GiveUserRewardItem@CBloodCastle@@QAEXPAUBLOOD_CASTLE_LEVEL@@H@Z 004144c0 f   BloodCastle.obj
 0001:000136a0       ?SearchUserDropEventItem@CBloodCastle@@QAEXH@Z 004146a0 f   BloodCastle.obj
 0001:00013850       ?SearchUserDeleteEventItem@CBloodCastle@@QAEXH@Z 00414850 f   BloodCastle.obj
 0001:00013960       ?SetMonster@CBloodCastle@@QAEXPAUBLOOD_CASTLE_LEVEL@@H@Z 00414960 f   BloodCastle.obj
 0001:00013a60       ?NpcAngelKing@CBloodCastle@@QAEXPAUOBJECTSTRUCT@@0@Z 00414a60 f   BloodCastle.obj
 0001:00013bf0       ?NpcAngelMessenger@CBloodCastle@@QAEXPAUOBJECTSTRUCT@@@Z 00414bf0 f   BloodCastle.obj
 0001:00013d90       ?MonsterDieProc@CBloodCastle@@QAEXPAUOBJECTSTRUCT@@0@Z 00414d90 f   BloodCastle.obj
 0001:00014070       ?NoticeSendToAll@CBloodCastle@@QAAXPAUBLOOD_CASTLE_LEVEL@@HPADZZ 00415070 f   BloodCastle.obj
 0001:00014100       ?CGBloodCastleEnterRecv@CBloodCastle@@QAEXPAUPMSG_BLOOD_CASTLE_ENTER_RECV@@H@Z 00415100 f   BloodCastle.obj
 0001:00014530       ?GCBloodCastleScoreSend@CBloodCastle@@QAEXPAUBLOOD_CASTLE_LEVEL@@HH@Z 00415530 f   BloodCastle.obj
 0001:000145f0       ?GCBloodCastleDelayScoreSend@CBloodCastle@@QAEXPAUBLOOD_CASTLE_LEVEL@@HH@Z 004155f0 f   BloodCastle.obj
 0001:00014710       ?GCBloodCastleStateSend@CBloodCastle@@QAEXPAUBLOOD_CASTLE_LEVEL@@H@Z 00415710 f   BloodCastle.obj
 0001:000147b0       ?GCBloodCastleSimpleStateSend@CBloodCastle@@QAEXPAUBLOOD_CASTLE_LEVEL@@HH@Z 004157b0 f   BloodCastle.obj
 0001:00014850       ??1?$vector@UILLUSION_TEMPLE_START_TIME@@V?$allocator@UILLUSION_TEMPLE_START_TIME@@@std@@@std@@QAE@XZ 00415850 f i IllusionTemple.obj
 0001:00014850       ??1?$vector@USHOPPOINTEX_MONSTER@@V?$allocator@USHOPPOINTEX_MONSTER@@@std@@@std@@QAE@XZ 00415850 f i ShopPointEx.obj
 0001:00014850       ??1?$vector@UCUSTOM_VIP_LOTTERY_START_TIME@@V?$allocator@UCUSTOM_VIP_LOTTERY_START_TIME@@@std@@@std@@QAE@XZ 00415850 f i VipLotteryEvent.obj
 0001:00014850       ??1?$vector@UINVASION_START_TIME@@V?$allocator@UINVASION_START_TIME@@@std@@@std@@QAE@XZ 00415850 f i InvasionManager.obj
 0001:00014850       ??1?$vector@UTVT_EVENT_START_TIME@@V?$allocator@UTVT_EVENT_START_TIME@@@std@@@std@@QAE@XZ 00415850 f i TvTEvent.obj
 0001:00014850       ??1?$vector@UCUSTOM_ARENA_START_TIME@@V?$allocator@UCUSTOM_ARENA_START_TIME@@@std@@@std@@QAE@XZ 00415850 f i CustomArena.obj
 0001:00014850       ??1?$vector@UCALL_INFO@@V?$allocator@UCALL_INFO@@@std@@@std@@QAE@XZ 00415850 f i MonsterCall.obj
 0001:00014850       ??1?$vector@UBLOOD_CASTLE_START_TIME@@V?$allocator@UBLOOD_CASTLE_START_TIME@@@std@@@std@@QAE@XZ 00415850 f i BloodCastle.obj
 0001:00014850       ??1?$vector@UCASTLE_DEEP_START_TIME@@V?$allocator@UCASTLE_DEEP_START_TIME@@@std@@@std@@QAE@XZ 00415850 f i CastleDeep.obj
 0001:00014850       ??1?$vector@UMOSS_MERCHANT_START_TIME@@V?$allocator@UMOSS_MERCHANT_START_TIME@@@std@@@std@@QAE@XZ 00415850 f i MossMerchant.obj
 0001:00014850       ??1?$vector@UCUSTOM_EVENT_DROP_START_TIME@@V?$allocator@UCUSTOM_EVENT_DROP_START_TIME@@@std@@@std@@QAE@XZ 00415850 f i CustomEventDrop.obj
 0001:00014850       ??1?$vector@UDEVIL_SQUARE_START_TIME@@V?$allocator@UDEVIL_SQUARE_START_TIME@@@std@@@std@@QAE@XZ 00415850 f i DevilSquare.obj
 0001:00014850       ??1?$vector@UCHAOS_CASTLE_START_TIME@@V?$allocator@UCHAOS_CASTLE_START_TIME@@@std@@@std@@QAE@XZ 00415850 f i ChaosCastle.obj
 0001:00014850       ?_Tidy@?$vector@URAND_MONSTERCALL_INFO@@V?$allocator@URAND_MONSTERCALL_INFO@@@std@@@std@@AAEXXZ 00415850 f i RandomMonsterCall.obj
 0001:00014850       ??1?$vector@UBONUS_START_TIME@@V?$allocator@UBONUS_START_TIME@@@std@@@std@@QAE@XZ 00415850 f i BonusManager.obj
 0001:00014850       ??1?$vector@UStartBuffData@@V?$allocator@UStartBuffData@@@std@@@std@@QAE@XZ 00415850 f i CustomStartItem.obj
 0001:000148c0       ??1?$vector@UMOSS_MERCHANT_ITEM_INFO@@V?$allocator@UMOSS_MERCHANT_ITEM_INFO@@@std@@@std@@QAE@XZ 004158c0 f i MossMerchant.obj
 0001:000148c0       ??1?$vector@UCHAOS_CASTLE_DELAY_SCORE@@V?$allocator@UCHAOS_CASTLE_DELAY_SCORE@@@std@@@std@@QAE@XZ 004158c0 f i ChaosCastle.obj
 0001:000148c0       ??1?$vector@UBLOOD_CASTLE_DELAY_SCORE@@V?$allocator@UBLOOD_CASTLE_DELAY_SCORE@@@std@@@std@@QAE@XZ 004158c0 f i BloodCastle.obj
 0001:000148c0       ??1?$vector@UJEWEL_MIX_DATA@@V?$allocator@UJEWEL_MIX_DATA@@@std@@@std@@QAE@XZ 004158c0 f i CustomJewelMix.obj
 0001:00014930       ??$vsprintf_s@$0BAA@@@YAHAAY0BAA@DPBDPAD@Z 00415930 f i BloodCastle.obj
 0001:00014950       ??$_Emplace_reallocate@ABUINVASION_START_TIME@@@?$vector@UINVASION_START_TIME@@V?$allocator@UINVASION_START_TIME@@@std@@@std@@QAEPAUINVASION_START_TIME@@QAU2@ABU2@@Z 00415950 f i InvasionManager.obj
 0001:00014950       ??$_Emplace_reallocate@ABUBLOOD_CASTLE_START_TIME@@@?$vector@UBLOOD_CASTLE_START_TIME@@V?$allocator@UBLOOD_CASTLE_START_TIME@@@std@@@std@@QAEPAUBLOOD_CASTLE_START_TIME@@QAU2@ABU2@@Z 00415950 f i BloodCastle.obj
 0001:00014950       ??$_Emplace_reallocate@ABUCASTLE_DEEP_START_TIME@@@?$vector@UCASTLE_DEEP_START_TIME@@V?$allocator@UCASTLE_DEEP_START_TIME@@@std@@@std@@QAEPAUCASTLE_DEEP_START_TIME@@QAU2@ABU2@@Z 00415950 f i CastleDeep.obj
 0001:00014950       ??$_Emplace_reallocate@ABUCUSTOM_EVENT_DROP_START_TIME@@@?$vector@UCUSTOM_EVENT_DROP_START_TIME@@V?$allocator@UCUSTOM_EVENT_DROP_START_TIME@@@std@@@std@@QAEPAUCUSTOM_EVENT_DROP_START_TIME@@QAU2@ABU2@@Z 00415950 f i CustomEventDrop.obj
 0001:00014950       ??$_Emplace_reallocate@ABUCHAOS_CASTLE_START_TIME@@@?$vector@UCHAOS_CASTLE_START_TIME@@V?$allocator@UCHAOS_CASTLE_START_TIME@@@std@@@std@@QAEPAUCHAOS_CASTLE_START_TIME@@QAU2@ABU2@@Z 00415950 f i ChaosCastle.obj
 0001:00014950       ??$_Emplace_reallocate@ABUTVT_EVENT_START_TIME@@@?$vector@UTVT_EVENT_START_TIME@@V?$allocator@UTVT_EVENT_START_TIME@@@std@@@std@@QAEPAUTVT_EVENT_START_TIME@@QAU2@ABU2@@Z 00415950 f i TvTEvent.obj
 0001:00014950       ??$_Emplace_reallocate@ABUILLUSION_TEMPLE_START_TIME@@@?$vector@UILLUSION_TEMPLE_START_TIME@@V?$allocator@UILLUSION_TEMPLE_START_TIME@@@std@@@std@@QAEPAUILLUSION_TEMPLE_START_TIME@@QAU2@ABU2@@Z 00415950 f i IllusionTemple.obj
 0001:00014950       ??$_Emplace_reallocate@ABUBONUS_START_TIME@@@?$vector@UBONUS_START_TIME@@V?$allocator@UBONUS_START_TIME@@@std@@@std@@QAEPAUBONUS_START_TIME@@QAU2@ABU2@@Z 00415950 f i BonusManager.obj
 0001:00014950       ??$_Emplace_reallocate@ABUMOSS_MERCHANT_START_TIME@@@?$vector@UMOSS_MERCHANT_START_TIME@@V?$allocator@UMOSS_MERCHANT_START_TIME@@@std@@@std@@QAEPAUMOSS_MERCHANT_START_TIME@@QAU2@ABU2@@Z 00415950 f i MossMerchant.obj
 0001:00014950       ??$_Emplace_reallocate@ABUDEVIL_SQUARE_START_TIME@@@?$vector@UDEVIL_SQUARE_START_TIME@@V?$allocator@UDEVIL_SQUARE_START_TIME@@@std@@@std@@QAEPAUDEVIL_SQUARE_START_TIME@@QAU2@ABU2@@Z 00415950 f i DevilSquare.obj
 0001:00014950       ??$_Emplace_reallocate@AAUStartBuffData@@@?$vector@UStartBuffData@@V?$allocator@UStartBuffData@@@std@@@std@@QAEPAUStartBuffData@@QAU2@AAU2@@Z 00415950 f i CustomStartItem.obj
 0001:00014950       ??$_Emplace_reallocate@ABUCUSTOM_ARENA_START_TIME@@@?$vector@UCUSTOM_ARENA_START_TIME@@V?$allocator@UCUSTOM_ARENA_START_TIME@@@std@@@std@@QAEPAUCUSTOM_ARENA_START_TIME@@QAU2@ABU2@@Z 00415950 f i CustomArena.obj
 0001:00014b30       ??$_Emplace_reallocate@ABUMOSS_MERCHANT_ITEM_INFO@@@?$vector@UMOSS_MERCHANT_ITEM_INFO@@V?$allocator@UMOSS_MERCHANT_ITEM_INFO@@@std@@@std@@QAEPAUMOSS_MERCHANT_ITEM_INFO@@QAU2@ABU2@@Z 00415b30 f i MossMerchant.obj
 0001:00014b30       ??$_Emplace_reallocate@ABUCHAOS_CASTLE_DELAY_SCORE@@@?$vector@UCHAOS_CASTLE_DELAY_SCORE@@V?$allocator@UCHAOS_CASTLE_DELAY_SCORE@@@std@@@std@@QAEPAUCHAOS_CASTLE_DELAY_SCORE@@QAU2@ABU2@@Z 00415b30 f i ChaosCastle.obj
 0001:00014b30       ??$_Emplace_reallocate@ABUBLOOD_CASTLE_DELAY_SCORE@@@?$vector@UBLOOD_CASTLE_DELAY_SCORE@@V?$allocator@UBLOOD_CASTLE_DELAY_SCORE@@@std@@@std@@QAEPAUBLOOD_CASTLE_DELAY_SCORE@@QAU2@ABU2@@Z 00415b30 f i BloodCastle.obj
 0001:00014cf0       __vsprintf_s_l             00415cf0 f i BloodCastle.obj
 0001:00014d30       ??0BONUS_INFO@@QAE@XZ      00415d30 f i BonusManager.obj
 0001:00014d60       ??_ECBonusManager@@UAEPAXI@Z 00415d60 f i * CIL library *:* CIL module *
 0001:00014d60       ??_GCBonusManager@@UAEPAXI@Z 00415d60 f i BonusManager.obj
 0001:00014de0       ??1BONUS_INFO@@QAE@XZ      00415de0 f i BonusManager.obj
 0001:00014e00       ?Load@CBonusManager@@QAEXPAD@Z 00415e00 f   BonusManager.obj
 0001:00015280       ?MainProc@CBonusManager@@QAEXXZ 00416280 f   BonusManager.obj
 0001:00015460       ?SetState@CBonusManager@@QAEXPAUBONUS_INFO@@H@Z 00416460 f   BonusManager.obj
 0001:000154b0       ?SetState_EMPTY@CBonusManager@@QAEXPAUBONUS_INFO@@@Z 004164b0 f   BonusManager.obj
 0001:00015670       ?GetBonusValue@CBonusManager@@QAEHPAUOBJECTSTRUCT@@HHHHHH@Z 00416670 f   BonusManager.obj
 0001:000157d0       ??1?$vector@ULUCKY_ITEM_INFO@@V?$allocator@ULUCKY_ITEM_INFO@@@std@@@std@@QAE@XZ 004167d0 f i LuckyItem.obj
 0001:000157d0       ??1?$vector@UBONUS_VALUE_INFO@@V?$allocator@UBONUS_VALUE_INFO@@@std@@@std@@QAE@XZ 004167d0 f i BonusManager.obj
 0001:000157d0       ??1?$vector@UMOVE_SUMMON_INFO@@V?$allocator@UMOVE_SUMMON_INFO@@@std@@@std@@QAE@XZ 004167d0 f i MoveSummon.obj
 0001:000157d0       ?_Tidy@?$vector@UMONSTER_SET_BASE_INFO@@V?$allocator@UMONSTER_SET_BASE_INFO@@@std@@@std@@AAEXXZ 004167d0 f i MonsterSetBase.obj
 0001:000157d0       ?_Tidy@?$vector@UITEM_BAG_EX_ITEM_INFO@@V?$allocator@UITEM_BAG_EX_ITEM_INFO@@@std@@@std@@AAEXXZ 004167d0 f i ItemBagEx.obj
 0001:000157d0       ??1?$vector@UDAILY_REWARD_DATA@@V?$allocator@UDAILY_REWARD_DATA@@@std@@@std@@QAE@XZ 004167d0 f i DailyReward.obj
 0001:00015840       ??$_Emplace_reallocate@ABUDAILY_REWARD_DATA@@@?$vector@UDAILY_REWARD_DATA@@V?$allocator@UDAILY_REWARD_DATA@@@std@@@std@@QAEPAUDAILY_REWARD_DATA@@QAU2@ABU2@@Z 00416840 f i DailyReward.obj
 0001:00015840       ??$_Emplace_reallocate@ABULUCKY_ITEM_INFO@@@?$vector@ULUCKY_ITEM_INFO@@V?$allocator@ULUCKY_ITEM_INFO@@@std@@@std@@QAEPAULUCKY_ITEM_INFO@@QAU2@ABU2@@Z 00416840 f i LuckyItem.obj
 0001:00015840       ??$_Emplace_reallocate@ABUMOVE_SUMMON_INFO@@@?$vector@UMOVE_SUMMON_INFO@@V?$allocator@UMOVE_SUMMON_INFO@@@std@@@std@@QAEPAUMOVE_SUMMON_INFO@@QAU2@ABU2@@Z 00416840 f i MoveSummon.obj
 0001:00015840       ??$_Emplace_reallocate@ABUITEM_BAG_EX_ITEM_INFO@@@?$vector@UITEM_BAG_EX_ITEM_INFO@@V?$allocator@UITEM_BAG_EX_ITEM_INFO@@@std@@@std@@QAEPAUITEM_BAG_EX_ITEM_INFO@@QAU2@ABU2@@Z 00416840 f i ItemBagEx.obj
 0001:00015840       ??$_Emplace_reallocate@ABUBONUS_VALUE_INFO@@@?$vector@UBONUS_VALUE_INFO@@V?$allocator@UBONUS_VALUE_INFO@@@std@@@std@@QAEPAUBONUS_VALUE_INFO@@QAU2@ABU2@@Z 00416840 f i BonusManager.obj
 0001:000159f0       ?Read@CBotAlchemist@@QAEXPAD@Z 004169f0 f   BotAlchemist.obj
 0001:00016550       ?MakeBot@CBotAlchemist@@QAEXXZ 00417550 f   BotAlchemist.obj
 0001:00016ba0       ?IsInTrade@CBotAlchemist@@QAEHH@Z 00417ba0 f   BotAlchemist.obj
 0001:00016bf0       ?Alchemy@CBotAlchemist@@AAEEHH@Z 00417bf0 f   BotAlchemist.obj
 0001:00017e40       ?TradeOpen@CBotAlchemist@@QAEHHH@Z 00418e40 f   BotAlchemist.obj
 0001:00018170       ??_ECBotBuffer@@UAEPAXI@Z  00419170 f i * CIL library *:* CIL module *
 0001:00018170       ??_GCBotBuffer@@UAEPAXI@Z  00419170 f i BotBuffer.obj
 0001:000181a0       ?Load@CBotBuffer@@QAEXPAD@Z 004191a0 f   BotBuffer.obj
 0001:00018730       ?MakeBot@CBotBuffer@@QAEXXZ 00419730 f   BotBuffer.obj
 0001:00018cb0       ?CheckPriceCallback@CBotBuffer@@SAXPAUOBJECTSTRUCT@@H0KKK@Z 00419cb0 f   BotBuffer.obj
 0001:000194d0       ??_EcBuyAccountLevel@@UAEPAXI@Z 0041a4d0 f i * CIL library *:* CIL module *
 0001:000194d0       ??_GcBuyAccountLevel@@UAEPAXI@Z 0041a4d0 f i BuyAccountLevel.obj
 0001:00019500       ?RecvBuyVip@cBuyAccountLevel@@QAEXPAUCG_BUYVIP_RECV@@H@Z 0041a500 f   BuyAccountLevel.obj
 0001:00019810       ??_GCCannonTower@@UAEPAXI@Z 0041a810 f i CannonTower.obj
 0001:00019810       ??_ECCannonTower@@UAEPAXI@Z 0041a810 f i * CIL library *:* CIL module *
 0001:00019840       ?CannonTowerAct@CCannonTower@@QAEXH@Z 0041a840 f   CannonTower.obj
 0001:00019a70       ??_ECCashShop@@UAEPAXI@Z   0041aa70 f i * CIL library *:* CIL module *
 0001:00019a70       ??_GCCashShop@@UAEPAXI@Z   0041aa70 f i CashShop.obj
 0001:00019aa0       ?LoadPackage@CCashShop@@QAEXPAD@Z 0041aaa0 f   CashShop.obj
 0001:00019cd0       ?LoadProduct@CCashShop@@QAEXPAD@Z 0041acd0 f   CashShop.obj
 0001:00019fa0       ?GetPackageProductBaseIndexCount@CCashShop@@QAEHPAUCASH_SHOP_PACKAGE_INFO@@@Z 0041afa0 f   CashShop.obj
 0001:0001a010       ?CGCashShopPointRecv@CCashShop@@QAEXH@Z 0041b010 f   CashShop.obj
 0001:0001a0c0       ?CGCashShopOpenRecv@CCashShop@@QAEXPAUPMSG_CASH_SHOP_OPEN_RECV@@H@Z 0041b0c0 f   CashShop.obj
 0001:0001a2a0       ?DGCashShopItemBuyRecv@CCashShop@@QAEXPAUSDHP_CASH_SHOP_ITEM_BUY_RECV@@@Z 0041b2a0 f   CashShop.obj
 0001:0001a770       ?DGCashShopItemGifRecv@CCashShop@@QAEXPAUSDHP_CASH_SHOP_ITEM_GIF_RECV@@@Z 0041b770 f   CashShop.obj
 0001:0001ad70       ?DGCashShopItemNumRecv@CCashShop@@QAEXPAUSDHP_CASH_SHOP_ITEM_NUM_RECV@@@Z 0041bd70 f   CashShop.obj
 0001:0001b020       ?DGCashShopItemUseRecv@CCashShop@@QAEXPAUSDHP_CASH_SHOP_ITEM_USE_RECV@@@Z 0041c020 f   CashShop.obj
 0001:0001b6b0       ?GDCashShopRecievePointSend@CCashShop@@QAEXHKKK@Z 0041c6b0 f   CashShop.obj
 0001:0001b750       ?GDCashShopAddPointSaveSend@CCashShop@@QAEXHPADKKK@Z 0041c750 f   CashShop.obj
 0001:0001b7f0       ?GDCashShopSubPointSaveSend@CCashShop@@QAEXHPADKKK@Z 0041c7f0 f   CashShop.obj
 0001:0001b890       ?GDCashShopInsertItemSaveSend@CCashShop@@QAEXHPADEKKKNE00@Z 0041c890 f   CashShop.obj
 0001:0001ba00       ??_GCCastleDeep@@UAEPAXI@Z 0041ca00 f i CastleDeep.obj
 0001:0001ba00       ??_ECCastleDeep@@UAEPAXI@Z 0041ca00 f i * CIL library *:* CIL module *
 0001:0001ba50       ?Load@CCastleDeep@@QAEXPAD@Z 0041ca50 f   CastleDeep.obj
 0001:0001bf00       ?MainProc@CCastleDeep@@QAEXXZ 0041cf00 f   CastleDeep.obj
 0001:0001c190       ?ProcState_START@CCastleDeep@@QAEXXZ 0041d190 f   CastleDeep.obj
 0001:0001c4a0       ?SetState@CCastleDeep@@QAEXH@Z 0041d4a0 f   CastleDeep.obj
 0001:0001c5c0       ?CheckSync@CCastleDeep@@QAEXXZ 0041d5c0 f   CastleDeep.obj
 0001:0001c770       ?MonsterDieProc@CCastleDeep@@QAEXPAUOBJECTSTRUCT@@0@Z 0041d770 f   CastleDeep.obj
 0001:0001c8f0       ??1?$vector@UINVASION_RESPWAN_INFO@@V?$allocator@UINVASION_RESPWAN_INFO@@@std@@@std@@QAE@XZ 0041d8f0 f i InvasionManager.obj
 0001:0001c8f0       ??1?$vector@UCASTLE_DEEP_SPAWN@@V?$allocator@UCASTLE_DEEP_SPAWN@@@std@@@std@@QAE@XZ 0041d8f0 f i CastleDeep.obj
 0001:0001c8f0       ??1?$vector@URANDOM_MANAGER_INFO@@V?$allocator@URANDOM_MANAGER_INFO@@@std@@@std@@QAE@XZ 0041d8f0 f i RandomManager.obj
 0001:0001c8f0       ??1?$vector@USKILLS_INFO@@V?$allocator@USKILLS_INFO@@@std@@@std@@QAE@XZ 0041d8f0 f i OfflineMode.obj
 0001:0001c8f0       ??1?$vector@USUPERPOINTS_INFO@@V?$allocator@USUPERPOINTS_INFO@@@std@@@std@@QAE@XZ 0041d8f0 f i SuperPoints.obj
 0001:0001c8f0       ??1?$vector@UMARRY_ITEM@@V?$allocator@UMARRY_ITEM@@@std@@@std@@QAE@XZ 0041d8f0 f i Marry.obj
 0001:0001c8f0       ??1?$vector@UCUSTOM_VIP_LOTTERY_ITEM_INFO@@V?$allocator@UCUSTOM_VIP_LOTTERY_ITEM_INFO@@@std@@@std@@QAE@XZ 0041d8f0 f i VipLotteryEvent.obj
 0001:0001c960       ??1?$vector@USUMMON_SCROLL_INFO@@V?$allocator@USUMMON_SCROLL_INFO@@@std@@@std@@QAE@XZ 0041d960 f i SummonScroll.obj
 0001:0001c960       ??1?$vector@USmithyDATA@@V?$allocator@USmithyDATA@@@std@@@std@@QAE@XZ 0041d960 f i Smithy.obj
 0001:0001c960       ??1?$vector@UCASTLE_DEEP_GROUP@@V?$allocator@UCASTLE_DEEP_GROUP@@@std@@@std@@QAE@XZ 0041d960 f i CastleDeep.obj
 0001:0001c960       ??1?$vector@UOFFEXP_ITEMS@@V?$allocator@UOFFEXP_ITEMS@@@std@@@std@@QAE@XZ 0041d960 f i CustomAttack.obj
 0001:0001c960       ??1?$vector@URESPLOC_DATA@@V?$allocator@URESPLOC_DATA@@@std@@@std@@QAE@XZ 0041d960 f i RespawnLocation.obj
 0001:0001c960       ?_Tidy@?$vector@UMONSTER_REQUIREMENTS@@V?$allocator@UMONSTER_REQUIREMENTS@@@std@@@std@@AAEXXZ 0041d960 f i MapQuestSystem.obj
 0001:0001c960       ??1?$vector@UPICKUP@@V?$allocator@UPICKUP@@@std@@@std@@QAE@XZ 0041d960 f i Pickup.obj
 0001:0001c9c0       ??$_Emplace_reallocate@ABUPREMIUM_DROP_INFO@@@?$vector@UPREMIUM_DROP_INFO@@V?$allocator@UPREMIUM_DROP_INFO@@@std@@@std@@QAEPAUPREMIUM_DROP_INFO@@QAU2@ABU2@@Z 0041d9c0 f i PremiumDrop.obj
 0001:0001c9c0       ??$_Emplace_reallocate@ABUCASTLE_DEEP_MONSTER@@@?$vector@UCASTLE_DEEP_MONSTER@@V?$allocator@UCASTLE_DEEP_MONSTER@@@std@@@std@@QAEPAUCASTLE_DEEP_MONSTER@@QAU2@ABU2@@Z 0041d9c0 f i CastleDeep.obj
 0001:0001c9c0       ??$_Emplace_reallocate@ABUITEM_VALUE_INFO@@@?$vector@UITEM_VALUE_INFO@@V?$allocator@UITEM_VALUE_INFO@@@std@@@std@@QAEPAUITEM_VALUE_INFO@@QAU2@ABU2@@Z 0041d9c0 f i ItemValue.obj
 0001:0001cb30       ??$_Emplace_reallocate@ABUINVASION_RESPWAN_INFO@@@?$vector@UINVASION_RESPWAN_INFO@@V?$allocator@UINVASION_RESPWAN_INFO@@@std@@@std@@QAEPAUINVASION_RESPWAN_INFO@@QAU2@ABU2@@Z 0041db30 f i InvasionManager.obj
 0001:0001cb30       ??$_Emplace_reallocate@ABURANDOM_MANAGER_INFO@@@?$vector@URANDOM_MANAGER_INFO@@V?$allocator@URANDOM_MANAGER_INFO@@@std@@@std@@QAEPAURANDOM_MANAGER_INFO@@QAU2@ABU2@@Z 0041db30 f i RandomManager.obj
 0001:0001cb30       ??$_Emplace_reallocate@ABUSUPERPOINTS_INFO@@@?$vector@USUPERPOINTS_INFO@@V?$allocator@USUPERPOINTS_INFO@@@std@@@std@@QAEPAUSUPERPOINTS_INFO@@QAU2@ABU2@@Z 0041db30 f i SuperPoints.obj
 0001:0001cb30       ??$_Emplace_reallocate@ABUMARRY_ITEM@@@?$vector@UMARRY_ITEM@@V?$allocator@UMARRY_ITEM@@@std@@@std@@QAEPAUMARRY_ITEM@@QAU2@ABU2@@Z 0041db30 f i Marry.obj
 0001:0001cb30       ??$_Emplace_reallocate@ABUCASTLE_DEEP_SPAWN@@@?$vector@UCASTLE_DEEP_SPAWN@@V?$allocator@UCASTLE_DEEP_SPAWN@@@std@@@std@@QAEPAUCASTLE_DEEP_SPAWN@@QAU2@ABU2@@Z 0041db30 f i CastleDeep.obj
 0001:0001cce0       ??$_Emplace_reallocate@ABUCASTLE_DEEP_GROUP@@@?$vector@UCASTLE_DEEP_GROUP@@V?$allocator@UCASTLE_DEEP_GROUP@@@std@@@std@@QAEPAUCASTLE_DEEP_GROUP@@QAU2@ABU2@@Z 0041dce0 f i CastleDeep.obj
 0001:0001cce0       ??$_Emplace_reallocate@ABURESPLOC_DATA@@@?$vector@URESPLOC_DATA@@V?$allocator@URESPLOC_DATA@@@std@@@std@@QAEPAURESPLOC_DATA@@QAU2@ABU2@@Z 0041dce0 f i RespawnLocation.obj
 0001:0001cce0       ??$_Emplace_reallocate@ABUSmithyDATA@@@?$vector@USmithyDATA@@V?$allocator@USmithyDATA@@@std@@@std@@QAEPAUSmithyDATA@@QAU2@ABU2@@Z 0041dce0 f i Smithy.obj
 0001:0001cce0       ??$_Emplace_reallocate@ABUOFFEXP_ITEMS@@@?$vector@UOFFEXP_ITEMS@@V?$allocator@UOFFEXP_ITEMS@@@std@@@std@@QAEPAUOFFEXP_ITEMS@@QAU2@ABU2@@Z 0041dce0 f i CustomAttack.obj
 0001:0001ce40       ??1_CS_SCHEDULE_DATA@@UAE@XZ 0041de40 f i CastleSiege.obj
 0001:0001ce50       ??_G_CS_SCHEDULE_DATA@@UAEPAXI@Z 0041de50 f i CastleSiege.obj
 0001:0001ce50       ??_E_CS_SCHEDULE_DATA@@UAEPAXI@Z 0041de50 f i * CIL library *:* CIL module *
 0001:0001ce80       ??1_CS_NPC_DATA@@UAE@XZ    0041de80 f i CastleSiege.obj
 0001:0001ce90       ?Clear@_CS_NPC_DATA@@QAEXXZ 0041de90 f i CastleSiege.obj
 0001:0001cf50       ??_E_CS_NPC_DATA@@UAEPAXI@Z 0041df50 f i * CIL library *:* CIL module *
 0001:0001cf50       ??_G_CS_NPC_DATA@@UAEPAXI@Z 0041df50 f i CastleSiege.obj
 0001:0001cf80       ??1_CS_REG_GUILD_DATA@@UAE@XZ 0041df80 f i CastleSiege.obj
 0001:0001cfe0       ??_E_CS_REG_GUILD_DATA@@UAEPAXI@Z 0041dfe0 f i * CIL library *:* CIL module *
 0001:0001cfe0       ??_G_CS_REG_GUILD_DATA@@UAEPAXI@Z 0041dfe0 f i CastleSiege.obj
 0001:0001d010       ??1_CS_TOTAL_GUILD_DATA@@UAE@XZ 0041e010 f i CastleSiege.obj
 0001:0001d020       ??_E_CS_TOTAL_GUILD_DATA@@UAEPAXI@Z 0041e020 f i * CIL library *:* CIL module *
 0001:0001d020       ??_G_CS_TOTAL_GUILD_DATA@@UAEPAXI@Z 0041e020 f i CastleSiege.obj
 0001:0001d050       ??1_CS_MINIMAP_DATA@@UAE@XZ 0041e050 f i CastleSiege.obj
 0001:0001d060       ??_E_CS_MINIMAP_DATA@@UAEPAXI@Z 0041e060 f i * CIL library *:* CIL module *
 0001:0001d060       ??_G_CS_MINIMAP_DATA@@UAEPAXI@Z 0041e060 f i CastleSiege.obj
 0001:0001d090       ??_GCCastleSiege@@UAEPAXI@Z 0041e090 f i CastleSiege.obj
 0001:0001d090       ??_ECCastleSiege@@UAEPAXI@Z 0041e090 f i * CIL library *:* CIL module *
 0001:0001d0c0       ??1?$map@V?$basic_string@DU?$char_traits@D@std@@V?$allocator@D@2@@std@@U_CS_TOTAL_GUILD_DATA@@U?$less@V?$basic_string@DU?$char_traits@D@std@@V?$allocator@D@2@@std@@@2@V?$allocator@U?$pair@$$CBV?$basic_string@DU?$char_traits@D@std@@V?$allocator@D@2@@std@@U_CS_TOTAL_GUILD_DATA@@@std@@@2@@std@@QAE@XZ 0041e0c0 f i CastleSiege.obj
 0001:0001d0e0       ??1?$map@HU_CS_MINIMAP_DATA@@U?$less@H@std@@V?$allocator@U?$pair@$$CBHU_CS_MINIMAP_DATA@@@std@@@3@@std@@QAE@XZ 0041e0e0 f i CastleSiege.obj
 0001:0001d0f0       ??1CCastleSiege@@UAE@XZ    0041e0f0 f   CastleSiege.obj
 0001:0001d1b0       ?ScheduleStateCompFunc@CCastleSiege@@SAEAAU_CS_SCHEDULE_DATA@@0@Z 0041e1b0 f   CastleSiege.obj
 0001:0001d1d0       ?Clear@CCastleSiege@@QAEXXZ 0041e1d0 f   CastleSiege.obj
 0001:0001d3e0       ?LoadPreFixData@CCastleSiege@@QAEHPAD@Z 0041e3e0 f   CastleSiege.obj
 0001:0001d8a0       ?LoadData@CCastleSiege@@QAEHPAD@Z 0041e8a0 f   CastleSiege.obj
 0001:0001e9e0       ??1?$map@HHU?$less@H@std@@V?$allocator@U?$pair@$$CBHH@std@@@2@@std@@QAE@XZ 0041f9e0 f i ItemBagManager.obj
 0001:0001e9e0       ??1?$map@IHU?$less@I@std@@V?$allocator@U?$pair@$$CBIH@std@@@2@@std@@QAE@XZ 0041f9e0 f i CastleSiege.obj
 0001:0001e9f0       ??0_CS_NPC_DATA@@QAE@ABU0@@Z 0041f9f0 f i CastleSiege.obj
 0001:0001ead0       ?Init@CCastleSiege@@QAEHXZ 0041fad0 f   CastleSiege.obj
 0001:0001ecf0       ?SetState@CCastleSiege@@QAEXHH@Z 0041fcf0 f   CastleSiege.obj
 0001:0001f240       ?MainProc@CCastleSiege@@QAEXXZ 00420240 f   CastleSiege.obj
 0001:0001fc80       ?SetState_STARTSIEGE@CCastleSiege@@QAEXH@Z 00420c80 f   CastleSiege.obj
 0001:00020070       ?SetState_ENDCYCLE@CCastleSiege@@QAEXH@Z 00421070 f   CastleSiege.obj
 0001:000202f0       ?ProcState_READYSIEGE@CCastleSiege@@QAEXXZ 004212f0 f   CastleSiege.obj
 0001:00020510       ?ProcState_STARTSIEGE@CCastleSiege@@QAEXXZ 00421510 f   CastleSiege.obj
 0001:00020860       ?SetCastleInitData@CCastleSiege@@QAEHPAUCSP_ANS_CSINITDATA@@@Z 00421860 f   CastleSiege.obj
 0001:00020ac0       ?SetCastleNpcData@CCastleSiege@@QAEHPAUCSP_CSINITDATA@@H@Z 00421ac0 f   CastleSiege.obj
 0001:00020d00       ?CheckSync@CCastleSiege@@QAEHXZ 00421d00 f   CastleSiege.obj
 0001:00021390       ?GetNextDay@CCastleSiege@@QAEXPAU_SYSTEMTIME@@HHHH@Z 00422390 f   CastleSiege.obj
 0001:00021420       ?GetStateDate@CCastleSiege@@QAEXHPAU_SYSTEMTIME@@@Z 00422420 f   CastleSiege.obj
 0001:00021490       ?GetStateGapSec@CCastleSiege@@QAEHH@Z 00422490 f   CastleSiege.obj
 0001:000214f0       ?CalcCastleLeftSiegeDate@CCastleSiege@@QAEHXZ 004224f0 f   CastleSiege.obj
 0001:00021680       ?ClearNonDbNPC@CCastleSiege@@QAEXXZ 00422680 f   CastleSiege.obj
 0001:00021790       ?CreateDbNPC@CCastleSiege@@QAEXXZ 00422790 f   CastleSiege.obj
 0001:00021bf0       ?AddDbNPC@CCastleSiege@@QAEHHH@Z 00422bf0 f   CastleSiege.obj
 0001:00022120       ?DelNPC@CCastleSiege@@QAEHHHHH@Z 00423120 f   CastleSiege.obj
 0001:00022440       ??4_CS_NPC_DATA@@QAEAAU0@ABU0@@Z 00423440 f i CastleSiege.obj
 0001:00022510       ?PayForUpgradeDbNpc@CCastleSiege@@QAEHHHHHHH@Z 00423510 f   CastleSiege.obj
 0001:00022870       ?UpgradeDbNPC@CCastleSiege@@QAEHHHHHHH@Z 00423870 f   CastleSiege.obj
 0001:00022af0       ?UpgradeDbNPC_DFLEVEL@CCastleSiege@@QAEHHHH@Z 00423af0 f   CastleSiege.obj
 0001:00022be0       ?UpgradeDbNPC_MAXHP@CCastleSiege@@QAEHHHH@Z 00423be0 f   CastleSiege.obj
 0001:00022cd0       ?StoreDbNpc@CCastleSiege@@QAEXXZ 00423cd0 f   CastleSiege.obj
 0001:00022f60       ?SendNpcStateList@CCastleSiege@@QAEXHH@Z 00423f60 f   CastleSiege.obj
 0001:00023160       ?GetNpcData@CCastleSiege@@QAEHHHAAU_CS_NPC_DATA@@@Z 00424160 f   CastleSiege.obj
 0001:00023220       ?CreateCsGateLever@CCastleSiege@@QAEHHH@Z 00424220 f   CastleSiege.obj
 0001:000233b0       ?LinkCsGateLever@CCastleSiege@@QAEHHH@Z 004243b0 f   CastleSiege.obj
 0001:00023430       ?CheckCsDbNpcAlive@CCastleSiege@@QAEXXZ 00424430 f   CastleSiege.obj
 0001:00023690       ?DelGemOfDefend@CCastleSiege@@QAEHHH@Z 00424690 f   CastleSiege.obj
 0001:000237f0       ?CheckGuildOwnCastle@CCastleSiege@@QAEHPAD@Z 004247f0 f   CastleSiege.obj
 0001:00023870       ?SetGateBlockState@CCastleSiege@@QAEXHHH@Z 00424870 f   CastleSiege.obj
 0001:00023940       ?CheckBuildCsGuildInfo@CCastleSiege@@QAEXXZ 00424940 f   CastleSiege.obj
 0001:00023a20       ?SetCalcRegGuildList@CCastleSiege@@QAEXPAUCSP_CALCREGGUILDLIST@@H@Z 00424a20 f   CastleSiege.obj
 0001:00024260       ??1?$pair@V?$basic_string@DU?$char_traits@D@std@@V?$allocator@D@2@@std@@U_CS_TOTAL_GUILD_DATA@@@std@@QAE@XZ 00425260 f i CastleSiege.obj
 0001:000242c0       ?RegGuildScoreCompFunc@CCastleSiege@@SAEAAU_CS_REG_GUILD_DATA@@0@Z 004252c0 f   CastleSiege.obj
 0001:000242f0       ?MakeCsTotalGuildInfo@CCastleSiege@@QAEXPAUCSP_CSGUILDUNIONINFO@@H@Z 004252f0 f   CastleSiege.obj
 0001:00024560       ?SaveCsTotalGuildInfo@CCastleSiege@@QAEXXZ 00425560 f   CastleSiege.obj
 0001:00024890       ?SetCsTotalGuildInfo@CCastleSiege@@QAEXPAUCSP_CSLOADTOTALGUILDINFO@@H@Z 00425890 f   CastleSiege.obj
 0001:00024c00       ?SetAllUserCsJoinSide@CCastleSiege@@QAEXXZ 00425c00 f   CastleSiege.obj
 0001:00024d90       ?NotifySelfCsJoinSide@CCastleSiege@@QAEXH@Z 00425d90 f   CastleSiege.obj
 0001:00024f20       ?CheckCastleOwnerMember@CCastleSiege@@QAEHH@Z 00425f20 f   CastleSiege.obj
 0001:00025000       ?CheckCastleOwnerUnionMember@CCastleSiege@@QAEHH@Z 00426000 f   CastleSiege.obj
 0001:00025100       ?CheckGuardianStatueExist@CCastleSiege@@QAEHXZ 00426100 f   CastleSiege.obj
 0001:00025150       ?ChangeWinnerGuild@CCastleSiege@@QAEXH@Z 00426150 f   CastleSiege.obj
 0001:00025390       ?CheckMiddleWinnerGuild@CCastleSiege@@QAEHXZ 00426390 f   CastleSiege.obj
 0001:000257d0       ?CheckCastleSiegeResult@CCastleSiege@@QAEHXZ 004267d0 f   CastleSiege.obj
 0001:00025b60       ?CheckReviveNonDbNPC@CCastleSiege@@QAEXXZ 00426b60 f   CastleSiege.obj
 0001:00025de0       ?ReSpawnEnemyUser@CCastleSiege@@QAEXH@Z 00426de0 f   CastleSiege.obj
 0001:00026150       ?NotifyAllUserCsStartState@CCastleSiege@@QAEXE@Z 00427150 f   CastleSiege.obj
 0001:000261b0       ?NotifyAllUserCsProgState@CCastleSiege@@QAEXEPAD@Z 004271b0 f   CastleSiege.obj
 0001:00026250       ?OperateMiniMapWork@CCastleSiege@@QAEXXZ 00427250 f   CastleSiege.obj
 0001:00026a10       ??1?$pair@HU_CS_MINIMAP_DATA@@@std@@QAE@XZ 00427a10 f i CastleSiege.obj
 0001:00026a20       ?NotifyCrownState@CCastleSiege@@QAEXE@Z 00427a20 f   CastleSiege.obj
 0001:00026b30       ?NotifyCrownSwitchInfo@CCastleSiege@@QAEXH@Z 00427b30 f   CastleSiege.obj
 0001:00026d50       ?SendAllUserAnyMsg@CCastleSiege@@QAEXPADH@Z 00427d50 f   CastleSiege.obj
 0001:00026e00       ?start@CCastleSiege@@QAEXXZ 00427e00 f   CastleSiege.obj
 0001:00027460       ??1?$vector@U_CS_REG_GUILD_DATA@@V?$allocator@U_CS_REG_GUILD_DATA@@@std@@@std@@QAE@XZ 00428460 f i CastleSiege.obj
 0001:000274d0       ??1?$_Tree@V?$_Tmap_traits@H_NU?$less@H@std@@V?$allocator@U?$pair@$$CBH_N@std@@@2@$0A@@std@@@std@@QAE@XZ 004284d0 f i Protection.obj
 0001:000274d0       ??1?$_Tree@V?$_Tmap_traits@HHU?$less@H@std@@V?$allocator@U?$pair@$$CBHH@std@@@2@$0A@@std@@@std@@QAE@XZ 004284d0 f i ItemBagManager.obj
 0001:000274d0       ??1?$_Tree@V?$_Tmap_traits@IHU?$less@I@std@@V?$allocator@U?$pair@$$CBIH@std@@@2@$0A@@std@@@std@@QAE@XZ 004284d0 f i CastleSiege.obj
 0001:000274d0       ??1?$_Tree@V?$_Tmap_traits@HPAUGUILD_INFO_STRUCT@@U?$less@H@std@@V?$allocator@U?$pair@$$CBHPAUGUILD_INFO_STRUCT@@@std@@@3@$0A@@std@@@std@@QAE@XZ 004284d0 f i GuildClass.obj
 0001:000274d0       ??1?$_Tree@V?$_Tmap_traits@HPAVCMapServerData@@U?$less@H@std@@V?$allocator@U?$pair@$$CBHPAVCMapServerData@@@std@@@3@$0A@@std@@@std@@QAE@XZ 004284d0 f i MapServerManager.obj
 0001:000274d0       ??1?$_Tree@V?$_Tmap_traits@HPAVCUnionInfo@@U?$less@H@std@@V?$allocator@U?$pair@$$CBHPAVCUnionInfo@@@std@@@3@$0A@@std@@@std@@QAE@XZ 004284d0 f i Union.obj
 0001:00027510       ??1?$vector@HV?$allocator@H@std@@@std@@QAE@XZ 00428510 f i CastleSiege.obj
 0001:00027520       ??1?$_Tree@V?$_Tmap_traits@HU_CS_MINIMAP_DATA@@U?$less@H@std@@V?$allocator@U?$pair@$$CBHU_CS_MINIMAP_DATA@@@std@@@3@$0A@@std@@@std@@QAE@XZ 00428520 f i CastleSiege.obj
 0001:00027570       ??1?$vector@U_CS_NPC_DATA@@V?$allocator@U_CS_NPC_DATA@@@std@@@std@@QAE@XZ 00428570 f i CastleSiege.obj
 0001:000275f0       ??1?$vector@U_CS_SCHEDULE_DATA@@V?$allocator@U_CS_SCHEDULE_DATA@@@std@@@std@@QAE@XZ 004285f0 f i CastleSiege.obj
 0001:00027680       ??1?$vector@PAUINVASION_RESPWAN_INFO@@V?$allocator@PAUINVASION_RESPWAN_INFO@@@std@@@std@@QAE@XZ 00428680 f i InvasionManager.obj
 0001:00027680       ??1?$vector@PAVCMapServerData@@V?$allocator@PAVCMapServerData@@@std@@@std@@QAE@XZ 00428680 f i MapServerManager.obj
 0001:00027680       ??1?$vector@PAUINVASION_MONSTER_INFO@@V?$allocator@PAUINVASION_MONSTER_INFO@@@std@@@std@@QAE@XZ 00428680 f i InvasionManager.obj
 0001:00027680       ?_Tidy@?$vector@HV?$allocator@H@std@@@std@@AAEXXZ 00428680 f i CastleSiege.obj
 0001:00027680       ??1?$vector@PAUOBJECTSTRUCT@@V?$allocator@PAUOBJECTSTRUCT@@@std@@@std@@QAE@XZ 00428680 f i Crywolf.obj
 0001:00027680       ??1?$vector@PAVcChaosRecipe@@V?$allocator@PAVcChaosRecipe@@@std@@@std@@QAE@XZ 00428680 f i ChaosBoxManager.obj
 0001:000276e0       ?_Destroy@?$vector@U_CS_REG_GUILD_DATA@@V?$allocator@U_CS_REG_GUILD_DATA@@@std@@@std@@AAEXPAU_CS_REG_GUILD_DATA@@0@Z 004286e0 f i CastleSiege.obj
 0001:00027710       ?deallocate@?$allocator@U_CS_REG_GUILD_DATA@@@std@@QAEXQAU_CS_REG_GUILD_DATA@@I@Z 00428710 f i CastleSiege.obj
 0001:00027750       ??$insert@U?$pair@HU_CS_MINIMAP_DATA@@@std@@$0A@@?$map@HU_CS_MINIMAP_DATA@@U?$less@H@std@@V?$allocator@U?$pair@$$CBHU_CS_MINIMAP_DATA@@@std@@@3@@std@@QAE?AU?$pair@V?$_Tree_iterator@V?$_Tree_val@U?$_Tree_simple_types@U?$pair@$$CBHU_CS_MINIMAP_DATA@@@std@@@std@@@std@@@std@@_N@1@$$QAU?$pair@HU_CS_MINIMAP_DATA@@@1@@Z 00428750 f i CastleSiege.obj
 0001:00027890       ??$_Emplace_reallocate@ABU_CS_REG_GUILD_DATA@@@?$vector@U_CS_REG_GUILD_DATA@@V?$allocator@U_CS_REG_GUILD_DATA@@@std@@@std@@QAEPAU_CS_REG_GUILD_DATA@@QAU2@ABU2@@Z 00428890 f i CastleSiege.obj
 0001:00027b20       ??$_Emplace_reallocate@ABH@?$vector@HV?$allocator@H@std@@@std@@QAEPAHQAHABH@Z 00428b20 f i CastleSiege.obj
 0001:00027b20       ??$_Emplace_reallocate@H@?$vector@HV?$allocator@H@std@@@std@@QAEPAHQAH$$QAH@Z 00428b20 f i ComboSkillData.obj
 0001:00027bf0       ??$_Erase_tree@V?$allocator@U?$_Tree_node@U?$pair@$$CBHU_CS_MINIMAP_DATA@@@std@@PAX@std@@@std@@@?$_Tree_val@U?$_Tree_simple_types@U?$pair@$$CBHU_CS_MINIMAP_DATA@@@std@@@std@@@std@@QAEXAAV?$allocator@U?$_Tree_node@U?$pair@$$CBHU_CS_MINIMAP_DATA@@@std@@PAX@std@@@1@PAU?$_Tree_node@U?$pair@$$CBHU_CS_MINIMAP_DATA@@@std@@PAX@1@@Z 00428bf0 f i CastleSiege.obj
 0001:00027c40       ??$_Erase_tree@V?$allocator@U?$_Tree_node@U?$pair@$$CBV?$basic_string@DU?$char_traits@D@std@@V?$allocator@D@2@@std@@U_CS_TOTAL_GUILD_DATA@@@std@@PAX@std@@@std@@@?$_Tree_val@U?$_Tree_simple_types@U?$pair@$$CBV?$basic_string@DU?$char_traits@D@std@@V?$allocator@D@2@@std@@U_CS_TOTAL_GUILD_DATA@@@std@@@std@@@std@@QAEXAAV?$allocator@U?$_Tree_node@U?$pair@$$CBV?$basic_string@DU?$char_traits@D@std@@V?$allocator@D@2@@std@@U_CS_TOTAL_GUILD_DATA@@@std@@PAX@std@@@1@PAU?$_Tree_node@U?$pair@$$CBV?$basic_string@DU?$char_traits@D@std@@V?$allocator@D@2@@std@@U_CS_TOTAL_GUILD_DATA@@@std@@PAX@1@@Z 00428c40 f i CastleSiege.obj
 0001:00027ce0       ??$_Emplace_reallocate@ABU_CS_NPC_DATA@@@?$vector@U_CS_NPC_DATA@@V?$allocator@U_CS_NPC_DATA@@@std@@@std@@QAEPAU_CS_NPC_DATA@@QAU2@ABU2@@Z 00428ce0 f i CastleSiege.obj
 0001:00027ed0       ??$_Emplace_reallocate@ABU_CS_SCHEDULE_DATA@@@?$vector@U_CS_SCHEDULE_DATA@@V?$allocator@U_CS_SCHEDULE_DATA@@@std@@@std@@QAEPAU_CS_SCHEDULE_DATA@@QAU2@ABU2@@Z 00428ed0 f i CastleSiege.obj
 0001:000280d0       ?_Umove@?$vector@U_CS_REG_GUILD_DATA@@V?$allocator@U_CS_REG_GUILD_DATA@@@std@@@std@@AAEPAU_CS_REG_GUILD_DATA@@PAU3@00@Z 004290d0 f i CastleSiege.obj
 0001:00028180       ?_Change_array@?$vector@HV?$allocator@H@std@@@std@@AAEXQAHII@Z 00429180 f i CastleSiege.obj
 0001:000281e0       ?allocate@?$allocator@H@std@@QAEPAHI@Z 004291e0 f i CastleSiege.obj
 0001:00028240       ??$_Sort_unchecked@PAU_CS_SCHEDULE_DATA@@P6AEAAU1@0@Z@std@@YAXPAU_CS_SCHEDULE_DATA@@0HP6AEAAU1@1@Z@Z 00429240 f i CastleSiege.obj
 0001:00028600       ??$_Sort_unchecked@PAU_CS_REG_GUILD_DATA@@P6AEAAU1@0@Z@std@@YAXPAU_CS_REG_GUILD_DATA@@0HP6AEAAU1@1@Z@Z 00429600 f i CastleSiege.obj
 0001:00028920       ??$emplace@U?$pair@V?$basic_string@DU?$char_traits@D@std@@V?$allocator@D@2@@std@@U_CS_TOTAL_GUILD_DATA@@@std@@@?$_Tree@V?$_Tmap_traits@V?$basic_string@DU?$char_traits@D@std@@V?$allocator@D@2@@std@@U_CS_TOTAL_GUILD_DATA@@U?$less@V?$basic_string@DU?$char_traits@D@std@@V?$allocator@D@2@@std@@@2@V?$allocator@U?$pair@$$CBV?$basic_string@DU?$char_traits@D@std@@V?$allocator@D@2@@std@@U_CS_TOTAL_GUILD_DATA@@@std@@@2@$0A@@std@@@std@@QAE?AU?$pair@V?$_Tree_iterator@V?$_Tree_val@U?$_Tree_simple_types@U?$pair@$$CBV?$basic_string@DU?$char_traits@D@std@@V?$allocator@D@2@@std@@U_CS_TOTAL_GUILD_DATA@@@std@@@std@@@std@@@std@@_N@1@$$QAU?$pair@V?$basic_string@DU?$char_traits@D@std@@V?$allocator@D@2@@std@@U_CS_TOTAL_GUILD_DATA@@@1@@Z 00429920 f i CastleSiege.obj
 0001:00028a60       ??$_Erase_tree@V?$allocator@U?$_Tree_node@U?$pair@$$CBH_N@std@@PAX@std@@@std@@@?$_Tree_val@U?$_Tree_simple_types@U?$pair@$$CBH_N@std@@@std@@@std@@QAEXAAV?$allocator@U?$_Tree_node@U?$pair@$$CBH_N@std@@PAX@std@@@1@PAU?$_Tree_node@U?$pair@$$CBH_N@std@@PAX@1@@Z 00429a60 f i Protection.obj
 0001:00028a60       ??$_Erase_tree@V?$allocator@U?$_Tree_node@U?$pair@$$CBHPAUGUILD_INFO_STRUCT@@@std@@PAX@std@@@std@@@?$_Tree_val@U?$_Tree_simple_types@U?$pair@$$CBHPAUGUILD_INFO_STRUCT@@@std@@@std@@@std@@QAEXAAV?$allocator@U?$_Tree_node@U?$pair@$$CBHPAUGUILD_INFO_STRUCT@@@std@@PAX@std@@@1@PAU?$_Tree_node@U?$pair@$$CBHPAUGUILD_INFO_STRUCT@@@std@@PAX@1@@Z 00429a60 f i GuildClass.obj
 0001:00028a60       ??$_Erase_tree@V?$allocator@U?$_Tree_node@U?$pair@$$CBHH@std@@PAX@std@@@std@@@?$_Tree_val@U?$_Tree_simple_types@U?$pair@$$CBHH@std@@@std@@@std@@QAEXAAV?$allocator@U?$_Tree_node@U?$pair@$$CBHH@std@@PAX@std@@@1@PAU?$_Tree_node@U?$pair@$$CBHH@std@@PAX@1@@Z 00429a60 f i ItemBagManager.obj
 0001:00028a60       ??$_Erase_tree@V?$allocator@U?$_Tree_node@U?$pair@$$CBIH@std@@PAX@std@@@std@@@?$_Tree_val@U?$_Tree_simple_types@U?$pair@$$CBIH@std@@@std@@@std@@QAEXAAV?$allocator@U?$_Tree_node@U?$pair@$$CBIH@std@@PAX@std@@@1@PAU?$_Tree_node@U?$pair@$$CBIH@std@@PAX@1@@Z 00429a60 f i CastleSiege.obj
 0001:00028a60       ??$_Erase_tree@V?$allocator@U?$_Tree_node@U?$pair@$$CBHPAVCMapServerData@@@std@@PAX@std@@@std@@@?$_Tree_val@U?$_Tree_simple_types@U?$pair@$$CBHPAVCMapServerData@@@std@@@std@@@std@@QAEXAAV?$allocator@U?$_Tree_node@U?$pair@$$CBHPAVCMapServerData@@@std@@PAX@std@@@1@PAU?$_Tree_node@U?$pair@$$CBHPAVCMapServerData@@@std@@PAX@1@@Z 00429a60 f i MapServerManager.obj
 0001:00028a60       ??$_Erase_tree@V?$allocator@U?$_Tree_node@U?$pair@$$CBHPAVCUnionInfo@@@std@@PAX@std@@@std@@@?$_Tree_val@U?$_Tree_simple_types@U?$pair@$$CBHPAVCUnionInfo@@@std@@@std@@@std@@QAEXAAV?$allocator@U?$_Tree_node@U?$pair@$$CBHPAVCUnionInfo@@@std@@PAX@std@@@1@PAU?$_Tree_node@U?$pair@$$CBHPAVCUnionInfo@@@std@@PAX@1@@Z 00429a60 f i Union.obj
 0001:00028aa0       ??$_Find_lower_bound@V?$basic_string@DU?$char_traits@D@std@@V?$allocator@D@2@@std@@@?$_Tree@V?$_Tmap_traits@V?$basic_string@DU?$char_traits@D@std@@V?$allocator@D@2@@std@@U_CS_TOTAL_GUILD_DATA@@U?$less@V?$basic_string@DU?$char_traits@D@std@@V?$allocator@D@2@@std@@@2@V?$allocator@U?$pair@$$CBV?$basic_string@DU?$char_traits@D@std@@V?$allocator@D@2@@std@@U_CS_TOTAL_GUILD_DATA@@@std@@@2@$0A@@std@@@std@@IBE?AU?$_Tree_find_result@PAU?$_Tree_node@U?$pair@$$CBV?$basic_string@DU?$char_traits@D@std@@V?$allocator@D@2@@std@@U_CS_TOTAL_GUILD_DATA@@@std@@PAX@std@@@1@ABV?$basic_string@DU?$char_traits@D@std@@V?$allocator@D@2@@1@@Z 00429aa0 f i CastleSiege.obj
 0001:00028aa0       ??$_Find_lower_bound@V?$basic_string@DU?$char_traits@D@std@@V?$allocator@D@2@@std@@@?$_Tree@V?$_Tmap_traits@V?$basic_string@DU?$char_traits@D@std@@V?$allocator@D@2@@std@@UHardwareId_INFO@@U?$less@V?$basic_string@DU?$char_traits@D@std@@V?$allocator@D@2@@std@@@2@V?$allocator@U?$pair@$$CBV?$basic_string@DU?$char_traits@D@std@@V?$allocator@D@2@@std@@UHardwareId_INFO@@@std@@@2@$0A@@std@@@std@@IBE?AU?$_Tree_find_result@PAU?$_Tree_node@U?$pair@$$CBV?$basic_string@DU?$char_traits@D@std@@V?$allocator@D@2@@std@@UHardwareId_INFO@@@std@@PAX@std@@@1@ABV?$basic_string@DU?$char_traits@D@std@@V?$allocator@D@2@@1@@Z 00429aa0 f i HwidManager.obj
 0001:00028aa0       ??$_Find_lower_bound@V?$basic_string@DU?$char_traits@D@std@@V?$allocator@D@2@@std@@@?$_Tree@V?$_Tmap_traits@V?$basic_string@DU?$char_traits@D@std@@V?$allocator@D@2@@std@@UREGISTERED_INFO@@U?$less@V?$basic_string@DU?$char_traits@D@std@@V?$allocator@D@2@@std@@@2@V?$allocator@U?$pair@$$CBV?$basic_string@DU?$char_traits@D@std@@V?$allocator@D@2@@std@@UREGISTERED_INFO@@@std@@@2@$0A@@std@@@std@@IBE?AU?$_Tree_find_result@PAU?$_Tree_node@U?$pair@$$CBV?$basic_string@DU?$char_traits@D@std@@V?$allocator@D@2@@std@@UREGISTERED_INFO@@@std@@PAX@std@@@1@ABV?$basic_string@DU?$char_traits@D@std@@V?$allocator@D@2@@1@@Z 00429aa0 f i PartySearch.obj
 0001:00028aa0       ??$_Find_lower_bound@V?$basic_string@DU?$char_traits@D@std@@V?$allocator@D@2@@std@@@?$_Tree@V?$_Tmap_traits@V?$basic_string@DU?$char_traits@D@std@@V?$allocator@D@2@@std@@UREGION_DATA@@U?$less@V?$basic_string@DU?$char_traits@D@std@@V?$allocator@D@2@@std@@@2@V?$allocator@U?$pair@$$CBV?$basic_string@DU?$char_traits@D@std@@V?$allocator@D@2@@std@@UREGION_DATA@@@std@@@2@$0A@@std@@@std@@IBE?AU?$_Tree_find_result@PAU?$_Tree_node@U?$pair@$$CBV?$basic_string@DU?$char_traits@D@std@@V?$allocator@D@2@@std@@UREGION_DATA@@@std@@PAX@std@@@1@ABV?$basic_string@DU?$char_traits@D@std@@V?$allocator@D@2@@1@@Z 00429aa0 f i RegionSystem.obj
 0001:00028aa0       ??$_Find_lower_bound@V?$basic_string@DU?$char_traits@D@std@@V?$allocator@D@2@@std@@@?$_Tree@V?$_Tmap_traits@V?$basic_string@DU?$char_traits@D@std@@V?$allocator@D@2@@std@@UIP_ADDRESS_INFO@@U?$less@V?$basic_string@DU?$char_traits@D@std@@V?$allocator@D@2@@std@@@2@V?$allocator@U?$pair@$$CBV?$basic_string@DU?$char_traits@D@std@@V?$allocator@D@2@@std@@UIP_ADDRESS_INFO@@@std@@@2@$0A@@std@@@std@@IBE?AU?$_Tree_find_result@PAU?$_Tree_node@U?$pair@$$CBV?$basic_string@DU?$char_traits@D@std@@V?$allocator@D@2@@std@@UIP_ADDRESS_INFO@@@std@@PAX@std@@@1@ABV?$basic_string@DU?$char_traits@D@std@@V?$allocator@D@2@@1@@Z 00429aa0 f i IpManager.obj
 0001:00028aa0       ??$_Find_lower_bound@V?$basic_string@DU?$char_traits@D@std@@V?$allocator@D@2@@std@@@?$_Tree@V?$_Tmap_traits@V?$basic_string@DU?$char_traits@D@std@@V?$allocator@D@2@@std@@PAUGUILD_INFO_STRUCT@@U?$less@V?$basic_string@DU?$char_traits@D@std@@V?$allocator@D@2@@std@@@2@V?$allocator@U?$pair@$$CBV?$basic_string@DU?$char_traits@D@std@@V?$allocator@D@2@@std@@PAUGUILD_INFO_STRUCT@@@std@@@2@$0A@@std@@@std@@IBE?AU?$_Tree_find_result@PAU?$_Tree_node@U?$pair@$$CBV?$basic_string@DU?$char_traits@D@std@@V?$allocator@D@2@@std@@PAUGUILD_INFO_STRUCT@@@std@@PAX@std@@@1@ABV?$basic_string@DU?$char_traits@D@std@@V?$allocator@D@2@@1@@Z 00429aa0 f i GuildClass.obj
 0001:00028aa0       ??$_Find_lower_bound@V?$basic_string@DU?$char_traits@D@std@@V?$allocator@D@2@@std@@@?$_Tree@V?$_Tmap_traits@V?$basic_string@DU?$char_traits@D@std@@V?$allocator@D@2@@std@@URECONNECT_INFO@@U?$less@V?$basic_string@DU?$char_traits@D@std@@V?$allocator@D@2@@std@@@2@V?$allocator@U?$pair@$$CBV?$basic_string@DU?$char_traits@D@std@@V?$allocator@D@2@@std@@URECONNECT_INFO@@@std@@@2@$0A@@std@@@std@@IBE?AU?$_Tree_find_result@PAU?$_Tree_node@U?$pair@$$CBV?$basic_string@DU?$char_traits@D@std@@V?$allocator@D@2@@std@@URECONNECT_INFO@@@std@@PAX@std@@@1@ABV?$basic_string@DU?$char_traits@D@std@@V?$allocator@D@2@@1@@Z 00429aa0 f i Reconnect.obj
 0001:00028b00       ??$_Uninitialized_move@PAU_CS_SCHEDULE_DATA@@V?$allocator@U_CS_SCHEDULE_DATA@@@std@@@std@@YAPAU_CS_SCHEDULE_DATA@@QAU1@0PAU1@AAV?$allocator@U_CS_SCHEDULE_DATA@@@0@@Z 00429b00 f i CastleSiege.obj
 0001:00028b60       ??1?$_Uninitialized_backout_al@V?$allocator@U_CS_REG_GUILD_DATA@@@std@@@std@@QAE@XZ 00429b60 f i CastleSiege.obj
 0001:00028b90       ??$_Partition_by_median_guess_unchecked@PAU_CS_SCHEDULE_DATA@@P6AEAAU1@0@Z@std@@YA?AU?$pair@PAU_CS_SCHEDULE_DATA@@PAU1@@0@PAU_CS_SCHEDULE_DATA@@0P6AEAAU2@1@Z@Z 00429b90 f i CastleSiege.obj
 0001:00029110       ??$_Insertion_sort_unchecked@PAU_CS_REG_GUILD_DATA@@P6AEAAU1@0@Z@std@@YAPAU_CS_REG_GUILD_DATA@@QAU1@0P6AEAAU1@1@Z@Z 0042a110 f i CastleSiege.obj
 0001:000293a0       ??$_Partition_by_median_guess_unchecked@PAU_CS_REG_GUILD_DATA@@P6AEAAU1@0@Z@std@@YA?AU?$pair@PAU_CS_REG_GUILD_DATA@@PAU1@@0@PAU_CS_REG_GUILD_DATA@@0P6AEAAU2@1@Z@Z 0042a3a0 f i CastleSiege.obj
 0001:00029570       ??1?$_Alloc_construct_ptr@V?$allocator@U?$_Tree_node@U?$pair@$$CBHU_CS_MINIMAP_DATA@@@std@@PAX@std@@@std@@@std@@QAE@XZ 0042a570 f i CastleSiege.obj
 0001:00029590       ??1?$_Alloc_construct_ptr@V?$allocator@U?$_Tree_node@U?$pair@$$CBV?$basic_string@DU?$char_traits@D@std@@V?$allocator@D@2@@std@@U_CS_TOTAL_GUILD_DATA@@@std@@PAX@std@@@std@@@std@@QAE@XZ 0042a590 f i CastleSiege.obj
 0001:00029590       ??1?$_Alloc_construct_ptr@V?$allocator@U?$_Tree_node@U?$pair@$$CBV?$basic_string@DU?$char_traits@D@std@@V?$allocator@D@2@@std@@UIP_ADDRESS_INFO@@@std@@PAX@std@@@std@@@std@@QAE@XZ 0042a590 f i IpManager.obj
 0001:00029590       ??1?$_Tree_temp_node@V?$allocator@U?$_Tree_node@U?$pair@$$CBGUTELEPORT_PANEL_INFO@@@std@@PAX@std@@@std@@@std@@QAE@XZ 0042a590 f i TeleportPanel.obj
 0001:00029590       ??1?$_Alloc_construct_ptr@V?$allocator@U?$_Tree_node@U?$pair@$$CBGUTELEPORT_PANEL_INFO@@@std@@PAX@std@@@std@@@std@@QAE@XZ 0042a590 f i TeleportPanel.obj
 0001:000295b0       ??1?$_Alloc_construct_ptr@V?$allocator@U?$_Tree_node@U?$pair@$$CBHPAVCMapServerData@@@std@@PAX@std@@@std@@@std@@QAE@XZ 0042a5b0 f i MapServerManager.obj
 0001:000295b0       ??1?$_Alloc_construct_ptr@V?$allocator@U?$_Tree_node@U?$pair@$$CBHPAVCUnionInfo@@@std@@PAX@std@@@std@@@std@@QAE@XZ 0042a5b0 f i Union.obj
 0001:000295b0       ??1?$_Alloc_construct_ptr@V?$allocator@U?$_Tree_node@U?$pair@$$CBHPAUGUILD_INFO_STRUCT@@@std@@PAX@std@@@std@@@std@@QAE@XZ 0042a5b0 f i GuildClass.obj
 0001:000295b0       ??1?$_Alloc_construct_ptr@V?$allocator@U?$_Tree_node@U?$pair@$$CBIH@std@@PAX@std@@@std@@@std@@QAE@XZ 0042a5b0 f i CastleSiege.obj
 0001:000295b0       ??1?$_Alloc_construct_ptr@V?$allocator@U?$_Tree_node@U?$pair@$$CBH_N@std@@PAX@std@@@std@@@std@@QAE@XZ 0042a5b0 f i Protection.obj
 0001:000295b0       ??1?$_Alloc_construct_ptr@V?$allocator@U?$_Tree_node@U?$pair@$$CBHH@std@@PAX@std@@@std@@@std@@QAE@XZ 0042a5b0 f i ItemBagManager.obj
 0001:000295d0       ??$_Pop_heap_hole_by_index@PAU_CS_SCHEDULE_DATA@@U1@P6AEAAU1@0@Z@std@@YAXPAU_CS_SCHEDULE_DATA@@HH$$QAU1@P6AEAAU1@2@Z@Z 0042a5d0 f i CastleSiege.obj
 0001:00029760       ??$_Pop_heap_hole_by_index@PAU_CS_REG_GUILD_DATA@@U1@P6AEAAU1@0@Z@std@@YAXPAU_CS_REG_GUILD_DATA@@HH$$QAU1@P6AEAAU1@2@Z@Z 0042a760 f i CastleSiege.obj
 0001:00029950       ??$_Guess_median_unchecked@PAU_CS_REG_GUILD_DATA@@P6AEAAU1@0@Z@std@@YAXPAU_CS_REG_GUILD_DATA@@00P6AEAAU1@1@Z@Z 0042a950 f i CastleSiege.obj
 0001:00029af0       ??$iter_swap@PAU_CS_REG_GUILD_DATA@@PAU1@@std@@YAXPAU_CS_REG_GUILD_DATA@@0@Z 0042aaf0 f i CastleSiege.obj
 0001:00029c70       ??$_Med3_unchecked@PAU_CS_SCHEDULE_DATA@@P6AEAAU1@0@Z@std@@YAXPAU_CS_SCHEDULE_DATA@@00P6AEAAU1@1@Z@Z 0042ac70 f i CastleSiege.obj
 0001:00029e50       ??_ECCastleSiegeCrown@@UAEPAXI@Z 0042ae50 f i * CIL library *:* CIL module *
 0001:00029e50       ??_GCCastleSiegeCrown@@UAEPAXI@Z 0042ae50 f i CastleSiegeCrown.obj
 0001:00029e80       ?CastleSiegeCrownAct@CCastleSiegeCrown@@QAEXH@Z 0042ae80 f   CastleSiegeCrown.obj
 0001:0002a070       ??_ECCastleSiegeCrownSwitch@@UAEPAXI@Z 0042b070 f i * CIL library *:* CIL module *
 0001:0002a070       ??_GCCastleSiegeCrownSwitch@@UAEPAXI@Z 0042b070 f i CastleSiegeCrownSwitch.obj
 0001:0002a0a0       ?CastleSiegeCrownSwitchAct@CCastleSiegeCrownSwitch@@QAEXH@Z 0042b0a0 f   CastleSiegeCrownSwitch.obj
 0001:0002a3e0       ??_ECCastleSiegeSync@@UAEPAXI@Z 0042b3e0 f i * CIL library *:* CIL module *
 0001:0002a3e0       ??_GCCastleSiegeSync@@UAEPAXI@Z 0042b3e0 f i CastleSiegeSync.obj
 0001:0002a410       ?CheckCastleOwnerMember@CCastleSiegeSync@@QAE_NH@Z 0042b410 f   CastleSiegeSync.obj
 0001:0002a4b0       ?CheckCastleOwnerUnionMember@CCastleSiegeSync@@QAE_NH@Z 0042b4b0 f   CastleSiegeSync.obj
 0001:0002a570       ??_ECCastleSiegeWeapon@@UAEPAXI@Z 0042b570 f i * CIL library *:* CIL module *
 0001:0002a570       ??_GCCastleSiegeWeapon@@UAEPAXI@Z 0042b570 f i CastleSiegeWeapon.obj
 0001:0002a5a0       ?Attack@CCastleSiegeWeapon@@QAE_NPAUOBJECTSTRUCT@@0@Z 0042b5a0 f   CastleSiegeWeapon.obj
 0001:0002a740       ?CGCastleSiegeWeaponUseRecv@CCastleSiegeWeapon@@QAEXPAUPMSG_CASTLE_SIEGE_WEAPON_USE_RECV@@H@Z 0042b740 f   CastleSiegeWeapon.obj
 0001:0002aa40       ??_EcChangeClass@@UAEPAXI@Z 0042ba40 f i * CIL library *:* CIL module *
 0001:0002aa40       ??_GcChangeClass@@UAEPAXI@Z 0042ba40 f i ChangeClass.obj
 0001:0002aa70       ?ChangeClassCallback@cChangeClass@@SAXPAUOBJECTSTRUCT@@HKKKK@Z 0042ba70 f   ChangeClass.obj
 0001:0002ad00       ?ChangeClass@cChangeClass@@QAEXPAUOBJECTSTRUCT@@H@Z 0042bd00 f   ChangeClass.obj
 0001:0002b2d0       ??_ECChaosBox@@UAEPAXI@Z   0042c2d0 f i * CIL library *:* CIL module *
 0001:0002b2d0       ??_GCChaosBox@@UAEPAXI@Z   0042c2d0 f i ChaosBox.obj
 0001:0002b300       ?ChaosBoxInit@CChaosBox@@QAEXPAUOBJECTSTRUCT@@@Z 0042c300 f   ChaosBox.obj
 0001:0002b340       ?GetTalismanOfLuckRate@CChaosBox@@QAE_NPAUOBJECTSTRUCT@@PAH@Z 0042c340 f   ChaosBox.obj
 0001:0002b3a0       ?ChaosItemMix@CChaosBox@@QAEXPAUOBJECTSTRUCT@@@Z 0042c3a0 f   ChaosBox.obj
 0001:0002b7e0       ?DevilSquareMix@CChaosBox@@QAEXPAUOBJECTSTRUCT@@@Z 0042c7e0 f   ChaosBox.obj
 0001:0002bbd0       ?PlusItemLevelMix@CChaosBox@@QAEXPAUOBJECTSTRUCT@@H@Z 0042cbd0 f   ChaosBox.obj
 0001:0002c370       ?DinorantMix@CChaosBox@@QAEXPAUOBJECTSTRUCT@@@Z 0042d370 f   ChaosBox.obj
 0001:0002c670       ?FruitMix@CChaosBox@@QAEXPAUOBJECTSTRUCT@@@Z 0042d670 f   ChaosBox.obj
 0001:0002c940       ?Wing2Mix@CChaosBox@@QAEXPAUOBJECTSTRUCT@@H@Z 0042d940 f   ChaosBox.obj
 0001:0002d060       ?BloodCastleMix@CChaosBox@@QAEXPAUOBJECTSTRUCT@@@Z 0042e060 f   ChaosBox.obj
 0001:0002d470       ?Wing1Mix@CChaosBox@@QAEXPAUOBJECTSTRUCT@@@Z 0042e470 f   ChaosBox.obj
 0001:0002d960       ?PetMix@CChaosBox@@QAEXPAUOBJECTSTRUCT@@H@Z 0042e960 f   ChaosBox.obj
 0001:0002dce0       ?SiegePotionMix@CChaosBox@@QAEXPAUOBJECTSTRUCT@@H@Z 0042ece0 f   ChaosBox.obj
 0001:0002df60       ?LifeStoneMix@CChaosBox@@QAEXPAUOBJECTSTRUCT@@@Z 0042ef60 f   ChaosBox.obj
 0001:0002e1a0       ?SeniorMix@CChaosBox@@QAEXPAUOBJECTSTRUCT@@@Z 0042f1a0 f   ChaosBox.obj
 0001:0002e450       ?PieceOfHornMix@CChaosBox@@QAEXPAUOBJECTSTRUCT@@@Z 0042f450 f   ChaosBox.obj
 0001:0002e690       ?BrokenHornMix@CChaosBox@@QAEXPAUOBJECTSTRUCT@@@Z 0042f690 f   ChaosBox.obj
 0001:0002e8c0       ?HornOfFenrirMix@CChaosBox@@QAEXPAUOBJECTSTRUCT@@@Z 0042f8c0 f   ChaosBox.obj
 0001:0002eba0       ?HornOfFenrirUpgradeMix@CChaosBox@@QAEXPAUOBJECTSTRUCT@@@Z 0042fba0 f   ChaosBox.obj
 0001:0002ef90       ?ShieldPotionMix@CChaosBox@@QAEXPAUOBJECTSTRUCT@@H@Z 0042ff90 f   ChaosBox.obj
 0001:0002f2f0       ?JewelOfHarmonyItemPurityMix@CChaosBox@@QAEXPAUOBJECTSTRUCT@@@Z 004302f0 f   ChaosBox.obj
 0001:0002f4d0       ?JewelOfHarmonyItemSmeltMix@CChaosBox@@QAEXPAUOBJECTSTRUCT@@@Z 004304d0 f   ChaosBox.obj
 0001:0002f7b0       ?JewelOfHarmonyItemRestoreMix@CChaosBox@@QAEXPAUOBJECTSTRUCT@@@Z 004307b0 f   ChaosBox.obj
 0001:0002fad0       ?Item380Mix@CChaosBox@@QAEXPAUOBJECTSTRUCT@@@Z 00430ad0 f   ChaosBox.obj
 0001:0002fee0       ?IllusionTempleMix@CChaosBox@@QAEXPAUOBJECTSTRUCT@@@Z 00430ee0 f   ChaosBox.obj
 0001:000302b0       ?ThirdWingMixFail@CChaosBox@@QAEXPAUOBJECTSTRUCT@@@Z 004312b0 f   ChaosBox.obj
 0001:00030360       ?ThirdWingMixFailItemPanalty@CChaosBox@@QAEXPAVCItem@@@Z 00431360 f   ChaosBox.obj
 0001:000303f0       ?FeatherOfCondorMix@CChaosBox@@QAEXPAUOBJECTSTRUCT@@@Z 004313f0 f   ChaosBox.obj
 0001:000307e0       ?Wing3Mix@CChaosBox@@QAEXPAUOBJECTSTRUCT@@@Z 004317e0 f   ChaosBox.obj
 0001:00030e40       ?ChaosCardMix@CChaosBox@@QAEXPAUOBJECTSTRUCT@@H@Z 00431e40 f   ChaosBox.obj
 0001:000310a0       ?CherryBlossomMix@CChaosBox@@QAEXPAUOBJECTSTRUCT@@H@Z 004320a0 f   ChaosBox.obj
 0001:000312d0       ?SocketItemCreateSeedMix@CChaosBox@@QAEXPAUOBJECTSTRUCT@@@Z 004322d0 f   ChaosBox.obj
 0001:000317d0       ?SocketItemCreateSeedSphereMix@CChaosBox@@QAEXPAUOBJECTSTRUCT@@@Z 004327d0 f   ChaosBox.obj
 0001:00031b60       ?SocketItemMountSeedSphereMix@CChaosBox@@QAEXPAUOBJECTSTRUCT@@E@Z 00432b60 f   ChaosBox.obj
 0001:00032080       ?SocketItemUnMountSeedSphereMix@CChaosBox@@QAEXPAUOBJECTSTRUCT@@E@Z 00433080 f   ChaosBox.obj
 0001:00032320       ?ImperialGuardianMix@CChaosBox@@QAEXPAUOBJECTSTRUCT@@@Z 00433320 f   ChaosBox.obj
 0001:00032660       ?LuckyItemCreateMix@CChaosBox@@QAEXPAUOBJECTSTRUCT@@@Z 00433660 f   ChaosBox.obj
 0001:00032ac0       ?LuckyItemRefineMix@CChaosBox@@QAEXPAUOBJECTSTRUCT@@@Z 00433ac0 f   ChaosBox.obj
 0001:00032cf0       ?NewWingPart1Mix@CChaosBox@@QAEXPAUOBJECTSTRUCT@@@Z 00433cf0 f   ChaosBox.obj
 0001:000330f0       ?NewWingPart2Mix@CChaosBox@@QAEXPAUOBJECTSTRUCT@@@Z 004340f0 f   ChaosBox.obj
 0001:000335a0       ?CGChaosMixRecv@CChaosBox@@QAEXPAUPMSG_CHAOS_MIX_RECV@@H@Z 004345a0 f   ChaosBox.obj
 0001:00033dd0       ?GCChaosBoxSend@CChaosBox@@QAEXPAUOBJECTSTRUCT@@E@Z 00434dd0 f   ChaosBox.obj
 0001:00033f50       ?GCChaosMixSend@CChaosBox@@QAEXHEPAVCItem@@@Z 00434f50 f   ChaosBox.obj
 0001:000340d0       ??_EcChaosRecipe@@UAEPAXI@Z 004350d0 f i * CIL library *:* CIL module *
 0001:000340d0       ??_GcChaosRecipe@@UAEPAXI@Z 004350d0 f i ChaosBoxManager.obj
 0001:00034190       ?Read@cChaosRecipe@@QAE_NPAD@Z 00435190 f   ChaosBoxManager.obj
 0001:00035380       ??1ChaosCombination@@QAE@XZ 00436380 f i ChaosBoxManager.obj
 0001:000353b0       ?ActFail@cChaosRecipe@@SAXPAUOBJECTSTRUCT@@PAV1@PAUChaosCombination@@E@Z 004363b0 f   ChaosBoxManager.obj
 0001:00035450       ?ActSuccess@cChaosRecipe@@SAXPAUOBJECTSTRUCT@@PAV1@PAUChaosCombination@@PAUChaosProduce@@@Z 00436450 f   ChaosBoxManager.obj
 0001:00035760       ??_GcChaosBoxManager@@UAEPAXI@Z 00436760 f i ChaosBoxManager.obj
 0001:00035760       ??_EcChaosBoxManager@@UAEPAXI@Z 00436760 f i * CIL library *:* CIL module *
 0001:00035790       ?Read@cChaosBoxManager@@QAEXPAD@Z 00436790 f   ChaosBoxManager.obj
 0001:00035a30       ?StartMix@cChaosBoxManager@@QAE_NPAUOBJECTSTRUCT@@H@Z 00436a30 f   ChaosBoxManager.obj
 0001:000362b0       ??1?$vector@UChaosCombination@@V?$allocator@UChaosCombination@@@std@@@std@@QAE@XZ 004372b0 f i ChaosBoxManager.obj
 0001:00036330       ??1?$vector@UChaosProduce@@V?$allocator@UChaosProduce@@@std@@@std@@QAE@XZ 00437330 f i ChaosBoxManager.obj
 0001:00036340       ??1?$vector@UChaosIngredient@@V?$allocator@UChaosIngredient@@@std@@@std@@QAE@XZ 00437340 f i ChaosBoxManager.obj
 0001:00036350       ?_Destroy@?$vector@UChaosCombination@@V?$allocator@UChaosCombination@@@std@@@std@@AAEXPAUChaosCombination@@0@Z 00437350 f i ChaosBoxManager.obj
 0001:00036370       ??1?$vector@UREGISTERED_GUILD_INFO@@V?$allocator@UREGISTERED_GUILD_INFO@@@std@@@std@@QAE@XZ 00437370 f i Diablo.obj
 0001:00036370       ??1?$vector@UITEM_STACK_INFO@@V?$allocator@UITEM_STACK_INFO@@@std@@@std@@QAE@XZ 00437370 f i ItemStack.obj
 0001:00036370       ??1?$vector@USUMMON_SCROLL_MONSTER_INFO@@V?$allocator@USUMMON_SCROLL_MONSTER_INFO@@@std@@@std@@QAE@XZ 00437370 f i SummonScroll.obj
 0001:00036370       ?_Tidy@?$vector@UChaosTalisman@@V?$allocator@UChaosTalisman@@@std@@@std@@AAEXXZ 00437370 f i ChaosBoxManager.obj
 0001:00036370       ??1?$vector@UINVASION_MONSTER_INFO@@V?$allocator@UINVASION_MONSTER_INFO@@@std@@@std@@QAE@XZ 00437370 f i InvasionManager.obj
 0001:00036370       ?_Tidy@?$vector@UChaosProduce@@V?$allocator@UChaosProduce@@@std@@@std@@AAEXXZ 00437370 f i ChaosBoxManager.obj
 0001:00036370       ??1?$vector@UItemToPointsData@@V?$allocator@UItemToPointsData@@@std@@@std@@QAE@XZ 00437370 f i ItemToPoints.obj
 0001:000363d0       ?_Tidy@?$vector@UChaosIngredient@@V?$allocator@UChaosIngredient@@@std@@@std@@AAEXXZ 004373d0 f i ChaosBoxManager.obj
 0001:00036440       ?deallocate@?$allocator@UChaosCombination@@@std@@QAEXQAUChaosCombination@@I@Z 00437440 f i ChaosBoxManager.obj
 0001:00036480       ??$_Emplace_reallocate@ABQAUINVASION_RESPWAN_INFO@@@?$vector@PAUINVASION_RESPWAN_INFO@@V?$allocator@PAUINVASION_RESPWAN_INFO@@@std@@@std@@QAEPAPAUINVASION_RESPWAN_INFO@@QAPAU2@ABQAU2@@Z 00437480 f i InvasionManager.obj
 0001:00036480       ??$_Emplace_reallocate@ABQAVcChaosRecipe@@@?$vector@PAVcChaosRecipe@@V?$allocator@PAVcChaosRecipe@@@std@@@std@@QAEPAPAVcChaosRecipe@@QAPAV2@ABQAV2@@Z 00437480 f i ChaosBoxManager.obj
 0001:00036480       ??$_Emplace_reallocate@PAUOBJECTSTRUCT@@@?$vector@PAUOBJECTSTRUCT@@V?$allocator@PAUOBJECTSTRUCT@@@std@@@std@@QAEPAPAUOBJECTSTRUCT@@QAPAU2@$$QAPAU2@@Z 00437480 f i Crywolf.obj
 0001:00036480       ??$_Emplace_reallocate@PAUINVASION_MONSTER_INFO@@@?$vector@PAUINVASION_MONSTER_INFO@@V?$allocator@PAUINVASION_MONSTER_INFO@@@std@@@std@@QAEPAPAUINVASION_MONSTER_INFO@@QAPAU2@$$QAPAU2@@Z 00437480 f i InvasionManager.obj
 0001:00036480       ??$_Emplace_reallocate@ABQAVCMapServerData@@@?$vector@PAVCMapServerData@@V?$allocator@PAVCMapServerData@@@std@@@std@@QAEPAPAVCMapServerData@@QAPAV2@ABQAV2@@Z 00437480 f i MapServerManager.obj
 0001:000365e0       ??$_Emplace_reallocate@ABUChaosCombination@@@?$vector@UChaosCombination@@V?$allocator@UChaosCombination@@@std@@@std@@QAEPAUChaosCombination@@QAU2@ABU2@@Z 004375e0 f i ChaosBoxManager.obj
 0001:00036800       ??$_Emplace_reallocate@ABUChaosTalisman@@@?$vector@UChaosTalisman@@V?$allocator@UChaosTalisman@@@std@@@std@@QAEPAUChaosTalisman@@QAU2@ABU2@@Z 00437800 f i ChaosBoxManager.obj
 0001:00036800       ??$_Emplace_reallocate@ABUChaosProduce@@@?$vector@UChaosProduce@@V?$allocator@UChaosProduce@@@std@@@std@@QAEPAUChaosProduce@@QAU2@ABU2@@Z 00437800 f i ChaosBoxManager.obj
 0001:00036910       ??$_Emplace_reallocate@ABUChaosIngredient@@@?$vector@UChaosIngredient@@V?$allocator@UChaosIngredient@@@std@@@std@@QAEPAUChaosIngredient@@QAU2@ABU2@@Z 00437910 f i ChaosBoxManager.obj
 0001:00036aa0       ??$_Destroy_range@V?$allocator@UChaosCombination@@@std@@@std@@YAXPAUChaosCombination@@QAU1@AAV?$allocator@UChaosCombination@@@0@@Z 00437aa0 f i ChaosBoxManager.obj
 0001:00036ae0       ??0ChaosCombination@@QAE@ABU0@@Z 00437ae0 f i ChaosBoxManager.obj
 0001:00036ce0       ?allocate@?$allocator@UChaosProduce@@@std@@QAEPAUChaosProduce@@I@Z 00437ce0 f i ChaosBoxManager.obj
 0001:00036ce0       ?allocate@?$allocator@UChaosTalisman@@@std@@QAEPAUChaosTalisman@@I@Z 00437ce0 f i ChaosBoxManager.obj
 0001:00036d40       ?allocate@?$allocator@UChaosIngredient@@@std@@QAEPAUChaosIngredient@@I@Z 00437d40 f i ChaosBoxManager.obj
 0001:00036db0       ??$_Uninitialized_move@PAUChaosCombination@@V?$allocator@UChaosCombination@@@std@@@std@@YAPAUChaosCombination@@QAU1@0PAU1@AAV?$allocator@UChaosCombination@@@0@@Z 00437db0 f i ChaosBoxManager.obj
 0001:00036f00       ??0CHAOS_CASTLE_LEVEL@@QAE@XZ 00437f00 f i ChaosCastle.obj
 0001:00036f30       ??_ECChaosCastle@@UAEPAXI@Z 00437f30 f i * CIL library *:* CIL module *
 0001:00036f30       ??_GCChaosCastle@@UAEPAXI@Z 00437f30 f i ChaosCastle.obj
 0001:00036fb0       ??1CHAOS_CASTLE_LEVEL@@QAE@XZ 00437fb0 f i ChaosCastle.obj
 0001:00036fc0       ?Init@CChaosCastle@@QAEXXZ 00437fc0 f   ChaosCastle.obj
 0001:00037030       ?Load@CChaosCastle@@QAEXPAD@Z 00438030 f   ChaosCastle.obj
 0001:00037370       ?MainProc@CChaosCastle@@QAEXXZ 00438370 f   ChaosCastle.obj
 0001:00037620       ?ProcState_EMPTY@CChaosCastle@@QAEXPAUCHAOS_CASTLE_LEVEL@@@Z 00438620 f   ChaosCastle.obj
 0001:00037850       ?ProcState_START@CChaosCastle@@QAEXPAUCHAOS_CASTLE_LEVEL@@@Z 00438850 f   ChaosCastle.obj
 0001:00038020       ?SetState@CChaosCastle@@QAEXPAUCHAOS_CASTLE_LEVEL@@H@Z 00439020 f   ChaosCastle.obj
 0001:00038190       ?SetState_EMPTY@CChaosCastle@@QAEXPAUCHAOS_CASTLE_LEVEL@@@Z 00439190 f   ChaosCastle.obj
 0001:00038410       ?SetState_START@CChaosCastle@@QAEXPAUCHAOS_CASTLE_LEVEL@@@Z 00439410 f   ChaosCastle.obj
 0001:00038740       ?SetState_CLEAN@CChaosCastle@@QAEXPAUCHAOS_CASTLE_LEVEL@@@Z 00439740 f   ChaosCastle.obj
 0001:00038a70       ?CheckSync@CChaosCastle@@QAEXPAUCHAOS_CASTLE_LEVEL@@@Z 00439a70 f   ChaosCastle.obj
 0001:00038c40       ?GetRemainTime@CChaosCastle@@QAEHH@Z 00439c40 f   ChaosCastle.obj
 0001:00038e00       ?DelUser@CChaosCastle@@QAE_NPAUCHAOS_CASTLE_LEVEL@@H@Z 00439e00 f   ChaosCastle.obj
 0001:00038e60       ?CheckUser@CChaosCastle@@QAEXPAUCHAOS_CASTLE_LEVEL@@@Z 00439e60 f   ChaosCastle.obj
 0001:00038eb0       ?GetUserAbleLevel@CChaosCastle@@QAEHPAUOBJECTSTRUCT@@@Z 00439eb0 f   ChaosCastle.obj
 0001:00038fd0       ?GiveUserRewardExperience@CChaosCastle@@QAEXPAUCHAOS_CASTLE_LEVEL@@H@Z 00439fd0 f   ChaosCastle.obj
 0001:000390d0       ?GiveUserRewardItem@CChaosCastle@@QAEXPAUCHAOS_CASTLE_LEVEL@@H@Z 0043a0d0 f   ChaosCastle.obj
 0001:00039280       ?SetMonster@CChaosCastle@@QAEXPAUCHAOS_CASTLE_LEVEL@@H@Z 0043a280 f   ChaosCastle.obj
 0001:00039360       ?SetHollowZone@CChaosCastle@@QAEXPAUCHAOS_CASTLE_LEVEL@@H@Z 0043a360 f   ChaosCastle.obj
 0001:00039420       ?DelHollowZone@CChaosCastle@@QAEXPAUCHAOS_CASTLE_LEVEL@@H@Z 0043a420 f   ChaosCastle.obj
 0001:000394e0       ?SearchUserAndBlow@CChaosCastle@@QAEXPAUCHAOS_CASTLE_LEVEL@@HH@Z 0043a4e0 f   ChaosCastle.obj
 0001:000396b0       ?MonsterDieProc@CChaosCastle@@QAEXPAUOBJECTSTRUCT@@0@Z 0043a6b0 f   ChaosCastle.obj
 0001:00039810       ?NoticeSendToAll@CChaosCastle@@QAAXPAUCHAOS_CASTLE_LEVEL@@HPADZZ 0043a810 f   ChaosCastle.obj
 0001:000398a0       ?CGChaosCastleEnterRecv@CChaosCastle@@QAEXPAUPMSG_CHAOS_CASTLE_ENTER_RECV@@H@Z 0043a8a0 f   ChaosCastle.obj
 0001:00039d00       ?GCChaosCastleScoreSend@CChaosCastle@@QAEXPAUCHAOS_CASTLE_LEVEL@@HH@Z 0043ad00 f   ChaosCastle.obj
 0001:00039dd0       ?GCChaosCastleDelayScoreSend@CChaosCastle@@QAEXPAUCHAOS_CASTLE_LEVEL@@HH@Z 0043add0 f   ChaosCastle.obj
 0001:00039ee0       ?calculate_damage_class_vs_class@CCharacterCalc@@QAEHHH@Z 0043aee0 f   CharacterCalc.obj
 0001:00039fa0       ??0CClientManager@@QAE@XZ  0043afa0 f   ClientManager.obj
 0001:00039fe0       ??_GCClientManager@@UAEPAXI@Z 0043afe0 f i ClientManager.obj
 0001:00039fe0       ??_ECClientManager@@UAEPAXI@Z 0043afe0 f i * CIL library *:* CIL module *
 0001:0003a010       ??1CClientManager@@UAE@XZ  0043b010 f   ClientManager.obj
 0001:0003a020       ?CheckCombo@CComboSkill@@QAE_NGH@Z 0043b020 f   ComboSkill.obj
 0001:0003a1b0       ??$_Find_lower_bound@E@?$_Tree@V?$_Tmap_traits@EUskill_data@CComboSkillData@@U?$less@E@std@@V?$allocator@U?$pair@$$CBEUskill_data@CComboSkillData@@@std@@@4@$0A@@std@@@std@@IBE?AU?$_Tree_find_result@PAU?$_Tree_node@U?$pair@$$CBEUskill_data@CComboSkillData@@@std@@PAX@std@@@1@ABE@Z 0043b1b0 f i ComboSkill.obj
 0001:0003a200       ?load@CComboSkillData@@QAEXPAD@Z 0043b200 f   ComboSkillData.obj
 0001:0003a850       ??1skill_data@CComboSkillData@@QAE@XZ 0043b850 f i ComboSkillData.obj
 0001:0003a870       ??1?$pair@EUskill_data@CComboSkillData@@@std@@QAE@XZ 0043b870 f i ComboSkillData.obj
 0001:0003a890       ??$_Erase_tree@V?$allocator@U?$_Tree_node@U?$pair@$$CBEUskill_data@CComboSkillData@@@std@@PAX@std@@@std@@@?$_Tree_val@U?$_Tree_simple_types@U?$pair@$$CBEUskill_data@CComboSkillData@@@std@@@std@@@std@@QAEXAAV?$allocator@U?$_Tree_node@U?$pair@$$CBEUskill_data@CComboSkillData@@@std@@PAX@std@@@1@PAU?$_Tree_node@U?$pair@$$CBEUskill_data@CComboSkillData@@@std@@PAX@1@@Z 0043b890 f i ComboSkillData.obj
 0001:0003a8f0       ??1?$_Alloc_construct_ptr@V?$allocator@U?$_Tree_node@U?$pair@$$CBEUskill_data@CComboSkillData@@@std@@PAX@std@@@std@@@std@@QAE@XZ 0043b8f0 f i ComboSkillData.obj
 0001:0003a8f0       ??1?$_Alloc_construct_ptr@V?$allocator@U?$_Tree_node@U?$pair@$$CBHUITEM_OPTION6_RATE_INFO@@@std@@PAX@std@@@std@@@std@@QAE@XZ 0043b8f0 f i ItemOptionRate.obj
 0001:0003a8f0       ??1?$_Alloc_construct_ptr@V?$allocator@U?$_Tree_node@U?$pair@$$CBHUITEM_EXCELLENT_RATE_INFO@@@std@@PAX@std@@@std@@@std@@QAE@XZ 0043b8f0 f i ItemOptionRate.obj
 0001:0003a910       ??_ECCommandManager@@UAEPAXI@Z 0043b910 f i * CIL library *:* CIL module *
 0001:0003a910       ??_GCCommandManager@@UAEPAXI@Z 0043b910 f i CommandManager.obj
 0001:0003a940       ?Load@CCommandManager@@QAEXPAD@Z 0043b940 f   CommandManager.obj
 0001:0003ae40       ?MainProc@CCommandManager@@QAEXXZ 0043be40 f   CommandManager.obj
 0001:0003b050       ?GetNumber@CCommandManager@@QAEJPADH@Z 0043c050 f   CommandManager.obj
 0001:0003b0e0       ?GetString@CCommandManager@@QAEXPAD0HH@Z 0043c0e0 f   CommandManager.obj
 0001:0003b180       ?ManagementCore@CCommandManager@@QAEXPAUOBJECTSTRUCT@@PAD@Z 0043c180 f   CommandManager.obj
 0001:0003bb60       ?CommandMove@CCommandManager@@QAEXPAUOBJECTSTRUCT@@PAD@Z 0043cb60 f   CommandManager.obj
 0001:0003bc20       ?CommandPost@CCommandManager@@QAEXPAUOBJECTSTRUCT@@PAD@Z 0043cc20 f   CommandManager.obj
 0001:0003c2e0       ?CommandAddPoint@CCommandManager@@QAEXPAUOBJECTSTRUCT@@PADH@Z 0043d2e0 f   CommandManager.obj
 0001:0003c590       ?CommandAddPointAuto@CCommandManager@@QAEXPAUOBJECTSTRUCT@@PADH@Z 0043d590 f   CommandManager.obj
 0001:0003c830       ?CommandPKClear@CCommandManager@@QAEXPAUOBJECTSTRUCT@@PAD@Z 0043d830 f   CommandManager.obj
 0001:0003ca30       ?CommandMoney@CCommandManager@@QAEXPAUOBJECTSTRUCT@@PAD@Z 0043da30 f   CommandManager.obj
 0001:0003cbb0       ?CommandChange@CCommandManager@@QAEXPAUOBJECTSTRUCT@@PAD@Z 0043dbb0 f   CommandManager.obj
 0001:0003ce30       ?CommandReset@CCommandManager@@QAEXPAUOBJECTSTRUCT@@PAD@Z 0043de30 f   CommandManager.obj
 0001:0003d420       ?CommandResetAuto@CCommandManager@@QAEXPAUOBJECTSTRUCT@@PAD@Z 0043e420 f   CommandManager.obj
 0001:0003d5d0       ?CommandGMMove@CCommandManager@@QAEXPAUOBJECTSTRUCT@@PAD@Z 0043e5d0 f   CommandManager.obj
 0001:0003d780       ?CommandGMPost@CCommandManager@@QAEXPAUOBJECTSTRUCT@@PAD@Z 0043e780 f   CommandManager.obj
 0001:0003d8a0       ?CommandTrack@CCommandManager@@QAEXPAUOBJECTSTRUCT@@PAD@Z 0043e8a0 f   CommandManager.obj
 0001:0003da30       ?CommandTrace@CCommandManager@@QAEXPAUOBJECTSTRUCT@@PAD@Z 0043ea30 f   CommandManager.obj
 0001:0003dbc0       ?CommandDisconnect@CCommandManager@@QAEXPAUOBJECTSTRUCT@@PAD@Z 0043ebc0 f   CommandManager.obj
 0001:0003dd60       ?CommandFireworks@CCommandManager@@QAEXPAUOBJECTSTRUCT@@PAD@Z 0043ed60 f   CommandManager.obj
 0001:0003ded0       ?CommandMake@CCommandManager@@QAEXPAUOBJECTSTRUCT@@PAD@Z 0043eed0 f   CommandManager.obj
 0001:0003e1e0       ?CommandDrop@CCommandManager@@QAEXPAUOBJECTSTRUCT@@PAD@Z 0043f1e0 f   CommandManager.obj
 0001:0003e3f0       ?CommandSkin@CCommandManager@@QAEXPAUOBJECTSTRUCT@@PAD@Z 0043f3f0 f   CommandManager.obj
 0001:0003e580       ?CommandSetMoney@CCommandManager@@QAEXPAUOBJECTSTRUCT@@PAD@Z 0043f580 f   CommandManager.obj
 0001:0003e7a0       ?CommandChatBan@CCommandManager@@QAEXPAUOBJECTSTRUCT@@PAD@Z 0043f7a0 f   CommandManager.obj
 0001:0003e8e0       ?CommandChatUnBan@CCommandManager@@QAEXPAUOBJECTSTRUCT@@PAD@Z 0043f8e0 f   CommandManager.obj
 0001:0003ea10       ?CommandNotice@CCommandManager@@QAEXPAUOBJECTSTRUCT@@PAD@Z 0043fa10 f   CommandManager.obj
 0001:0003eb80       ?CommandSetCretits@CCommandManager@@QAEXPAUOBJECTSTRUCT@@PAD@Z 0043fb80 f   CommandManager.obj
 0001:0003ed70       ?CommandRequest@CCommandManager@@QAEXPAUOBJECTSTRUCT@@PAD@Z 0043fd70 f   CommandManager.obj
 0001:0003efc0       ?CommandHide@CCommandManager@@QAEXPAUOBJECTSTRUCT@@PAD@Z 0043ffc0 f   CommandManager.obj
 0001:0003f140       ?CommandAddPointAutoProc@CCommandManager@@QAEXPAUOBJECTSTRUCT@@@Z 00440140 f   CommandManager.obj
 0001:0003f2b0       ?CommandClearInventory@CCommandManager@@QAEXPAUOBJECTSTRUCT@@@Z 004402b0 f   CommandManager.obj
 0001:0003f310       ?CommandDCFriend@CCommandManager@@QAEXPAUOBJECTSTRUCT@@PAD@Z 00440310 f   CommandManager.obj
 0001:0003f4c0       ?CommandQuest@CCommandManager@@QAEXPAUOBJECTSTRUCT@@@Z 004404c0 f   CommandManager.obj
 0001:0003f550       ?CommandPartyLeader@CCommandManager@@QAEXPAUOBJECTSTRUCT@@PAD@Z 00440550 f   CommandManager.obj
 0001:0003f640       ?DGCommandResetRecv@CCommandManager@@QAEXPAUSDHP_COMMAND_RESET_RECV@@@Z 00440640 f   CommandManager.obj
 0001:00040090       ?CommandExchangeWcoinPCallback@CCommandManager@@SAXPAUOBJECTSTRUCT@@HHKKK@Z 00441090 f   CommandManager.obj
 0001:00040240       ?CheckTraceMarryCondition@CCommandManager@@QAEHPAUOBJECTSTRUCT@@0@Z 00441240 f   CommandManager.obj
 0001:00040510       ?SendZenCustomVault@CCommandManager@@QAEXPAUOBJECTSTRUCT@@PAD@Z 00441510 f   CommandManager.obj
 0001:000405e0       ?RecvZenCustomVault@CCommandManager@@QAEXPAUOBJECTSTRUCT@@PAD@Z 004415e0 f   CommandManager.obj
 0001:00040710       ?SendBlessCustomVault@CCommandManager@@QAEXPAUOBJECTSTRUCT@@PAD@Z 00441710 f   CommandManager.obj
 0001:000407e0       ?RecvBlessCustomVault@CCommandManager@@QAEXPAUOBJECTSTRUCT@@PAD@Z 004417e0 f   CommandManager.obj
 0001:00040920       ?SendSoulCustomVault@CCommandManager@@QAEXPAUOBJECTSTRUCT@@PAD@Z 00441920 f   CommandManager.obj
 0001:000409f0       ?RecvSoulCustomVault@CCommandManager@@QAEXPAUOBJECTSTRUCT@@PAD@Z 004419f0 f   CommandManager.obj
 0001:00040b30       ?SendChaosCustomVault@CCommandManager@@QAEXPAUOBJECTSTRUCT@@PAD@Z 00441b30 f   CommandManager.obj
 0001:00040c00       ?RecvChaosCustomVault@CCommandManager@@QAEXPAUOBJECTSTRUCT@@PAD@Z 00441c00 f   CommandManager.obj
 0001:00040d40       ?SendLifeCustomVault@CCommandManager@@QAEXPAUOBJECTSTRUCT@@PAD@Z 00441d40 f   CommandManager.obj
 0001:00040e10       ?RecvLifeCustomVault@CCommandManager@@QAEXPAUOBJECTSTRUCT@@PAD@Z 00441e10 f   CommandManager.obj
 0001:00040f50       ?SendCreationCustomVault@CCommandManager@@QAEXPAUOBJECTSTRUCT@@PAD@Z 00441f50 f   CommandManager.obj
 0001:00041020       ?RecvCreationCustomVault@CCommandManager@@QAEXPAUOBJECTSTRUCT@@PAD@Z 00442020 f   CommandManager.obj
 0001:00041160       ?SendGuardianCustomVault@CCommandManager@@QAEXPAUOBJECTSTRUCT@@PAD@Z 00442160 f   CommandManager.obj
 0001:00041230       ?RecvGuardianCustomVault@CCommandManager@@QAEXPAUOBJECTSTRUCT@@PAD@Z 00442230 f   CommandManager.obj
 0001:00041370       ?SendHarmonyCustomVault@CCommandManager@@QAEXPAUOBJECTSTRUCT@@PAD@Z 00442370 f   CommandManager.obj
 0001:00041440       ?RecvHarmonyCustomVault@CCommandManager@@QAEXPAUOBJECTSTRUCT@@PAD@Z 00442440 f   CommandManager.obj
 0001:00041580       ?SendLowStoneCustomVault@CCommandManager@@QAEXPAUOBJECTSTRUCT@@PAD@Z 00442580 f   CommandManager.obj
 0001:00041650       ?RecvLowStoneCustomVault@CCommandManager@@QAEXPAUOBJECTSTRUCT@@PAD@Z 00442650 f   CommandManager.obj
 0001:00041790       ?SendHighStoneCustomVault@CCommandManager@@QAEXPAUOBJECTSTRUCT@@PAD@Z 00442790 f   CommandManager.obj
 0001:00041860       ?RecvHighStoneCustomVault@CCommandManager@@QAEXPAUOBJECTSTRUCT@@PAD@Z 00442860 f   CommandManager.obj
 0001:000419a0       ?SendGemStoneCustomVault@CCommandManager@@QAEXPAUOBJECTSTRUCT@@PAD@Z 004429a0 f   CommandManager.obj
 0001:00041a70       ?RecvGemStoneCustomVault@CCommandManager@@QAEXPAUOBJECTSTRUCT@@PAD@Z 00442a70 f   CommandManager.obj
 0001:00041bb0       ?PackIudexItem@CCommandManager@@QAEXPAUOBJECTSTRUCT@@PAD@Z 00442bb0 f   CommandManager.obj
 0001:00041d40       ?UnPackIudexItem@CCommandManager@@QAEXPAUOBJECTSTRUCT@@PAD@Z 00442d40 f   CommandManager.obj
 0001:00041f80       ??A?$map@HUQUEST_DATA@@U?$less@H@std@@V?$allocator@U?$pair@$$CBHUQUEST_DATA@@@std@@@3@@std@@QAEAAUQUEST_DATA@@ABH@Z 00442f80 f i CommandManager.obj
 0001:00042050       ??1?$_Alloc_construct_ptr@V?$allocator@U?$_Tree_node@U?$pair@$$CBHUQUEST_DATA@@@std@@PAX@std@@@std@@@std@@QAE@XZ 00443050 f i CommandManager.obj
 0001:00042070       ??$_Find_lower_bound@H@?$_Tree@V?$_Tmap_traits@HUMAP_INFO@@U?$less@H@std@@V?$allocator@U?$pair@$$CBHUMAP_INFO@@@std@@@3@$0A@@std@@@std@@IBE?AU?$_Tree_find_result@PAU?$_Tree_node@U?$pair@$$CBHUMAP_INFO@@@std@@PAX@std@@@1@ABH@Z 00443070 f i Message.obj
 0001:00042070       ??$_Find_lower_bound@H@?$_Tree@V?$_Tmap_traits@HV?$vector@UITEM_BAG_EX_ITEM_INFO@@V?$allocator@UITEM_BAG_EX_ITEM_INFO@@@std@@@std@@U?$less@H@2@V?$allocator@U?$pair@$$CBHV?$vector@UITEM_BAG_EX_ITEM_INFO@@V?$allocator@UITEM_BAG_EX_ITEM_INFO@@@std@@@std@@@std@@@2@$0A@@std@@@std@@IBE?AU?$_Tree_find_result@PAU?$_Tree_node@U?$pair@$$CBHV?$vector@UITEM_BAG_EX_ITEM_INFO@@V?$allocator@UITEM_BAG_EX_ITEM_INFO@@@std@@@std@@@std@@PAX@std@@@1@ABH@Z 00443070 f i ItemBagEx.obj
 0001:00042070       ??$_Find_lower_bound@H@?$_Tree@V?$_Tmap_traits@HPAVCUnionInfo@@U?$less@H@std@@V?$allocator@U?$pair@$$CBHPAVCUnionInfo@@@std@@@3@$0A@@std@@@std@@IBE?AU?$_Tree_find_result@PAU?$_Tree_node@U?$pair@$$CBHPAVCUnionInfo@@@std@@PAX@std@@@1@ABH@Z 00443070 f i Union.obj
 0001:00042070       ??$_Find_lower_bound@H@?$_Tree@V?$_Tmap_traits@HUMASTER_SKILL_TREE_INFO@@U?$less@H@std@@V?$allocator@U?$pair@$$CBHUMASTER_SKILL_TREE_INFO@@@std@@@3@$0A@@std@@@std@@IBE?AU?$_Tree_find_result@PAU?$_Tree_node@U?$pair@$$CBHUMASTER_SKILL_TREE_INFO@@@std@@PAX@std@@@1@ABH@Z 00443070 f i MasterSkillTree.obj
 0001:00042070       ??$_Find_lower_bound@H@?$_Tree@V?$_Tmap_traits@HUMESSAGE_INFO@@U?$less@H@std@@V?$allocator@U?$pair@$$CBHUMESSAGE_INFO@@@std@@@3@$0A@@std@@@std@@IBE?AU?$_Tree_find_result@PAU?$_Tree_node@U?$pair@$$CBHUMESSAGE_INFO@@@std@@PAX@std@@@1@ABH@Z 00443070 f i Message.obj
 0001:00042070       ??$_Find_lower_bound@H@?$_Tree@V?$_Tmap_traits@HUSKILL_INFO@@U?$less@H@std@@V?$allocator@U?$pair@$$CBHUSKILL_INFO@@@std@@@3@$0A@@std@@@std@@IBE?AU?$_Tree_find_result@PAU?$_Tree_node@U?$pair@$$CBHUSKILL_INFO@@@std@@PAX@std@@@1@ABH@Z 00443070 f i SkillManager.obj
 0001:00042070       ??$_Find_lower_bound@H@?$_Tree@V?$_Tmap_traits@HUGATE_INFO@@U?$less@H@std@@V?$allocator@U?$pair@$$CBHUGATE_INFO@@@std@@@3@$0A@@std@@@std@@IBE?AU?$_Tree_find_result@PAU?$_Tree_node@U?$pair@$$CBHUGATE_INFO@@@std@@PAX@std@@@1@ABH@Z 00443070 f i Gate.obj
 0001:00042070       ??$_Find_lower_bound@H@?$_Tree@V?$_Tmap_traits@HPAVCMapServerData@@U?$less@H@std@@V?$allocator@U?$pair@$$CBHPAVCMapServerData@@@std@@@3@$0A@@std@@@std@@IBE?AU?$_Tree_find_result@PAU?$_Tree_node@U?$pair@$$CBHPAVCMapServerData@@@std@@PAX@std@@@1@ABH@Z 00443070 f i MapServerManager.obj
 0001:00042070       ??$_Find_lower_bound@H@?$_Tree@V?$_Tmap_traits@HUITEM_OPTION5_RATE_INFO@@U?$less@H@std@@V?$allocator@U?$pair@$$CBHUITEM_OPTION5_RATE_INFO@@@std@@@3@$0A@@std@@@std@@IBE?AU?$_Tree_find_result@PAU?$_Tree_node@U?$pair@$$CBHUITEM_OPTION5_RATE_INFO@@@std@@PAX@std@@@1@ABH@Z 00443070 f i ItemOptionRate.obj
 0001:00042070       ??$_Find_lower_bound@H@?$_Tree@V?$_Tmap_traits@HUSHOP_MANAGER_INFO@@U?$less@H@std@@V?$allocator@U?$pair@$$CBHUSHOP_MANAGER_INFO@@@std@@@3@$0A@@std@@@std@@IBE?AU?$_Tree_find_result@PAU?$_Tree_node@U?$pair@$$CBHUSHOP_MANAGER_INFO@@@std@@PAX@std@@@1@ABH@Z 00443070 f i ShopManager.obj
 0001:00042070       ??$_Find_lower_bound@H@?$_Tree@V?$_Tmap_traits@HUQUEUE_TIMER_INFO@@U?$less@H@std@@V?$allocator@U?$pair@$$CBHUQUEUE_TIMER_INFO@@@std@@@3@$0A@@std@@@std@@IBE?AU?$_Tree_find_result@PAU?$_Tree_node@U?$pair@$$CBHUQUEUE_TIMER_INFO@@@std@@PAX@std@@@1@ABH@Z 00443070 f i QueueTimer.obj
 0001:00042070       ??$_Find_lower_bound@H@?$_Tree@V?$_Tmap_traits@HUITEM_OPTION4_RATE_INFO@@U?$less@H@std@@V?$allocator@U?$pair@$$CBHUITEM_OPTION4_RATE_INFO@@@std@@@3@$0A@@std@@@std@@IBE?AU?$_Tree_find_result@PAU?$_Tree_node@U?$pair@$$CBHUITEM_OPTION4_RATE_INFO@@@std@@PAX@std@@@1@ABH@Z 00443070 f i ItemOptionRate.obj
 0001:00042070       ??$_Find_lower_bound@H@?$_Tree@V?$_Tmap_traits@HV?$vector@UITEM_OPTION_INFO@@V?$allocator@UITEM_OPTION_INFO@@@std@@@std@@U?$less@H@2@V?$allocator@U?$pair@$$CBHV?$vector@UITEM_OPTION_INFO@@V?$allocator@UITEM_OPTION_INFO@@@std@@@std@@@std@@@2@$0A@@std@@@std@@IBE?AU?$_Tree_find_result@PAU?$_Tree_node@U?$pair@$$CBHV?$vector@UITEM_OPTION_INFO@@V?$allocator@UITEM_OPTION_INFO@@@std@@@std@@@std@@PAX@std@@@1@ABH@Z 00443070 f i ItemOption.obj
 0001:00042070       ??$_Find_lower_bound@H@?$_Tree@V?$_Tmap_traits@HUITEM_MOVE_INFO@@U?$less@H@std@@V?$allocator@U?$pair@$$CBHUITEM_MOVE_INFO@@@std@@@3@$0A@@std@@@std@@IBE?AU?$_Tree_find_result@PAU?$_Tree_node@U?$pair@$$CBHUITEM_MOVE_INFO@@@std@@PAX@std@@@1@ABH@Z 00443070 f i ItemMove.obj
 0001:00042070       ??$_Find_lower_bound@H@?$_Tree@V?$_Tmap_traits@HUITEM_OPTION2_RATE_INFO@@U?$less@H@std@@V?$allocator@U?$pair@$$CBHUITEM_OPTION2_RATE_INFO@@@std@@@3@$0A@@std@@@std@@IBE?AU?$_Tree_find_result@PAU?$_Tree_node@U?$pair@$$CBHUITEM_OPTION2_RATE_INFO@@@std@@PAX@std@@@1@ABH@Z 00443070 f i ItemOptionRate.obj
 0001:00042070       ??$_Find_lower_bound@H@?$_Tree@V?$_Tmap_traits@HUSOCKET_ITEM_TYPE_INFO@@U?$less@H@std@@V?$allocator@U?$pair@$$CBHUSOCKET_ITEM_TYPE_INFO@@@std@@@3@$0A@@std@@@std@@IBE?AU?$_Tree_find_result@PAU?$_Tree_node@U?$pair@$$CBHUSOCKET_ITEM_TYPE_INFO@@@std@@PAX@std@@@1@ABH@Z 00443070 f i SocketItemType.obj
 0001:00042070       ??$_Find_lower_bound@H@?$_Tree@V?$_Tmap_traits@HUITEM_OPTION0_RATE_INFO@@U?$less@H@std@@V?$allocator@U?$pair@$$CBHUITEM_OPTION0_RATE_INFO@@@std@@@3@$0A@@std@@@std@@IBE?AU?$_Tree_find_result@PAU?$_Tree_node@U?$pair@$$CBHUITEM_OPTION0_RATE_INFO@@@std@@PAX@std@@@1@ABH@Z 00443070 f i ItemOptionRate.obj
 0001:00042070       ??$_Find_lower_bound@H@?$_Tree@V?$_Tmap_traits@HPAUGUILD_INFO_STRUCT@@U?$less@H@std@@V?$allocator@U?$pair@$$CBHPAUGUILD_INFO_STRUCT@@@std@@@3@$0A@@std@@@std@@IBE?AU?$_Tree_find_result@PAU?$_Tree_node@U?$pair@$$CBHPAUGUILD_INFO_STRUCT@@@std@@PAX@std@@@1@ABH@Z 00443070 f i GuildClass.obj
 0001:00042070       ??$_Find_lower_bound@H@?$_Tree@V?$_Tmap_traits@HUMOVE_INFO@@U?$less@H@std@@V?$allocator@U?$pair@$$CBHUMOVE_INFO@@@std@@@3@$0A@@std@@@std@@IBE?AU?$_Tree_find_result@PAU?$_Tree_node@U?$pair@$$CBHUMOVE_INFO@@@std@@PAX@std@@@1@ABH@Z 00443070 f i Move.obj
 0001:00042070       ??$_Find_lower_bound@H@?$_Tree@V?$_Tmap_traits@HUMAP_MANAGER_INFO@@U?$less@H@std@@V?$allocator@U?$pair@$$CBHUMAP_MANAGER_INFO@@@std@@@3@$0A@@std@@@std@@IBE?AU?$_Tree_find_result@PAU?$_Tree_node@U?$pair@$$CBHUMAP_MANAGER_INFO@@@std@@PAX@std@@@1@ABH@Z 00443070 f i MapManager.obj
 0001:00042070       ??$_Find_lower_bound@H@?$_Tree@V?$_Tmap_traits@HUITEM_OPTION1_RATE_INFO@@U?$less@H@std@@V?$allocator@U?$pair@$$CBHUITEM_OPTION1_RATE_INFO@@@std@@@3@$0A@@std@@@std@@IBE?AU?$_Tree_find_result@PAU?$_Tree_node@U?$pair@$$CBHUITEM_OPTION1_RATE_INFO@@@std@@PAX@std@@@1@ABH@Z 00443070 f i ItemOptionRate.obj
 0001:00042070       ??$_Find_lower_bound@H@?$_Tree@V?$_Tmap_traits@HUITEM_INFO@@U?$less@H@std@@V?$allocator@U?$pair@$$CBHUITEM_INFO@@@std@@@3@$0A@@std@@@std@@IBE?AU?$_Tree_find_result@PAU?$_Tree_node@U?$pair@$$CBHUITEM_INFO@@@std@@PAX@std@@@1@ABH@Z 00443070 f i ItemManager.obj
 0001:00042070       ??$_Find_lower_bound@H@?$_Tree@V?$_Tmap_traits@HUQUEST_DATA@@U?$less@H@std@@V?$allocator@U?$pair@$$CBHUQUEST_DATA@@@std@@@3@$0A@@std@@@std@@IBE?AU?$_Tree_find_result@PAU?$_Tree_node@U?$pair@$$CBHUQUEST_DATA@@@std@@PAX@std@@@1@ABH@Z 00443070 f i CommandManager.obj
 0001:00042070       ??$_Find_lower_bound@H@?$_Tree@V?$_Tmap_traits@H_NU?$less@H@std@@V?$allocator@U?$pair@$$CBH_N@std@@@2@$0A@@std@@@std@@IBE?AU?$_Tree_find_result@PAU?$_Tree_node@U?$pair@$$CBH_N@std@@PAX@std@@@1@ABH@Z 00443070 f i Protection.obj
 0001:00042070       ??$_Find_lower_bound@H@?$_Tree@V?$_Tmap_traits@HUITEM_OPTION3_RATE_INFO@@U?$less@H@std@@V?$allocator@U?$pair@$$CBHUITEM_OPTION3_RATE_INFO@@@std@@@3@$0A@@std@@@std@@IBE?AU?$_Tree_find_result@PAU?$_Tree_node@U?$pair@$$CBHUITEM_OPTION3_RATE_INFO@@@std@@PAX@std@@@1@ABH@Z 00443070 f i ItemOptionRate.obj
 0001:00042070       ??$_Find_lower_bound@H@?$_Tree@V?$_Tmap_traits@HUITEM_OPTION6_RATE_INFO@@U?$less@H@std@@V?$allocator@U?$pair@$$CBHUITEM_OPTION6_RATE_INFO@@@std@@@3@$0A@@std@@@std@@IBE?AU?$_Tree_find_result@PAU?$_Tree_node@U?$pair@$$CBHUITEM_OPTION6_RATE_INFO@@@std@@PAX@std@@@1@ABH@Z 00443070 f i ItemOptionRate.obj
 0001:00042070       ??$_Find_lower_bound@H@?$_Tree@V?$_Tmap_traits@HUCOSTUME_LIST@@U?$less@H@std@@V?$allocator@U?$pair@$$CBHUCOSTUME_LIST@@@std@@@3@$0A@@std@@@std@@IBE?AU?$_Tree_find_result@PAU?$_Tree_node@U?$pair@$$CBHUCOSTUME_LIST@@@std@@PAX@std@@@1@ABH@Z 00443070 f i CostumeSystem.obj
 0001:000420c0       ??_D?$basic_stringstream@DU?$char_traits@D@std@@V?$allocator@D@2@@std@@QAEXXZ 004430c0 f i computerHash.obj
 0001:00042190       ?machineHash@cComputerHash@@SA?AV?$basic_string@DU?$char_traits@D@std@@V?$allocator@D@2@@std@@XZ 00443190 f   computerHash.obj
 0001:00042530       ?seekpos@?$basic_stringbuf@DU?$char_traits@D@std@@V?$allocator@D@2@@std@@MAE?AV?$fpos@U_Mbstatet@@@2@V32@H@Z 00443530 f i computerHash.obj
 0001:00042640       ?seekoff@?$basic_stringbuf@DU?$char_traits@D@std@@V?$allocator@D@2@@std@@MAE?AV?$fpos@U_Mbstatet@@@2@_JHH@Z 00443640 f i computerHash.obj
 0001:000427d0       ?underflow@?$basic_stringbuf@DU?$char_traits@D@std@@V?$allocator@D@2@@std@@MAEHXZ 004437d0 f i computerHash.obj
 0001:00042830       ?pbackfail@?$basic_stringbuf@DU?$char_traits@D@std@@V?$allocator@D@2@@std@@MAEHH@Z 00443830 f i computerHash.obj
 0001:00042890       ?overflow@?$basic_stringbuf@DU?$char_traits@D@std@@V?$allocator@D@2@@std@@MAEHH@Z 00443890 f i computerHash.obj
 0001:00042a60       ??1?$basic_stringbuf@DU?$char_traits@D@std@@V?$allocator@D@2@@std@@UAE@XZ 00443a60 f i computerHash.obj
 0001:00042b30       ?imbue@?$basic_streambuf@DU?$char_traits@D@std@@@std@@MAEXABVlocale@2@@Z 00443b30 f i computerHash.obj
 0001:00042b40       __get_startup_thread_locale_mode 00443b40 f i LIBCMT:thread_locale.obj
 0001:00042b40       ___scrt_exe_initialize_mta 00443b40 f i LIBCMT:utility_desktop.obj
 0001:00042b40       __get_startup_new_mode     00443b40 f i LIBCMT:new_mode.obj
 0001:00042b40       ___scrt_initialize_winrt   00443b40 f i LIBCMT:utility_desktop.obj
 0001:00042b40       __get_startup_commit_mode  00443b40 f i LIBCMT:commit_mode.obj
 0001:00042b40       ___scrt_stub_for_initialize_mta 00443b40 f i LIBCMT:utility_desktop.obj
 0001:00042b40       ?sync@?$basic_streambuf@DU?$char_traits@D@std@@@std@@MAEHXZ 00443b40 f i computerHash.obj
 0001:00042b40       __matherr                  00443b40 f i LIBCMT:matherr.obj
 0001:00042b50       ?setbuf@?$basic_streambuf@DU?$char_traits@D@std@@@std@@MAEPAV12@PAD_J@Z 00443b50 f i computerHash.obj
 0001:00042b60       ?seekpos@?$basic_streambuf@DU?$char_traits@D@std@@@std@@MAE?AV?$fpos@U_Mbstatet@@@2@V32@H@Z 00443b60 f i computerHash.obj
 0001:00042b90       ?seekoff@?$basic_streambuf@DU?$char_traits@D@std@@@std@@MAE?AV?$fpos@U_Mbstatet@@@2@_JHH@Z 00443b90 f i computerHash.obj
 0001:00042bc0       ?xsputn@?$basic_streambuf@DU?$char_traits@D@std@@@std@@MAE_JPBD_J@Z 00443bc0 f i computerHash.obj
 0001:00042ca0       ?xsgetn@?$basic_streambuf@DU?$char_traits@D@std@@@std@@MAE_JPAD_J@Z 00443ca0 f i computerHash.obj
 0001:00042d80       ?uflow@?$basic_streambuf@DU?$char_traits@D@std@@@std@@MAEHXZ 00443d80 f i computerHash.obj
 0001:00042db0       ?underflow@?$basic_streambuf@DU?$char_traits@D@std@@@std@@MAEHXZ 00443db0 f i computerHash.obj
 0001:00042dc0       ?showmanyc@?$basic_streambuf@DU?$char_traits@D@std@@@std@@MAE_JXZ 00443dc0 f i computerHash.obj
 0001:00042dd0       ?overflow@?$basic_streambuf@DU?$char_traits@D@std@@@std@@MAEHH@Z 00443dd0 f i computerHash.obj
 0001:00042dd0       ?pbackfail@?$basic_streambuf@DU?$char_traits@D@std@@@std@@MAEHH@Z 00443dd0 f i computerHash.obj
 0001:00042de0       ?_Lock@?$basic_streambuf@DU?$char_traits@D@std@@@std@@UAEXXZ 00443de0 f i computerHash.obj
 0001:00042de0       __initialize_invalid_parameter_handler 00443de0 f i LIBCMT:invalid_parameter_handler.obj
 0001:00042de0       ?_Unlock@?$basic_streambuf@DU?$char_traits@D@std@@@std@@UAEXXZ 00443de0 f i computerHash.obj
 0001:00042de0       @_guard_check_icall_nop@4  00443de0 f i LIBCMT:guard_support.obj
 0001:00042de0       __initialize_denormal_control 00443de0 f i LIBCMT:denormal_control.obj
 0001:00042df0       ??1?$basic_streambuf@DU?$char_traits@D@std@@@std@@UAE@XZ 00443df0 f i computerHash.obj
 0001:00042e30       ?str@?$basic_stringstream@DU?$char_traits@D@std@@V?$allocator@D@2@@std@@QBE?AV?$basic_string@DU?$char_traits@D@std@@V?$allocator@D@2@@2@XZ 00443e30 f i computerHash.obj
 0001:00042f10       ??0?$basic_stringstream@DU?$char_traits@D@std@@V?$allocator@D@2@@std@@QAE@XZ 00443f10 f i computerHash.obj
 0001:00042ff0       ??1?$basic_iostream@DU?$char_traits@D@std@@@std@@UAE@XZ 00443ff0 f i computerHash.obj
 0001:00043050       ??6?$basic_ostream@DU?$char_traits@D@std@@@std@@QAEAAV01@K@Z 00444050 f i computerHash.obj
 0001:00043230       ??6?$basic_ostream@DU?$char_traits@D@std@@@std@@QAEAAV01@G@Z 00444230 f i computerHash.obj
 0001:00043420       ??1?$basic_ostream@DU?$char_traits@D@std@@@std@@UAE@XZ 00444420 f i computerHash.obj
 0001:00043440       ??1?$basic_istream@DU?$char_traits@D@std@@@std@@UAE@XZ 00444440 f i computerHash.obj
 0001:00043460       ??1?$basic_ios@DU?$char_traits@D@std@@@std@@UAE@XZ 00444460 f i computerHash.obj
 0001:000434b0       ??_E?$basic_stringbuf@DU?$char_traits@D@std@@V?$allocator@D@2@@std@@UAEPAXI@Z 004444b0 f i * CIL library *:* CIL module *
 0001:000434b0       ??_G?$basic_stringbuf@DU?$char_traits@D@std@@V?$allocator@D@2@@std@@UAEPAXI@Z 004444b0 f i computerHash.obj
 0001:000434e0       ??_E?$basic_streambuf@DU?$char_traits@D@std@@@std@@UAEPAXI@Z 004444e0 f i * CIL library *:* CIL module *
 0001:000434e0       ??_G?$basic_streambuf@DU?$char_traits@D@std@@@std@@UAEPAXI@Z 004444e0 f i computerHash.obj
 0001:00043530       ??_E?$basic_stringstream@DU?$char_traits@D@std@@V?$allocator@D@2@@std@@UAEPAXI@Z 00444530 f i * CIL library *:* CIL module *
 0001:00043530       ??_G?$basic_stringstream@DU?$char_traits@D@std@@V?$allocator@D@2@@std@@UAEPAXI@Z 00444530 f i computerHash.obj
 0001:00043560       ??_G?$basic_iostream@DU?$char_traits@D@std@@@std@@UAEPAXI@Z 00444560 f i computerHash.obj
 0001:00043560       ??_E?$basic_iostream@DU?$char_traits@D@std@@@std@@UAEPAXI@Z 00444560 f i * CIL library *:* CIL module *
 0001:00043620       ??_E?$basic_ostream@DU?$char_traits@D@std@@@std@@UAEPAXI@Z 00444620 f i * CIL library *:* CIL module *
 0001:00043620       ??_G?$basic_ostream@DU?$char_traits@D@std@@@std@@UAEPAXI@Z 00444620 f i computerHash.obj
 0001:000436a0       ??_E?$basic_istream@DU?$char_traits@D@std@@@std@@UAEPAXI@Z 004446a0 f i * CIL library *:* CIL module *
 0001:000436a0       ??_G?$basic_istream@DU?$char_traits@D@std@@@std@@UAEPAXI@Z 004446a0 f i computerHash.obj
 0001:00043720       ??_G?$basic_ios@DU?$char_traits@D@std@@@std@@UAEPAXI@Z 00444720 f i computerHash.obj
 0001:00043720       ??_E?$basic_ios@DU?$char_traits@D@std@@@std@@UAEPAXI@Z 00444720 f i * CIL library *:* CIL module *
 0001:00043790       ?do_put@?$num_put@DV?$ostreambuf_iterator@DU?$char_traits@D@std@@@std@@@std@@MBE?AV?$ostreambuf_iterator@DU?$char_traits@D@std@@@2@V32@AAVios_base@2@DPBX@Z 00444790 f i computerHash.obj
 0001:00043800       ?do_put@?$num_put@DV?$ostreambuf_iterator@DU?$char_traits@D@std@@@std@@@std@@MBE?AV?$ostreambuf_iterator@DU?$char_traits@D@std@@@2@V32@AAVios_base@2@DO@Z 00444800 f i computerHash.obj
 0001:000439c0       ?do_put@?$num_put@DV?$ostreambuf_iterator@DU?$char_traits@D@std@@@std@@@std@@MBE?AV?$ostreambuf_iterator@DU?$char_traits@D@std@@@2@V32@AAVios_base@2@DN@Z 004449c0 f i computerHash.obj
 0001:00043b80       ?do_put@?$num_put@DV?$ostreambuf_iterator@DU?$char_traits@D@std@@@std@@@std@@MBE?AV?$ostreambuf_iterator@DU?$char_traits@D@std@@@2@V32@AAVios_base@2@D_K@Z 00444b80 f i computerHash.obj
 0001:00043c00       ?do_put@?$num_put@DV?$ostreambuf_iterator@DU?$char_traits@D@std@@@std@@@std@@MBE?AV?$ostreambuf_iterator@DU?$char_traits@D@std@@@2@V32@AAVios_base@2@D_J@Z 00444c00 f i computerHash.obj
 0001:00043c80       ?do_put@?$num_put@DV?$ostreambuf_iterator@DU?$char_traits@D@std@@@std@@@std@@MBE?AV?$ostreambuf_iterator@DU?$char_traits@D@std@@@2@V32@AAVios_base@2@DK@Z 00444c80 f i computerHash.obj
 0001:00043d00       ?do_put@?$num_put@DV?$ostreambuf_iterator@DU?$char_traits@D@std@@@std@@@std@@MBE?AV?$ostreambuf_iterator@DU?$char_traits@D@std@@@2@V32@AAVios_base@2@DJ@Z 00444d00 f i computerHash.obj
 0001:00043d80       ?do_put@?$num_put@DV?$ostreambuf_iterator@DU?$char_traits@D@std@@@std@@@std@@MBE?AV?$ostreambuf_iterator@DU?$char_traits@D@std@@@2@V32@AAVios_base@2@D_N@Z 00444d80 f i computerHash.obj
 0001:00043f90       ??1sentry@?$basic_ostream@DU?$char_traits@D@std@@@std@@QAE@XZ 00444f90 f i computerHash.obj
 0001:00044000       ??0sentry@?$basic_ostream@DU?$char_traits@D@std@@@std@@QAE@AAV12@@Z 00445000 f i computerHash.obj
 0001:000440a0       ?_Pnavail@?$basic_streambuf@DU?$char_traits@D@std@@@std@@IBE_JXZ 004450a0 f i computerHash.obj
 0001:000440c0       ?_Gnavail@?$basic_streambuf@DU?$char_traits@D@std@@@std@@IBE_JXZ 004450c0 f i computerHash.obj
 0001:000440e0       ??0?$basic_iostream@DU?$char_traits@D@std@@@std@@QAE@PAV?$basic_streambuf@DU?$char_traits@D@std@@@1@@Z 004450e0 f i computerHash.obj
 0001:00044190       ??_E?$codecvt@DDU_Mbstatet@@@std@@MAEPAXI@Z 00445190 f i * CIL library *:* CIL module *
 0001:00044190       ??_E?$num_put@DV?$ostreambuf_iterator@DU?$char_traits@D@std@@@std@@@std@@MAEPAXI@Z 00445190 f i * CIL library *:* CIL module *
 0001:00044190       ??_G?$codecvt@DDU_Mbstatet@@@std@@MAEPAXI@Z 00445190 f i MMOTOP.obj
 0001:00044190       ??_G?$num_put@DV?$ostreambuf_iterator@DU?$char_traits@D@std@@@std@@@std@@MAEPAXI@Z 00445190 f i computerHash.obj
 0001:000441c0       ?do_truename@?$numpunct@D@std@@MBE?AV?$basic_string@DU?$char_traits@D@std@@V?$allocator@D@2@@2@XZ 004451c0 f i computerHash.obj
 0001:00044210       ?do_falsename@?$numpunct@D@std@@MBE?AV?$basic_string@DU?$char_traits@D@std@@V?$allocator@D@2@@2@XZ 00445210 f i computerHash.obj
 0001:00044260       ?do_grouping@?$numpunct@D@std@@MBE?AV?$basic_string@DU?$char_traits@D@std@@V?$allocator@D@2@@2@XZ 00445260 f i computerHash.obj
 0001:000442b0       ?do_thousands_sep@?$numpunct@D@std@@MBEDXZ 004452b0 f i computerHash.obj
 0001:000442c0       ?do_decimal_point@?$numpunct@D@std@@MBEDXZ 004452c0 f i computerHash.obj
 0001:000442d0       ?_Rep@?$num_put@DV?$ostreambuf_iterator@DU?$char_traits@D@std@@@std@@@std@@ABA?AV?$ostreambuf_iterator@DU?$char_traits@D@std@@@2@V32@DI@Z 004452d0 f i computerHash.obj
 0001:00044340       ?_Put@?$num_put@DV?$ostreambuf_iterator@DU?$char_traits@D@std@@@std@@@std@@ABA?AV?$ostreambuf_iterator@DU?$char_traits@D@std@@@2@V32@PBDI@Z 00445340 f i computerHash.obj
 0001:000443c0       ?_Iput@?$num_put@DV?$ostreambuf_iterator@DU?$char_traits@D@std@@@std@@@std@@ABA?AV?$ostreambuf_iterator@DU?$char_traits@D@std@@@2@V32@AAVios_base@2@DPADI@Z 004453c0 f i computerHash.obj
 0001:000447c0       ?_Ifmt@?$num_put@DV?$ostreambuf_iterator@DU?$char_traits@D@std@@@std@@@std@@ABAPADPADPBDH@Z 004457c0 f i computerHash.obj
 0001:00044850       ?_Fput@?$num_put@DV?$ostreambuf_iterator@DU?$char_traits@D@std@@@std@@@std@@ABA?AV?$ostreambuf_iterator@DU?$char_traits@D@std@@@2@V32@AAVios_base@2@DPBDI@Z 00445850 f i computerHash.obj
 0001:00044cb0       ?_Ffmt@?$num_put@DV?$ostreambuf_iterator@DU?$char_traits@D@std@@@std@@@std@@ABAPADPADDH@Z 00445cb0 f i computerHash.obj
 0001:00044d70       ??1_Sentry_base@?$basic_ostream@DU?$char_traits@D@std@@@std@@QAE@XZ 00445d70 f i computerHash.obj
 0001:00044d70       ??1_Sentry_base@?$basic_istream@DU?$char_traits@D@std@@@std@@QAE@XZ 00445d70 f i MMOTOP.obj
 0001:00044dc0       ??0?$basic_streambuf@DU?$char_traits@D@std@@@std@@IAE@XZ 00445dc0 f i computerHash.obj
 0001:00044e90       ?flush@?$basic_ostream@DU?$char_traits@D@std@@@std@@QAEAAV12@XZ 00445e90 f i computerHash.obj
 0001:00044f50       ?_Osfx@?$basic_ostream@DU?$char_traits@D@std@@@std@@QAEXXZ 00445f50 f i computerHash.obj
 0001:00044fe0       ??_G?$numpunct@D@std@@MAEPAXI@Z 00445fe0 f i computerHash.obj
 0001:00044fe0       ??_E?$numpunct@D@std@@MAEPAXI@Z 00445fe0 f i * CIL library *:* CIL module *
 0001:00045030       ?init@?$basic_ios@DU?$char_traits@D@std@@@std@@IAEXPAV?$basic_streambuf@DU?$char_traits@D@std@@@2@_N@Z 00446030 f i computerHash.obj
 0001:00045150       ??$?6U?$char_traits@D@std@@@std@@YAAAV?$basic_ostream@DU?$char_traits@D@std@@@0@AAV10@D@Z 00446150 f i computerHash.obj
 0001:00045430       ??$?6U?$char_traits@D@std@@@std@@YAAAV?$basic_ostream@DU?$char_traits@D@std@@@0@AAV10@PBD@Z 00446430 f i computerHash.obj
 0001:000456e0       ??$use_facet@V?$num_put@DV?$ostreambuf_iterator@DU?$char_traits@D@std@@@std@@@std@@@std@@YAABV?$num_put@DV?$ostreambuf_iterator@DU?$char_traits@D@std@@@std@@@0@ABVlocale@0@@Z 004466e0 f i computerHash.obj
 0001:00045820       ??$use_facet@V?$numpunct@D@std@@@std@@YAABV?$numpunct@D@0@ABVlocale@0@@Z 00446820 f i computerHash.obj
 0001:00045a40       ??$_Reallocate_grow_by@V<lambda_6607a66f2a10a1261ff9db96cba1015b>@@IID@?$basic_string@DU?$char_traits@D@std@@V?$allocator@D@2@@std@@AAEAAV01@IV<lambda_6607a66f2a10a1261ff9db96cba1015b>@@IID@Z 00446a40 f i computerHash.obj
 0001:00045bc0       ?sputn@?$basic_streambuf@DU?$char_traits@D@std@@@std@@QAE_JPBD_J@Z 00446bc0 f i computerHash.obj
 0001:00045be0       ??0?$basic_string@DU?$char_traits@D@std@@V?$allocator@D@2@@std@@QAE@U_String_constructor_concat_tag@1@ABV01@QBDI2I@Z 00446be0 f i computerHash.obj
 0001:00045cd0       ??1?$_Tidy_guard@V?$numpunct@D@std@@@std@@QAE@XZ 00446cd0 f i computerHash.obj
 0001:00045cf4       ??_E?$basic_ostream@DU?$char_traits@D@std@@@std@@$4PPPPPPPM@A@AEPAXI@Z 00446cf4 f i computerHash.obj
 0001:00045cfc       ??_E?$basic_stringstream@DU?$char_traits@D@std@@V?$allocator@D@2@@std@@$4PPPPPPPM@A@AEPAXI@Z 00446cfc f i computerHash.obj
 0001:00045d04       ??_E?$basic_istream@DU?$char_traits@D@std@@@std@@$4PPPPPPPM@A@AEPAXI@Z 00446d04 f i computerHash.obj
 0001:00045d0c       ??_E?$basic_iostream@DU?$char_traits@D@std@@@std@@$4PPPPPPPM@A@AEPAXI@Z 00446d0c f i computerHash.obj
 0001:00045d20       ??0exception@std@@QAE@QBD@Z 00446d20 f i computerHash.obj
 0001:00045d60       ??0_System_error@std@@IAE@Verror_code@1@ABV?$basic_string@DU?$char_traits@D@std@@V?$allocator@D@2@@1@@Z 00446d60 f i computerHash.obj
 0001:00045f30       ??0failure@ios_base@std@@QAE@PBDABVerror_code@2@@Z 00446f30 f i computerHash.obj
 0001:00046020       ??_G_Generic_error_category@std@@UAEPAXI@Z 00447020 f i MonsterManager.obj
 0001:00046020       ??_G_Iostream_error_category2@std@@UAEPAXI@Z 00447020 f i computerHash.obj
 0001:00046020       ??_E_Iostream_error_category2@std@@UAEPAXI@Z 00447020 f i * CIL library *:* CIL module *
 0001:00046020       ??_E_Generic_error_category@std@@UAEPAXI@Z 00447020 f i * CIL library *:* CIL module *
 0001:00046020       ??_E_System_error_category@std@@UAEPAXI@Z 00447020 f i * CIL library *:* CIL module *
 0001:00046020       ??_G_System_error_category@std@@UAEPAXI@Z 00447020 f i MonsterManager.obj
 0001:00046040       ?name@_Iostream_error_category2@std@@UBEPBDXZ 00447040 f i computerHash.obj
 0001:00046050       ?message@_Iostream_error_category2@std@@UBE?AV?$basic_string@DU?$char_traits@D@std@@V?$allocator@D@2@@2@H@Z 00447050 f i computerHash.obj
 0001:000460d0       ?equivalent@error_category@std@@UBE_NABVerror_code@2@H@Z 004470d0 f i computerHash.obj
 0001:00046100       ?default_error_condition@error_category@std@@UBE?AVerror_condition@2@H@Z 00447100 f i computerHash.obj
 0001:00046120       ?equivalent@error_category@std@@UBE_NHABVerror_condition@2@@Z 00447120 f i computerHash.obj
 0001:00046160       ?make_error_code@std@@YA?AVerror_code@1@W4io_errc@1@@Z 00447160 f i computerHash.obj
 0001:00046170       ??_Esystem_error@std@@UAEPAXI@Z 00447170 f i * CIL library *:* CIL module *
 0001:00046170       ??_Gsystem_error@std@@UAEPAXI@Z 00447170 f i computerHash.obj
 0001:00046170       ??_Efailure@ios_base@std@@UAEPAXI@Z 00447170 f i * CIL library *:* CIL module *
 0001:00046170       ??_Gfailure@ios_base@std@@UAEPAXI@Z 00447170 f i computerHash.obj
 0001:00046170       ??_G_System_error@std@@UAEPAXI@Z 00447170 f i computerHash.obj
 0001:00046170       ??_E_System_error@std@@UAEPAXI@Z 00447170 f i * CIL library *:* CIL module *
 0001:000461a0       ??0failure@ios_base@std@@QAE@ABV012@@Z 004471a0 f i computerHash.obj
 0001:000461f0       ??0system_error@std@@QAE@ABV01@@Z 004471f0 f i computerHash.obj
 0001:00046240       ??0_System_error@std@@QAE@ABV01@@Z 00447240 f i computerHash.obj
 0001:00046290       ??0runtime_error@std@@QAE@ABV01@@Z 00447290 f i computerHash.obj
 0001:000462d0       ?clear@ios_base@std@@QAEXH_N@Z 004472d0 f i computerHash.obj
 0001:00046340       ?assign@?$basic_string@DU?$char_traits@D@std@@V?$allocator@D@2@@std@@QAEAAV12@ID@Z 00447340 f i computerHash.obj
 0001:00046470       ??_E?$ctype@D@std@@MAEPAXI@Z 00447470 f i * CIL library *:* CIL module *
 0001:00046470       ??_G?$ctype@D@std@@MAEPAXI@Z 00447470 f i computerHash.obj
 0001:000464d0       ?do_tolower@?$ctype@D@std@@MBEPBDPADPBD@Z 004474d0 f i computerHash.obj
 0001:00046500       ?do_tolower@?$ctype@D@std@@MBEDD@Z 00447500 f i computerHash.obj
 0001:00046520       ?do_toupper@?$ctype@D@std@@MBEPBDPADPBD@Z 00447520 f i computerHash.obj
 0001:00046550       ?do_toupper@?$ctype@D@std@@MBEDD@Z 00447550 f i computerHash.obj
 0001:00046570       ?do_widen@?$ctype@D@std@@MBEPBDPBD0PAD@Z 00447570 f i computerHash.obj
 0001:00046590       ?do_widen@?$ctype@D@std@@MBEDD@Z 00447590 f i computerHash.obj
 0001:000465a0       ?do_narrow@?$ctype@D@std@@MBEPBDPBD0DPAD@Z 004475a0 f i computerHash.obj
 0001:000465c0       ?do_narrow@?$ctype@D@std@@MBEDDD@Z 004475c0 f i computerHash.obj
 0001:000465d0       ??0_Locinfo@std@@QAE@PBD@Z 004475d0 f i computerHash.obj
 0001:00046680       ??1?$_Yarn@_W@std@@QAE@XZ  00447680 f i computerHash.obj
 0001:00046680       ??1?$_Yarn@D@std@@QAE@XZ   00447680 f i computerHash.obj
 0001:000466a0       ??1_Locinfo@std@@QAE@XZ    004476a0 f i computerHash.obj
 0001:00046780       ??1?$unique_ptr@V_Facet_base@std@@U?$default_delete@V_Facet_base@std@@@2@@std@@QAE@XZ 00447780 f i computerHash.obj
 0001:00046790       ??$use_facet@V?$ctype@D@std@@@std@@YAABV?$ctype@D@0@ABVlocale@0@@Z 00447790 f i computerHash.obj
 0001:00046900       ??1facet@locale@std@@MAE@XZ 00447900 f i computerHash.obj
 0001:00046910       ??$_Reallocate_grow_by@V<lambda_c1b8c41cb4019640539cfd828748c4d4>@@ID@?$basic_string@DU?$char_traits@D@std@@V?$allocator@D@2@@std@@AAEAAV01@IV<lambda_c1b8c41cb4019640539cfd828748c4d4>@@ID@Z 00447910 f i computerHash.obj
 0001:00046a70       ?resize@?$basic_string@DU?$char_traits@D@std@@V?$allocator@D@2@@std@@QAEXID@Z 00447a70 f i computerHash.obj
 0001:00046af0       _sprintf_s                 00447af0 f i computerHash.obj
 0001:00046b10       ??_Eios_base@std@@UAEPAXI@Z 00447b10 f i * CIL library *:* CIL module *
 0001:00046b10       ??_Gios_base@std@@UAEPAXI@Z 00447b10 f i computerHash.obj
 0001:00046b80       ?_Incref@facet@locale@std@@UAEXXZ 00447b80 f i computerHash.obj
 0001:00046b90       ?_Decref@facet@locale@std@@UAEPAV_Facet_base@3@XZ 00447b90 f i computerHash.obj
 0001:00046bb0       ??_E_Facet_base@std@@UAEPAXI@Z 00447bb0 f i * CIL library *:* CIL module *
 0001:00046bb0       ??_G_Facet_base@std@@UAEPAXI@Z 00447bb0 f i computerHash.obj
 0001:00046be0       ??1locale@std@@QAE@XZ      00447be0 f i computerHash.obj
 0001:00046c00       ??_GCConnection@@UAEPAXI@Z 00447c00 f i Connection.obj
 0001:00046c00       ??_ECConnection@@UAEPAXI@Z 00447c00 f i * CIL library *:* CIL module *
 0001:00046c60       ?Connect@CConnection@@QAE_NPADGK@Z 00447c60 f   Connection.obj
 0001:00046da0       ?DataRecv@CConnection@@QAE_NXZ 00447da0 f   Connection.obj
 0001:00046f00       ?DataSend@CConnection@@QAE_NPAEH@Z 00447f00 f   Connection.obj
 0001:00047040       ?DataSendEx@CConnection@@QAE_NXZ 00448040 f   Connection.obj
 0001:00047130       ??_ECCostumeSystem@@UAEPAXI@Z 00448130 f i * CIL library *:* CIL module *
 0001:00047130       ??_GCCostumeSystem@@UAEPAXI@Z 00448130 f i CostumeSystem.obj
 0001:00047160       ?UnHandledExceptionFilter@CrashReporter@@CGJPAU_EXCEPTION_POINTERS@@@Z 00448160 f   crash-report.obj
 0001:000472b0       ??$_snwprintf_s@$0BAE@@@YAHAAY0BAE@_WIPB_WZZ 004482b0 f i crash-report.obj
 0001:000472f0       ??_ECCriticalSection@@UAEPAXI@Z 004482f0 f i * CIL library *:* CIL module *
 0001:000472f0       ??_GCCriticalSection@@UAEPAXI@Z 004482f0 f i CriticalSection.obj
 0001:00047320       ??1CCriticalSection@@UAE@XZ 00448320 f   CriticalSection.obj
 0001:00047340       ??_ECCrywolf@@UAEPAXI@Z    00448340 f i * CIL library *:* CIL module *
 0001:00047340       ??_GCCrywolf@@UAEPAXI@Z    00448340 f i Crywolf.obj
 0001:000473c0       ?DelAllData@CCrywolf@@QAEXXZ 004483c0 f   Crywolf.obj
 0001:000475a0       ?Load@CCrywolf@@QAEXPAD@Z  004485a0 f   Crywolf.obj
 0001:00047c20       ?MainProc@CCrywolf@@QAEXXZ 00448c20 f   Crywolf.obj
 0001:00047ed0       ?ProcState_NOTIFY2@CCrywolf@@QAEXXZ 00448ed0 f   Crywolf.obj
 0001:00048080       ?ProcState_READY@CCrywolf@@QAEXXZ 00449080 f   Crywolf.obj
 0001:00048230       ?ProcState_START@CCrywolf@@QAEXXZ 00449230 f   Crywolf.obj
 0001:000487f0       ?SetState@CCrywolf@@QAEXH@Z 004497f0 f   Crywolf.obj
 0001:00048ca0       ?SetState_READY@CCrywolf@@QAEXXZ 00449ca0 f   Crywolf.obj
 0001:00048f50       ?SetState_END@CCrywolf@@QAEXXZ 00449f50 f   Crywolf.obj
 0001:00049430       ?SetState_ENDCYCLE@CCrywolf@@QAEXXZ 0044a430 f   Crywolf.obj
 0001:00049640       ?ResetAllUserMVPScore@CCrywolf@@QAEXXZ 0044a640 f   Crywolf.obj
 0001:00049690       ?RemoveCrywolfCommonMonster@CCrywolf@@QAEXXZ 0044a690 f   Crywolf.obj
 0001:000496e0       ?NotifyCrywolfStatueAndAltarInfo@CCrywolf@@QAEXXZ 0044a6e0 f   Crywolf.obj
 0001:00049870       ?NotifyCrywolfPersonalRank@CCrywolf@@QAEXXZ 0044a870 f   Crywolf.obj
 0001:00049b80       ?NotifyCrywolfHeroList@CCrywolf@@QAEXXZ 0044ab80 f   Crywolf.obj
 0001:00049e30       ?CGCrywolfAltarContractRecv@CCrywolf@@QAEXPAUPMSG_CRYWOLF_ALTAR_CONTRACT_RECV@@H@Z 0044ae30 f   Crywolf.obj
 0001:00049fe0       ?CrywolfMonsterDieProc@CCrywolf@@QAEXPAUOBJECTSTRUCT@@0@Z 0044afe0 f   Crywolf.obj
 0001:0004a310       ?SetCrywolfCommonNPC@CCrywolf@@QAEXH@Z 0044b310 f   Crywolf.obj
 0001:0004a390       ?GetUserScore@CCrywolf@@QAEHHHH@Z 0044b390 f   Crywolf.obj
 0001:0004a480       ??$_Sort_unchecked@PAPAUOBJECTSTRUCT@@P6A_NABQAU1@0@Z@std@@YAXPAPAUOBJECTSTRUCT@@0HP6A_NABQAU1@1@Z@Z 0044b480 f i Crywolf.obj
 0001:0004a670       ??$_Partition_by_median_guess_unchecked@PAPAUOBJECTSTRUCT@@P6A_NABQAU1@0@Z@std@@YA?AU?$pair@PAPAUOBJECTSTRUCT@@PAPAU1@@0@PAPAUOBJECTSTRUCT@@0P6A_NABQAU2@1@Z@Z 0044b670 f i Crywolf.obj
 0001:0004a850       ??$_Pop_heap_hole_by_index@PAPAUOBJECTSTRUCT@@PAU1@P6A_NABQAU1@0@Z@std@@YAXPAPAUOBJECTSTRUCT@@HH$$QAPAU1@P6A_NABQAU1@2@Z@Z 0044b850 f i Crywolf.obj
 0001:0004a900       ??$_Guess_median_unchecked@PAPAUOBJECTSTRUCT@@P6A_NABQAU1@0@Z@std@@YAXPAPAUOBJECTSTRUCT@@00P6A_NABQAU1@1@Z@Z 0044b900 f i Crywolf.obj
 0001:0004aab0       ??0CCrywolfAltarInfo@@QAE@XZ 0044bab0 f i CrywolfAltar.obj
 0001:0004aaf0       ??_ECCrywolfAltar@@UAEPAXI@Z 0044baf0 f i * CIL library *:* CIL module *
 0001:0004aaf0       ??_GCCrywolfAltar@@UAEPAXI@Z 0044baf0 f i CrywolfAltar.obj
 0001:0004ab20       ?ResetAltar@CCrywolfAltar@@QAEXH@Z 0044bb20 f   CrywolfAltar.obj
 0001:0004aba0       ?ResetAltarUserIndex@CCrywolfAltar@@QAEXHH@Z 0044bba0 f   CrywolfAltar.obj
 0001:0004ad00       ?SetAltarUserIndex@CCrywolfAltar@@QAE_NHHH@Z 0044bd00 f   CrywolfAltar.obj
 0001:0004b110       ?SetAltarValidContract@CCrywolfAltar@@QAEXHH@Z 0044c110 f   CrywolfAltar.obj
 0001:0004b2b0       ??0CCrywolfStateTimeInfo@@QAE@XZ 0044c2b0 f   CrywolfStateTimeInfo.obj
 0001:0004b300       ?CheckScheduleTime@CCrywolfStateTimeInfo@@QAE_NXZ 0044c300 f   CrywolfStateTimeInfo.obj
 0001:0004b5b0       ??0CTime@ATL@@QAE@HHHHHHH@Z 0044c5b0 f i CrywolfStateTimeInfo.obj
 0001:0004b660       ??_GCCrywolfStatue@@UAEPAXI@Z 0044c660 f i CrywolfStatue.obj
 0001:0004b660       ??_ECCrywolfStatue@@UAEPAXI@Z 0044c660 f i * CIL library *:* CIL module *
 0001:0004b690       ?CrywolfStatueAct@CCrywolfStatue@@QAEXH@Z 0044c690 f   CrywolfStatue.obj
 0001:0004b9f0       ?SetStatueViewState@CCrywolfStatue@@QAEXPAUOBJECTSTRUCT@@H@Z 0044c9f0 f   CrywolfStatue.obj
 0001:0004baa0       ??_ECCrywolfSync@@UAEPAXI@Z 0044caa0 f i * CIL library *:* CIL module *
 0001:0004baa0       ??_GCCrywolfSync@@UAEPAXI@Z 0044caa0 f i CrywolfSync.obj
 0001:0004bad0       ??_ECCrywolfUtil@@UAEPAXI@Z 0044cad0 f i * CIL library *:* CIL module *
 0001:0004bad0       ??_GCCrywolfUtil@@UAEPAXI@Z 0044cad0 f i CrywolfUtil.obj
 0001:0004bb00       ?SendMapServerGroupMsg@CCrywolfUtil@@QAAXPADZZ 0044cb00 f   CrywolfUtil.obj
 0001:0004bbe0       ?SendCrywolfUserAnyData@CCrywolfUtil@@QAEXPAEH@Z 0044cbe0 f   CrywolfUtil.obj
 0001:0004bc30       ?SendCrywolfUserAnyMsg@CCrywolfUtil@@QAAXHPADZZ 0044cc30 f   CrywolfUtil.obj
 0001:0004bcf0       ?CrywolfAllUserScoreSort@CCrywolfUtil@@SA_NABQAUOBJECTSTRUCT@@0@Z 0044ccf0 f   CrywolfUtil.obj
 0001:0004bd10       ?CSDataSend@@YAXPAEH@Z     0044cd10 f   CSProtocol.obj
 0001:0004bde0       ?CSDataRecv@@YAXEPAEH@Z    0044cde0 f   CSProtocol.obj
 0001:0004bea0       ?ChatServerProtocolCore@@YAXEPAEH@Z 0044cea0 f   CSProtocol.obj
 0001:0004c440       ?FriendListRequest@@YAXH@Z 0044d440 f   CSProtocol.obj
 0001:0004c4d0       ?FriendMessageSend@@YAXPAUPMSG_FRIEND_MEMO1@@HH@Z 0044d4d0 f   CSProtocol.obj
 0001:0004c690       ?FriendMemoSendResult@@YAXPAUFHP_FRIEND_MEMO_SEND_RESULT@@@Z 0044d690 f   CSProtocol.obj
 0001:0004c720       ?GEMailMessageSend@@YAXPAD00EEPAE0@Z 0044d720 f   CSProtocol.obj
 0001:0004c850       ??0CUSTOM_ARENA_INFO@@QAE@XZ 0044d850 f i CustomArena.obj
 0001:0004c880       ??_GCCustomArena@@UAEPAXI@Z 0044d880 f i CustomArena.obj
 0001:0004c880       ??_ECCustomArena@@UAEPAXI@Z 0044d880 f i * CIL library *:* CIL module *
 0001:0004c900       ??1CUSTOM_ARENA_INFO@@QAE@XZ 0044d900 f i CustomArena.obj
 0001:0004c910       ?ReadCustomArenaInfo@CCustomArena@@QAEXPAD0@Z 0044d910 f   CustomArena.obj
 0001:0004cbd0       ?Load@CCustomArena@@QAEXPAD@Z 0044dbd0 f   CustomArena.obj
 0001:0004d010       ?MainProc@CCustomArena@@QAEXXZ 0044e010 f   CustomArena.obj
 0001:0004d320       ?SetState@CCustomArena@@QAEXPAUCUSTOM_ARENA_INFO@@H@Z 0044e320 f   CustomArena.obj
 0001:0004d3c0       ?SetState_EMPTY@CCustomArena@@QAEXPAUCUSTOM_ARENA_INFO@@@Z 0044e3c0 f   CustomArena.obj
 0001:0004d610       ?SetState_CLEAN@CCustomArena@@QAEXPAUCUSTOM_ARENA_INFO@@@Z 0044e610 f   CustomArena.obj
 0001:0004d7f0       ?CheckEnterEnabled@CCustomArena@@QAE_NPAUOBJECTSTRUCT@@H@Z 0044e7f0 f   CustomArena.obj
 0001:0004dc30       ?CheckPlayerJoined@CCustomArena@@QAE_NPAUOBJECTSTRUCT@@0@Z 0044ec30 f   CustomArena.obj
 0001:0004dcb0       ?CheckPlayerTarget@CCustomArena@@QAE_NPAUOBJECTSTRUCT@@0@Z 0044ecb0 f   CustomArena.obj
 0001:0004dd30       ?DelUser@CCustomArena@@QAE_NPAUCUSTOM_ARENA_INFO@@H@Z 0044ed30 f   CustomArena.obj
 0001:0004dda0       ?CheckUser@CCustomArena@@QAEXPAUCUSTOM_ARENA_INFO@@@Z 0044eda0 f   CustomArena.obj
 0001:0004ddf0       ?NoticeSendToAll@CCustomArena@@QAAXPAUCUSTOM_ARENA_INFO@@HPADZZ 0044edf0 f   CustomArena.obj
 0001:0004de80       ??_ECCustomAttack@@UAEPAXI@Z 0044ee80 f i * CIL library *:* CIL module *
 0001:0004de80       ??_GCCustomAttack@@UAEPAXI@Z 0044ee80 f i CustomAttack.obj
 0001:0004dec0       ?Load@CCustomAttack@@QAEXPAD@Z 0044eec0 f   CustomAttack.obj
 0001:0004e040       ?ReadCustomAttackInfo@CCustomAttack@@QAEXPAD0@Z 0044f040 f   CustomAttack.obj
 0001:0004e960       ?CommandCustomAttack@CCustomAttack@@QAEXPAUOBJECTSTRUCT@@PAD@Z 0044f960 f   CustomAttack.obj
 0001:0004ec40       ?CommandCustomAttackOffline@CCustomAttack@@QAEXPAUOBJECTSTRUCT@@PAD@Z 0044fc40 f   CustomAttack.obj
 0001:0004ef40       ?GetAttackSkill@CCustomAttack@@QAE_NPAUOBJECTSTRUCT@@PAH@Z 0044ff40 f   CustomAttack.obj
 0001:0004f580       ?GetTargetMonster@CCustomAttack@@QAE_NPAUOBJECTSTRUCT@@HPAH@Z 00450580 f   CustomAttack.obj
 0001:0004f830       ?OnAttackClose@CCustomAttack@@QAEXPAUOBJECTSTRUCT@@@Z 00450830 f   CustomAttack.obj
 0001:0004f8f0       ?OnAttackMonsterAndMsgProc@CCustomAttack@@QAEXPAUOBJECTSTRUCT@@@Z 004508f0 f   CustomAttack.obj
 0001:000502e0       ?ElfBuffs@CCustomAttack@@QAEXPAUOBJECTSTRUCT@@@Z 004512e0 f   CustomAttack.obj
 0001:00050840       ?SendDurationSkillAttack@CCustomAttack@@QAEXPAUOBJECTSTRUCT@@HH@Z 00451840 f   CustomAttack.obj
 0001:000509c0       ?GetItemOnFloor@CCustomAttack@@QAEXPAUOBJECTSTRUCT@@@Z 004519c0 f   CustomAttack.obj
 0001:00050bf0       ??0CUSTOM_EVENT_DROP_INFO@@QAE@XZ 00451bf0 f i CustomEventDrop.obj
 0001:00050c20       ??_GCCustomEventDrop@@UAEPAXI@Z 00451c20 f i CustomEventDrop.obj
 0001:00050c20       ??_ECCustomEventDrop@@UAEPAXI@Z 00451c20 f i * CIL library *:* CIL module *
 0001:00050ca0       ??1CUSTOM_EVENT_DROP_INFO@@QAE@XZ 00451ca0 f i CustomEventDrop.obj
 0001:00050cc0       ?Init@CCustomEventDrop@@QAEXXZ 00451cc0 f   CustomEventDrop.obj
 0001:00050d10       ?Load@CCustomEventDrop@@QAEXPAD@Z 00451d10 f   CustomEventDrop.obj
 0001:000511e0       ?ProcState_START@CCustomEventDrop@@QAEXPAUCUSTOM_EVENT_DROP_INFO@@@Z 004521e0 f   CustomEventDrop.obj
 0001:000514f0       ?SetState@CCustomEventDrop@@QAEXPAUCUSTOM_EVENT_DROP_INFO@@H@Z 004524f0 f   CustomEventDrop.obj
 0001:00051560       ?SetState_EMPTY@CCustomEventDrop@@QAEXPAUCUSTOM_EVENT_DROP_INFO@@@Z 00452560 f   CustomEventDrop.obj
 0001:00051740       ?GetDummyUserIndex@CCustomEventDrop@@QAEJXZ 00452740 f   CustomEventDrop.obj
 0001:00051790       ??1?$vector@UEVENTTIMER_INFO@@V?$allocator@UEVENTTIMER_INFO@@@std@@@std@@QAE@XZ 00452790 f i EventTimer.obj
 0001:00051790       ??1?$vector@UOPTION_REPLACE_INFO@@V?$allocator@UOPTION_REPLACE_INFO@@@std@@@std@@QAE@XZ 00452790 f i OptionReplace.obj
 0001:00051790       ??1?$vector@UCUSTOM_EVENT_DROP_ITEM_INFO@@V?$allocator@UCUSTOM_EVENT_DROP_ITEM_INFO@@@std@@@std@@QAE@XZ 00452790 f i CustomEventDrop.obj
 0001:00051800       ??$_Emplace_reallocate@ABUEVENTTIMER_INFO@@@?$vector@UEVENTTIMER_INFO@@V?$allocator@UEVENTTIMER_INFO@@@std@@@std@@QAEPAUEVENTTIMER_INFO@@QAU2@ABU2@@Z 00452800 f i EventTimer.obj
 0001:00051800       ??$_Emplace_reallocate@ABUCUSTOM_EVENT_DROP_ITEM_INFO@@@?$vector@UCUSTOM_EVENT_DROP_ITEM_INFO@@V?$allocator@UCUSTOM_EVENT_DROP_ITEM_INFO@@@std@@@std@@QAEPAUCUSTOM_EVENT_DROP_ITEM_INFO@@QAU2@ABU2@@Z 00452800 f i CustomEventDrop.obj
 0001:000519b0       ?CGItemMove@CCustomItemMove@@QAEXPAUPMSG_CUSTOM_ITEM_MOVE@@H@Z 004529b0 f   CustomItemMove.obj
 0001:00051c20       ??0CUSTOM_JEWEL_INFO@@QAE@XZ 00452c20 f i CustomJewel.obj
 0001:00051c50       ??_GCCustomJewel@@UAEPAXI@Z 00452c50 f i CustomJewel.obj
 0001:00051c50       ??_ECCustomJewel@@UAEPAXI@Z 00452c50 f i * CIL library *:* CIL module *
 0001:00051cd0       ??1CUSTOM_JEWEL_INFO@@QAE@XZ 00452cd0 f i CustomJewel.obj
 0001:00051d50       ?Load@CCustomJewel@@QAEXPAD@Z 00452d50 f   CustomJewel.obj
 0001:00052890       ?CheckCustomJewelByItem@CCustomJewel@@QAE_NH@Z 00453890 f   CustomJewel.obj
 0001:000528d0       ?CheckCustomJewelApplyItem@CCustomJewel@@QAE_NHPAVCItem@@@Z 004538d0 f   CustomJewel.obj
 0001:00052d00       ?CheckCustomJewelApplyItemSocketOption@CCustomJewel@@QAE_NPAUCUSTOM_JEWEL_INFO@@PAVCItem@@@Z 00453d00 f   CustomJewel.obj
 0001:00052ed0       ?GetCustomJewelNewOption@CCustomJewel@@QAEHPAVCItem@@H@Z 00453ed0 f   CustomJewel.obj
 0001:000530a0       ?GetCustomJewelSetOption@CCustomJewel@@QAEHPAVCItem@@H@Z 004540a0 f   CustomJewel.obj
 0001:00053220       ?allocate@?$allocator@UCUSTOM_JEWEL_ITEM_REPLACE_INFO@@@std@@QAEPAUCUSTOM_JEWEL_ITEM_REPLACE_INFO@@I@Z 00454220 f i CustomJewel.obj
 0001:00053280       ??$_Emplace_reallocate@ABUCUSTOM_JEWEL_ITEM_REPLACE_INFO@@@?$vector@UCUSTOM_JEWEL_ITEM_REPLACE_INFO@@V?$allocator@UCUSTOM_JEWEL_ITEM_REPLACE_INFO@@@std@@@std@@QAEPAUCUSTOM_JEWEL_ITEM_REPLACE_INFO@@QAU2@ABU2@@Z 00454280 f i CustomJewel.obj
 0001:000533e0       ?_Clear_and_reserve_geometric@?$vector@UCUSTOM_JEWEL_ITEM_REPLACE_INFO@@V?$allocator@UCUSTOM_JEWEL_ITEM_REPLACE_INFO@@@std@@@std@@AAEXI@Z 004543e0 f i CustomJewel.obj
 0001:000534a0       ??_GCCustomJewelMix@@UAEPAXI@Z 004544a0 f i CustomJewelMix.obj
 0001:000534a0       ??_ECCustomJewelMix@@UAEPAXI@Z 004544a0 f i * CIL library *:* CIL module *
 0001:000534d0       ??_GCCustomMonster@@UAEPAXI@Z 004544d0 f i CustomMonster.obj
 0001:000534d0       ??_ECCustomMonster@@UAEPAXI@Z 004544d0 f i * CIL library *:* CIL module *
 0001:00053500       ?Load@CCustomMonster@@QAEXPAD@Z 00454500 f   CustomMonster.obj
 0001:000537b0       ?MonsterDieProc@CCustomMonster@@QAEXPAUOBJECTSTRUCT@@0@Z 004547b0 f   CustomMonster.obj
 0001:00053b30       ?GetCustomMonsterInfo@CCustomMonster@@QAE_NHHPAUCUSTOM_MONSTER_INFO@@@Z 00454b30 f   CustomMonster.obj
 0001:00053ba0       ??1?$vector@UCUSTOM_MONSTER_INFO@@V?$allocator@UCUSTOM_MONSTER_INFO@@@std@@@std@@QAE@XZ 00454ba0 f i CustomMonster.obj
 0001:00053c10       ??$_Emplace_reallocate@ABUCUSTOM_MONSTER_INFO@@@?$vector@UCUSTOM_MONSTER_INFO@@V?$allocator@UCUSTOM_MONSTER_INFO@@@std@@@std@@QAEPAUCUSTOM_MONSTER_INFO@@QAU2@ABU2@@Z 00454c10 f i CustomMonster.obj
 0001:00053df0       ??_GCCustomPets@@UAEPAXI@Z 00454df0 f i CustomPets.obj
 0001:00053df0       ??_ECCustomPets@@UAEPAXI@Z 00454df0 f i * CIL library *:* CIL module *
 0001:00053e20       ?Init@CCustomPets@@QAEXXZ  00454e20 f   CustomPets.obj
 0001:00053e90       ?Load@CCustomPets@@QAEXPAD@Z 00454e90 f   CustomPets.obj
 0001:000540f0       ?GetInfoByItem@CCustomPets@@QAEPAUCUSTOM_PETS_INFO@@H@Z 004550f0 f   CustomPets.obj
 0001:00054170       ?CheckCustomPetByItem@CCustomPets@@QAE_NH@Z 00455170 f   CustomPets.obj
 0001:000541e0       ?CalcCustomPetOption@CCustomPets@@QAEXPAUOBJECTSTRUCT@@_N@Z 004551e0 f   CustomPets.obj
 0001:00054300       ?Load@CCustomStartItem@@QAEXPAD@Z 00455300 f   CustomStartItem.obj
 0001:00054b20       ??1?$vector@UStartItemData@@V?$allocator@UStartItemData@@@std@@@std@@QAE@XZ 00455b20 f i CustomStartItem.obj
 0001:00054b90       ??$_Emplace_reallocate@AAUStartItemData@@@?$vector@UStartItemData@@V?$allocator@UStartItemData@@@std@@@std@@QAEPAUStartItemData@@QAU2@AAU2@@Z 00455b90 f i CustomStartItem.obj
 0001:00054d50       ??_ECCustomStore@@UAEPAXI@Z 00455d50 f i * CIL library *:* CIL module *
 0001:00054d50       ??_GCCustomStore@@UAEPAXI@Z 00455d50 f i CustomStore.obj
 0001:00054d80       ?ReadCustomStoreInfo@CCustomStore@@QAEXPAD0@Z 00455d80 f   CustomStore.obj
 0001:000555f0       ?CommandCustomStore@CCustomStore@@QAEXPAUOBJECTSTRUCT@@PAD@Z 004565f0 f   CustomStore.obj
 0001:000558c0       ?CommandCustomStoreOffline@CCustomStore@@QAEXPAUOBJECTSTRUCT@@PAD@Z 004568c0 f   CustomStore.obj
 0001:00055b30       ?OpenCustomStore@CCustomStore@@QAEXPAUOBJECTSTRUCT@@H@Z 00456b30 f   CustomStore.obj
 0001:00055ef0       ?OnPShopBuyItemRecv@CCustomStore@@QAE_NPAUPMSG_PSHOP_BUY_ITEM_RECV@@H@Z 00456ef0 f   CustomStore.obj
 0001:00057000       ?OnPShopBuyItemCallbackRecv@CCustomStore@@SAXPAUOBJECTSTRUCT@@0KKKK@Z 00458000 f   CustomStore.obj
 0001:00057520       ?SendNamesToClient@CCustomStore@@QAEXH@Z 00458520 f   CustomStore.obj
 0001:00057650       ?load@CCustomMove@@QAEXPAD@Z 00458650 f   CustomMove.obj
 0001:00057b10       ?move_data_send@CCustomMove@@QAEXH@Z 00458b10 f   CustomMove.obj
 0001:00057c10       ?clear@?$_Tree@V?$_Tmap_traits@GUCUSTOM_MOVE_INFO@@U?$less@G@std@@V?$allocator@U?$pair@$$CBGUCUSTOM_MOVE_INFO@@@std@@@3@$0A@@std@@@std@@QAEXXZ 00458c10 f i CustomMove.obj
 0001:00057c60       ??1?$_Tree@V?$_Tmap_traits@GUCUSTOM_MOVE_INFO@@U?$less@G@std@@V?$allocator@U?$pair@$$CBGUCUSTOM_MOVE_INFO@@@std@@@3@$0A@@std@@@std@@QAE@XZ 00458c60 f i CustomMove.obj
 0001:00057ca0       ??$_Erase_tree@V?$allocator@U?$_Tree_node@U?$pair@$$CBGUCUSTOM_MOVE_INFO@@@std@@PAX@std@@@std@@@?$_Tree_val@U?$_Tree_simple_types@U?$pair@$$CBGUCUSTOM_MOVE_INFO@@@std@@@std@@@std@@QAEXAAV?$allocator@U?$_Tree_node@U?$pair@$$CBGUCUSTOM_MOVE_INFO@@@std@@PAX@std@@@1@PAU?$_Tree_node@U?$pair@$$CBGUCUSTOM_MOVE_INFO@@@std@@PAX@1@@Z 00458ca0 f i CustomMove.obj
 0001:00057ce0       ??1?$_Alloc_construct_ptr@V?$allocator@U?$_Tree_node@U?$pair@$$CBGUCUSTOM_MOVE_INFO@@@std@@PAX@std@@@std@@@std@@QAE@XZ 00458ce0 f i CustomMove.obj
 0001:00057ce0       ??1?$_Alloc_construct_ptr@V?$allocator@U?$_Tree_node@U?$pair@$$CBV?$basic_string@DU?$char_traits@D@std@@V?$allocator@D@2@@std@@UREGION_DATA@@@std@@PAX@std@@@std@@@std@@QAE@XZ 00458ce0 f i RegionSystem.obj
 0001:00057ce0       ??1?$_Tree_temp_node@V?$allocator@U?$_Tree_node@U?$pair@$$CBGUCUSTOM_MOVE_INFO@@@std@@PAX@std@@@std@@@std@@QAE@XZ 00458ce0 f i CustomMove.obj
 0001:00057d00       ??_GCCustomWing@@UAEPAXI@Z 00458d00 f i CustomWing.obj
 0001:00057d00       ??_ECCustomWing@@UAEPAXI@Z 00458d00 f i * CIL library *:* CIL module *
 0001:00057d30       ?Load@CCustomWing@@QAEXPAD@Z 00458d30 f   CustomWing.obj
 0001:00058070       ?GetInfoByItem@CCustomWing@@QAEPAUCUSTOM_WING_INFO@@H@Z 00459070 f   CustomWing.obj
 0001:000580f0       ??1?$vector@UCUSTOM_WING_INFO@@V?$allocator@UCUSTOM_WING_INFO@@@std@@@std@@QAE@XZ 004590f0 f i CustomWing.obj
 0001:00058160       ??$_Emplace_reallocate@ABUCUSTOM_WING_INFO@@@?$vector@UCUSTOM_WING_INFO@@V?$allocator@UCUSTOM_WING_INFO@@@std@@@std@@QAEPAUCUSTOM_WING_INFO@@QAU2@ABU2@@Z 00459160 f i CustomWing.obj
 0001:00058320       ??_GCDailyReward@@UAEPAXI@Z 00459320 f i DailyReward.obj
 0001:00058320       ??_ECDailyReward@@UAEPAXI@Z 00459320 f i * CIL library *:* CIL module *
 0001:00058350       ?Load@CDailyReward@@QAEXPAD@Z 00459350 f   DailyReward.obj
 0001:000585f0       ?SendInfo@CDailyReward@@QAEXH@Z 004595f0 f   DailyReward.obj
 0001:00058700       ?MakeReward@CDailyReward@@QAEXHH@Z 00459700 f   DailyReward.obj
 0001:000588e0       ??0CDarkSpirit@@QAE@XZ     004598e0 f   DarkSpirit.obj
 0001:00058930       ??_ECDarkSpirit@@UAEPAXI@Z 00459930 f i * CIL library *:* CIL module *
 0001:00058930       ??_GCDarkSpirit@@UAEPAXI@Z 00459930 f i DarkSpirit.obj
 0001:00058960       ??1CDarkSpirit@@UAE@XZ     00459960 f   DarkSpirit.obj
 0001:00058970       ?MainProc@CDarkSpirit@@QAEXXZ 00459970 f   DarkSpirit.obj
 0001:00058d30       ?ModeAttackRandom@CDarkSpirit@@QAEXXZ 00459d30 f   DarkSpirit.obj
 0001:00058f40       ?RangeAttack@CDarkSpirit@@QAEXHH@Z 00459f40 f   DarkSpirit.obj
 0001:00059140       ?ResetTarget@CDarkSpirit@@QAEXH@Z 0045a140 f   DarkSpirit.obj
 0001:000591d0       ?ChangeCommand@CDarkSpirit@@QAEXHH@Z 0045a1d0 f   DarkSpirit.obj
 0001:00059350       ?Attack@CDarkSpirit@@QAE_NPAUOBJECTSTRUCT@@0PAVCSkill@@_NEE@Z 0045a350 f   DarkSpirit.obj
 0001:0005a7c0       ?GetAttackDamage@CDarkSpirit@@QAEHPAUOBJECTSTRUCT@@0PAVCSkill@@PAGH@Z 0045b7c0 f   DarkSpirit.obj
 0001:0005a960       ??_GCDefaultClassInfo@@UAEPAXI@Z 0045b960 f i DefaultClassInfo.obj
 0001:0005a960       ??_ECDefaultClassInfo@@UAEPAXI@Z 0045b960 f i * CIL library *:* CIL module *
 0001:0005a990       ?Load@CDefaultClassInfo@@QAEXPAD@Z 0045b990 f   DefaultClassInfo.obj
 0001:0005af20       ?GetCharacterDefaultStat@CDefaultClassInfo@@QAEHHH@Z 0045bf20 f   DefaultClassInfo.obj
 0001:0005afc0       ??_GCDevilSquare@@UAEPAXI@Z 0045bfc0 f i DevilSquare.obj
 0001:0005afc0       ??_ECDevilSquare@@UAEPAXI@Z 0045bfc0 f i * CIL library *:* CIL module *
 0001:0005b000       ?Init@CDevilSquare@@QAEXXZ 0045c000 f   DevilSquare.obj
 0001:0005b060       ?Load@CDevilSquare@@QAEXPAD@Z 0045c060 f   DevilSquare.obj
 0001:0005b570       ?MainProc@CDevilSquare@@QAEXXZ 0045c570 f   DevilSquare.obj
 0001:0005b750       ?ProcState_EMPTY@CDevilSquare@@QAEXPAUDEVIL_SQUARE_LEVEL@@@Z 0045c750 f   DevilSquare.obj
 0001:0005b9e0       ?ProcState_START@CDevilSquare@@QAEXPAUDEVIL_SQUARE_LEVEL@@@Z 0045c9e0 f   DevilSquare.obj
 0001:0005bd50       ?SetState@CDevilSquare@@QAEXPAUDEVIL_SQUARE_LEVEL@@H@Z 0045cd50 f   DevilSquare.obj
 0001:0005bfb0       ?SetState_CLEAN@CDevilSquare@@QAEXPAUDEVIL_SQUARE_LEVEL@@@Z 0045cfb0 f   DevilSquare.obj
 0001:0005c220       ?CheckSync@CDevilSquare@@QAEXPAUDEVIL_SQUARE_LEVEL@@@Z 0045d220 f   DevilSquare.obj
 0001:0005c3f0       ?GetRemainTime@CDevilSquare@@QAEHH@Z 0045d3f0 f   DevilSquare.obj
 0001:0005c5b0       ?DelUser@CDevilSquare@@QAE_NPAUDEVIL_SQUARE_LEVEL@@H@Z 0045d5b0 f   DevilSquare.obj
 0001:0005c610       ?CheckUser@CDevilSquare@@QAEXPAUDEVIL_SQUARE_LEVEL@@@Z 0045d610 f   DevilSquare.obj
 0001:0005c660       ?GetUserCount@CDevilSquare@@QAEHPAUDEVIL_SQUARE_LEVEL@@@Z 0045d660 f   DevilSquare.obj
 0001:0005c690       ?GetUserAbleLevel@CDevilSquare@@QAEHPAUOBJECTSTRUCT@@@Z 0045d690 f   DevilSquare.obj
 0001:0005c800       ?GetUserAbleLevelNew@CDevilSquare@@QAEHPAUOBJECTSTRUCT@@@Z 0045d800 f   DevilSquare.obj
 0001:0005c970       ?GiveUserRewardMoney@CDevilSquare@@QAEXPAUDEVIL_SQUARE_LEVEL@@@Z 0045d970 f   DevilSquare.obj
 0001:0005cb00       ?SetMonster@CDevilSquare@@QAEXPAUDEVIL_SQUARE_LEVEL@@H@Z 0045db00 f   DevilSquare.obj
 0001:0005cc00       ?NpcCharon@CDevilSquare@@QAEXPAUOBJECTSTRUCT@@@Z 0045dc00 f   DevilSquare.obj
 0001:0005cdb0       ?NoticeSendToAll@CDevilSquare@@QAAXPAUDEVIL_SQUARE_LEVEL@@HPADZZ 0045ddb0 f   DevilSquare.obj
 0001:0005ce60       ?CGDevilSquareEnterRecv@CDevilSquare@@QAEXPAUPMSG_DEVIL_SQUARE_ENTER_RECV@@H@Z 0045de60 f   DevilSquare.obj
 0001:0005d270       ?GCDevilSquareScoreSend@CDevilSquare@@QAEXPAUDEVIL_SQUARE_LEVEL@@@Z 0045e270 f   DevilSquare.obj
 0001:0005d4d0       ??_GcDiablo@@UAEPAXI@Z     0045e4d0 f i Diablo.obj
 0001:0005d4d0       ??_EcDiablo@@UAEPAXI@Z     0045e4d0 f i * CIL library *:* CIL module *
 0001:0005d510       ?LoadIni@cDiablo@@QAEXPAD@Z 0045e510 f   Diablo.obj
 0001:0005d690       ?SendDialog@cDiablo@@QAEXPAUOBJECTSTRUCT@@W4eDiabloDialog@@@Z 0045e690 f   Diablo.obj
 0001:0005d830       ?RegisterRena@cDiablo@@QAEXPAUDIABLO_RENARECV@@H@Z 0045e830 f   Diablo.obj
 0001:0005dc40       ?Teleport@cDiablo@@QAEXPAUDIABLO_RENARECV@@H@Z 0045ec40 f   Diablo.obj
 0001:0005dec0       ?GetRegCountByUserIndex@cDiablo@@QAEHH@Z 0045eec0 f   Diablo.obj
 0001:0005dfc0       ?SetState@cDiablo@@QAEXPAUDIABLO_INFO@@H@Z 0045efc0 f   Diablo.obj
 0001:0005e250       ?SetState_CLEAN@cDiablo@@QAEXPAUDIABLO_INFO@@@Z 0045f250 f   Diablo.obj
 0001:0005e450       ?CheckSync@cDiablo@@QAEXPAUDIABLO_INFO@@@Z 0045f450 f   Diablo.obj
 0001:0005e650       ?GDChangeDate@cDiablo@@QAEXXZ 0045f650 f   Diablo.obj
 0001:0005e920       ?GetUser@cDiablo@@QAEPAUDIABLO_USER@@PAUDIABLO_INFO@@H@Z 0045f920 f   Diablo.obj
 0001:0005e9a0       ?GetUserCount@cDiablo@@QAEHPAUDIABLO_INFO@@@Z 0045f9a0 f   Diablo.obj
 0001:0005ea20       ??$_Emplace_reallocate@ABUITEM_STACK_INFO@@@?$vector@UITEM_STACK_INFO@@V?$allocator@UITEM_STACK_INFO@@@std@@@std@@QAEPAUITEM_STACK_INFO@@QAU2@ABU2@@Z 0045fa20 f i ItemStack.obj
 0001:0005ea20       ??$_Emplace_reallocate@ABUINVASION_MONSTER_INFO@@@?$vector@UINVASION_MONSTER_INFO@@V?$allocator@UINVASION_MONSTER_INFO@@@std@@@std@@QAEPAUINVASION_MONSTER_INFO@@QAU2@ABU2@@Z 0045fa20 f i InvasionManager.obj
 0001:0005ea20       ??$_Emplace_reallocate@ABUREGISTERED_GUILD_INFO@@@?$vector@UREGISTERED_GUILD_INFO@@V?$allocator@UREGISTERED_GUILD_INFO@@@std@@@std@@QAEPAUREGISTERED_GUILD_INFO@@QAU2@ABU2@@Z 0045fa20 f i Diablo.obj
 0001:0005eb80       ??$_Sort_unchecked@PAUREGISTERED_GUILD_INFO@@U?$less@X@std@@@std@@YAXPAUREGISTERED_GUILD_INFO@@0HU?$less@X@0@@Z 0045fb80 f i Diablo.obj
 0001:0005ed60       ??$_Partition_by_median_guess_unchecked@PAUREGISTERED_GUILD_INFO@@U?$less@X@std@@@std@@YA?AU?$pair@PAUREGISTERED_GUILD_INFO@@PAU1@@0@PAUREGISTERED_GUILD_INFO@@0U?$less@X@0@@Z 0045fd60 f i Diablo.obj
 0001:0005eec0       ??$_Pop_heap_hole_by_index@PAUREGISTERED_GUILD_INFO@@U1@U?$less@X@std@@@std@@YAXPAUREGISTERED_GUILD_INFO@@HH$$QAU1@U?$less@X@0@@Z 0045fec0 f i Diablo.obj
 0001:0005ef80       ??$_Guess_median_unchecked@PAUREGISTERED_GUILD_INFO@@U?$less@X@std@@@std@@YAXPAUREGISTERED_GUILD_INFO@@00U?$less@X@0@@Z 0045ff80 f i Diablo.obj
 0001:0005f100       ?GCSendDonateItems@cDonateShop@@QAEXH@Z 00460100 f   DonateShop.obj
 0001:0005f360       ??_ECDoubleGoer@@UAEPAXI@Z 00460360 f i * CIL library *:* CIL module *
 0001:0005f360       ??_GCDoubleGoer@@UAEPAXI@Z 00460360 f i DoubleGoer.obj
 0001:0005f390       ?Load@CDoubleGoer@@QAEXPAD@Z 00460390 f   DoubleGoer.obj
 0001:0005f810       ?MainProc@CDoubleGoer@@QAEXXZ 00460810 f   DoubleGoer.obj
 0001:0005f9a0       ?ProcState_START@CDoubleGoer@@QAEXXZ 004609a0 f   DoubleGoer.obj
 0001:0005fed0       ?SetState@CDoubleGoer@@QAEXH@Z 00460ed0 f   DoubleGoer.obj
 0001:00060160       ?SetState_EMPTY@CDoubleGoer@@QAEXXZ 00461160 f   DoubleGoer.obj
 0001:00060340       ?SetState_CLEAN@CDoubleGoer@@QAEXXZ 00461340 f   DoubleGoer.obj
 0001:00060660       ?AddUser@CDoubleGoer@@QAE_NH@Z 00461660 f   DoubleGoer.obj
 0001:000606c0       ?DelUser@CDoubleGoer@@QAE_NH@Z 004616c0 f   DoubleGoer.obj
 0001:00060750       ?CheckUser@CDoubleGoer@@QAEXXZ 00461750 f   DoubleGoer.obj
 0001:000607a0       ?GetUserCount@CDoubleGoer@@QAEHXZ 004617a0 f   DoubleGoer.obj
 0001:00060810       ?SetSlaughterer@CDoubleGoer@@QAEXXZ 00461810 f   DoubleGoer.obj
 0001:00060bc0       ?SetMadSlaughterer@CDoubleGoer@@QAEXXZ 00461bc0 f   DoubleGoer.obj
 0001:00060f70       ?SetIceWalker@CDoubleGoer@@QAEXXZ 00461f70 f   DoubleGoer.obj
 0001:00061320       ?SetSilverRewardChest@CDoubleGoer@@QAEXHH@Z 00462320 f   DoubleGoer.obj
 0001:000613f0       ?SetMonster@CDoubleGoer@@QAEXH@Z 004623f0 f   DoubleGoer.obj
 0001:000617d0       ?NpcSilverRewardChest@CDoubleGoer@@QAEXPAUOBJECTSTRUCT@@0@Z 004627d0 f   DoubleGoer.obj
 0001:00061950       ?NpcGoldenRewardChest@CDoubleGoer@@QAEXPAUOBJECTSTRUCT@@0@Z 00462950 f   DoubleGoer.obj
 0001:00061ad0       ?CheckMonsterPosition@CDoubleGoer@@QAEXXZ 00462ad0 f   DoubleGoer.obj
 0001:00061e90       ?DelEntranceZone@CDoubleGoer@@QAEXXZ 00462e90 f   DoubleGoer.obj
 0001:00061f60       ?NoticeSendToAll@CDoubleGoer@@QAAXHPADZZ 00462f60 f   DoubleGoer.obj
 0001:00061ff0       ?CGDoubleGoerEnterRecv@CDoubleGoer@@QAEXPAUPMSG_DOUBLE_GOER_ENTER_RECV@@H@Z 00462ff0 f   DoubleGoer.obj
 0001:00062390       ?scan@CDupeScanner@@QAEXXZ 00463390 f   DupeScanner.obj
 0001:00062d80       ??_GCEventTimer@@UAEPAXI@Z 00463d80 f i EventTimer.obj
 0001:00062d80       ??_ECEventTimer@@UAEPAXI@Z 00463d80 f i * CIL library *:* CIL module *
 0001:00062db0       ?Load@CEventTimer@@QAEXPAD@Z 00463db0 f   EventTimer.obj
 0001:00062fc0       ?CG_RequestEvents@CEventTimer@@QAEXPAUCG_EVENTTIMER_REQ@@H@Z 00463fc0 f   EventTimer.obj
 0001:00063100       ?ReadQuest@ExWinQuestSystem@@QAEXHPAD@Z 00464100 f   ExWinQuestSystem.obj
 0001:00063420       ?ReadDrop@ExWinQuestSystem@@QAEXPAD@Z 00464420 f   ExWinQuestSystem.obj
 0001:00063710       ?GC_MainInfo@ExWinQuestSystem@@QAEXH_N@Z 00464710 f   ExWinQuestSystem.obj
 0001:00063b30       ?MonsterKiller@ExWinQuestSystem@@QAE_NHH@Z 00464b30 f   ExWinQuestSystem.obj
 0001:00063e10       ?PickUpItem@ExWinQuestSystem@@QAEHHH@Z 00464e10 f   ExWinQuestSystem.obj
 0001:00063f40       ?SearchItem@ExWinQuestSystem@@QAE_NHHH@Z 00464f40 f   ExWinQuestSystem.obj
 0001:00064040       ?RewardQuest@ExWinQuestSystem@@QAEXHH@Z 00465040 f   ExWinQuestSystem.obj
 0001:00064860       ?NewDrop@ExWinQuestSystem@@QBE_NHH@Z 00465860 f   ExWinQuestSystem.obj
 0001:00064ab0       __vfprintf_l               00465ab0 f i ExWinQuestSystem.obj
 0001:00064ae0       _printf                    00465ae0 f i ExWinQuestSystem.obj
 0001:00064b10       ?Load@CFileCheck@@QAEXPAD@Z 00465b10 f   FileCheck.obj
 0001:00064ce0       ?GCChecksumListSend@CFileCheck@@QAEXH@Z 00465ce0 f   FileCheck.obj
 0001:00064e40       ??1?$vector@UCSUM_LIST_INFO@@V?$allocator@UCSUM_LIST_INFO@@@std@@@std@@QAE@XZ 00465e40 f i FileCheck.obj
 0001:00064ec0       ??$_Emplace_reallocate@ABUCSUM_LIST_INFO@@@?$vector@UCSUM_LIST_INFO@@V?$allocator@UCSUM_LIST_INFO@@@std@@@std@@QAEPAUCSUM_LIST_INFO@@QAU2@ABU2@@Z 00465ec0 f i FileCheck.obj
 0001:000650a0       ??_GCGoldenArcher@@UAEPAXI@Z 004660a0 f i GoldenArcher.obj
 0001:000650a0       ??_ECGoldenArcher@@UAEPAXI@Z 004660a0 f i * CIL library *:* CIL module *
 0001:000650d0       ?CGRegEventChipRecv@CGoldenArcher@@QAEXPAUPMSG_REGEVENTCHIP@@H@Z 004660d0 f   GoldenArcher.obj
 0001:000652c0       ?DataServerProtocolCore@@YAXEPAEH@Z 004662c0 f   DSProtocol.obj
 0001:00068b20       ?DGCharacterListRecv@@YAXPAUSDHP_CHARACTER_LIST_RECV@@@Z 00469b20 f   DSProtocol.obj
 0001:00069980       ?DGCharacterInfoRecv@@YAXPAUSDHP_CHARACTER_INFO_RECV@@@Z 0046a980 f   DSProtocol.obj
 0001:0006afc0       ?DGCreateItemRecv@@YAXPAUSDHP_CREATE_ITEM_RECV@@@Z 0046bfc0 f   DSProtocol.obj
 0001:0006b5c0       ?DGPetItemInfoRecv@@YAXPAUSDHP_PET_ITEM_INFO_RECV@@@Z 0046c5c0 f   DSProtocol.obj
 0001:0006b700       ?DGGlobalPostRecv@@YAXPAUSDHP_GLOBAL_POST_RECV@@@Z 0046c700 f   DSProtocol.obj
 0001:0006b920       ?GDCharacterInfoSend@@YAXHPAD@Z 0046c920 f   DSProtocol.obj
 0001:0006b9d0       ?GDCreateItemSend@@YAXHEEEHEEEEEHEEEEQAEEK@Z 0046c9d0 f   DSProtocol.obj
 0001:0006bcb0       ?GDPetItemInfoSend@@YAXHH@Z 0046ccb0 f   DSProtocol.obj
 0001:0006bea0       ?GDCharacterInfoSaveSend@@YAXH@Z 0046cea0 f   DSProtocol.obj
 0001:0006ca50       ?GDInventoryItemSaveSend@@YAXH@Z 0046da50 f   DSProtocol.obj
 0001:0006cb30       ?GDPetItemInfoSaveSend@@YAXHH@Z 0046db30 f   DSProtocol.obj
 0001:0006cd70       ?GDResetInfoSaveSend@@YAXHHHH@Z 0046dd70 f   DSProtocol.obj
 0001:0006ce20       ?GDRankingDuelSaveSend@@YAXHKK@Z 0046de20 f   DSProtocol.obj
 0001:0006cec0       ?GDRankingBloodCastleSaveSend@@YAXHK@Z 0046dec0 f   DSProtocol.obj
 0001:0006cf50       ?GDRankingChaosCastleSaveSend@@YAXHK@Z 0046df50 f   DSProtocol.obj
 0001:0006cff0       ?GDRankingCustomArenaSaveSend@@YAXHKKK@Z 0046dff0 f   DSProtocol.obj
 0001:0006d090       ?GS_GDReqCastleNpcRepair@@YAXHHHHH@Z 0046e090 f   DSProtocol.obj
 0001:0006d100       ?GS_GDReqCastleNpcUpgrade@@YAXHHHHHHH@Z 0046e100 f   DSProtocol.obj
 0001:0006d180       ?GS_GDReqNpcRemove@@YAXHHH@Z 0046e180 f   DSProtocol.obj
 0001:0006d1d0       ?GS_DGAnsCastleNpcRepair@@YAXPAE@Z 0046e1d0 f   DSProtocol.obj
 0001:0006d410       ?GS_DGAnsCastleInitData@@YAXPAE@Z 0046e410 f   DSProtocol.obj
 0001:0006d6d0       ??_ECDuel@@UAEPAXI@Z       0046e6d0 f i * CIL library *:* CIL module *
 0001:0006d6d0       ??_GCDuel@@UAEPAXI@Z       0046e6d0 f i Duel.obj
 0001:0006d700       ?SetState@CDuel@@QAEXPAUDUEL_ARENA_INFO@@H@Z 0046e700 f   Duel.obj
 0001:0006d890       ?GetDuelArenaByGladiator@CDuel@@QAEPAUDUEL_ARENA_INFO@@H@Z 0046e890 f   Duel.obj
 0001:0006d900       ?GetDuelArenaBySpectator@CDuel@@QAEPAUDUEL_ARENA_INFO@@H@Z 0046e900 f   Duel.obj
 0001:0006d970       ?AddDuelArenaGladiator@CDuel@@QAE_NPAUDUEL_ARENA_INFO@@H@Z 0046e970 f   Duel.obj
 0001:0006d9d0       ?CheckDuelArenaGladiator@CDuel@@QAEXPAUDUEL_ARENA_INFO@@@Z 0046e9d0 f   Duel.obj
 0001:0006db40       ?CheckDuelArenaSpectator@CDuel@@QAEXPAUDUEL_ARENA_INFO@@@Z 0046eb40 f   Duel.obj
 0001:0006dc40       ?GetDuelArenaSpectatorCount@CDuel@@QAEHPAUDUEL_ARENA_INFO@@@Z 0046ec40 f   Duel.obj
 0001:0006dcf0       ?CheckDuelScore@CDuel@@QAEXPAUOBJECTSTRUCT@@0@Z 0046ecf0 f   Duel.obj
 0001:0006e160       ?CheckDuelUser@CDuel@@QAEXXZ 0046f160 f   Duel.obj
 0001:0006e4e0       ?RespawnDuelUser@CDuel@@QAEXPAUOBJECTSTRUCT@@@Z 0046f4e0 f   Duel.obj
 0001:0006e6a0       ?CGDuelStartRecv@CDuel@@QAEXPAUPMSG_DUEL_START_RECV@@H@Z 0046f6a0 f   Duel.obj
 0001:0006ed70       ?CGDuelOkRecv@CDuel@@QAEXPAUPMSG_DUEL_OK_RECV@@H@Z 0046fd70 f   Duel.obj
 0001:0006f550       ?CGDuelEndRecv@CDuel@@QAEXH@Z 00470550 f   Duel.obj
 0001:0006f830       ?CGDuelWatchRecv@CDuel@@QAEXPAUPMSG_DUEL_WATCH_RECV@@H@Z 00470830 f   Duel.obj
 0001:0006fb30       ?GCDuelScoreSend@CDuel@@QAEXHH@Z 00470b30 f   Duel.obj
 0001:0006fbc0       ?GCDuelScoreSend@CDuel@@QAEXPAUDUEL_ARENA_INFO@@@Z 00470bc0 f   Duel.obj
 0001:0006fc60       ?GCDuelInterfaceSend@CDuel@@QAEXPAUDUEL_ARENA_INFO@@@Z 00470c60 f   Duel.obj
 0001:0006fd90       ?GCDuelSpectatorDelSend@CDuel@@QAEXHPAUDUEL_ARENA_INFO@@@Z 00470d90 f   Duel.obj
 0001:0006fe20       ?GCDuelSpectatorListSend@CDuel@@QAEXHPAUDUEL_ARENA_INFO@@@Z 00470e20 f   Duel.obj
 0001:00070090       ??0CEffect@@QAE@XZ         00471090 f   Effect.obj
 0001:000700c0       ??1CEffect@@UAE@XZ         004710c0 f   Effect.obj
 0001:000700d0       ?Set@CEffect@@QAE_NEEEEEKKGGGG@Z 004710d0 f   Effect.obj
 0001:00070180       ??_GCEffectManager@@UAEPAXI@Z 00471180 f i EffectManager.obj
 0001:00070180       ??_ECEffectManager@@UAEPAXI@Z 00471180 f i * CIL library *:* CIL module *
 0001:000701b0       ?Load@CEffectManager@@QAEXPAD@Z 004711b0 f   EffectManager.obj
 0001:000705f0       ?AddEffect@CEffectManager@@QAE_NPAUOBJECTSTRUCT@@_NHHGGGG@Z 004715f0 f   EffectManager.obj
 0001:000708d0       ?DelEffect@CEffectManager@@QAE_NPAUOBJECTSTRUCT@@H@Z 004718d0 f   EffectManager.obj
 0001:00070960       ?DelEffectByGroup@CEffectManager@@QAE_NPAUOBJECTSTRUCT@@H@Z 00471960 f   EffectManager.obj
 0001:000709f0       ?InsertEffect@CEffectManager@@QAEXPAUOBJECTSTRUCT@@PAVCEffect@@@Z 004719f0 f   EffectManager.obj
 0001:00071550       ?RemoveEffect@CEffectManager@@QAEXPAUOBJECTSTRUCT@@PAVCEffect@@@Z 00472550 f   EffectManager.obj
 0001:00071db0       ?CheckStunEffect@CEffectManager@@QAE_NPAUOBJECTSTRUCT@@@Z 00472db0 f   EffectManager.obj
 0001:00071e40       ?CheckImmobilizeEffect@CEffectManager@@QAE_NPAUOBJECTSTRUCT@@@Z 00472e40 f   EffectManager.obj
 0001:00071eb0       ?ClearAllEffect@CEffectManager@@QAEXPAUOBJECTSTRUCT@@@Z 00472eb0 f   EffectManager.obj
 0001:00071f30       ?PeriodicEffect@CEffectManager@@QAEXPAUOBJECTSTRUCT@@PAVCEffect@@@Z 00472f30 f   EffectManager.obj
 0001:000721f0       ?GCPeriodicEffectSend@CEffectManager@@QAEXPAUOBJECTSTRUCT@@GGEKE@Z 004731f0 f   EffectManager.obj
 0001:000723d0       ?GCPartyEffectListSend@CEffectManager@@QAEXPAUOBJECTSTRUCT@@@Z 004733d0 f   EffectManager.obj
 0001:00072520       ?ESDataSend@@YAXPAEH@Z     00473520 f   ESProtocol.obj
 0001:000725f0       ?ESDataRecv@@YAXEPAEH@Z    004735f0 f   ESProtocol.obj
 0001:000726b0       ?ExDBServerProtocolCore@@YAXEPAEH@Z 004736b0 f   ESProtocol.obj
 0001:00073190       ?GDGuildCreateRecv@@YAXPAUSDHP_GUILDCREATE_RESULT@@@Z 00474190 f   ESProtocol.obj
 0001:000733b0       ?GDGuildDestroyRecv@@YAXPAUSDHP_GUILDDESTROY_RESULT@@@Z 004743b0 f   ESProtocol.obj
 0001:000736f0       ?GDGuildMemberDelResult@@YAXPAUSDHP_GUILDMEMBERDEL_RESULT@@@Z 004746f0 f   ESProtocol.obj
 0001:000739c0       ?DGGuildMemberInfo@@YAXPAUSDHP_GUILDMEMBER_INFO@@@Z 004749c0 f   ESProtocol.obj
 0001:00073ee0       ?DGGuildAnsAssignStatus@@YAXPAUEXSDHP_GUILD_ASSIGN_STATUS_RESULT@@@Z 00474ee0 f   ESProtocol.obj
 0001:00074270       ?DGGuildAnsAssignType@@YAXPAUEXSDHP_GUILD_ASSIGN_TYPE_RESULT@@@Z 00475270 f   ESProtocol.obj
 0001:000744e0       ?DGRelationShipAnsJoin@@YAXPAUEXSDHP_RELATIONSHIP_JOIN_RESULT@@@Z 004754e0 f   ESProtocol.obj
 0001:00074910       ?DGUnionBreakOff@@YAXPAUEXSDHP_RELATIONSHIP_BREAKOFF_RESULT@@@Z 00475910 f   ESProtocol.obj
 0001:00074bd0       ?DGRelationShipAnsBreakOff@@YAXPAUEXSDHP_RELATIONSHIP_BREAKOFF_RESULT@@@Z 00475bd0 f   ESProtocol.obj
 0001:00074e80       ?DGRelationShipNotificationRecv@@YAXPAUEXSDHP_NOTIFICATION_RELATIONSHIP@@@Z 00475e80 f   ESProtocol.obj
 0001:00075010       ?DGRelationShipListRecv@@YAXPAUEXSDHP_UNION_RELATIONSHIP_LIST@@@Z 00476010 f   ESProtocol.obj
 0001:00075160       ?DGRelationShipAnsKickOutUnionMember@@YAXPAUEXSDHP_KICKOUT_UNIONMEMBER_RESULT@@@Z 00476160 f   ESProtocol.obj
 0001:000753b0       ??_GCEventInventory@@UAEPAXI@Z 004763b0 f i EventInventory.obj
 0001:000753b0       ??_ECEventInventory@@UAEPAXI@Z 004763b0 f i * CIL library *:* CIL module *
 0001:000753e0       ??_GCExperienceTable@@UAEPAXI@Z 004763e0 f i ExperienceTable.obj
 0001:000753e0       ??_ECExperienceTable@@UAEPAXI@Z 004763e0 f i * CIL library *:* CIL module *
 0001:00075410       ?Load@CExperienceTable@@QAEXPAD@Z 00476410 f   ExperienceTable.obj
 0001:00075620       ?GetExperienceRate@CExperienceTable@@QAEHPAUOBJECTSTRUCT@@@Z 00476620 f   ExperienceTable.obj
 0001:000756c0       ?GetMasterExperienceRate@CExperienceTable@@QAEHPAUOBJECTSTRUCT@@@Z 004766c0 f   ExperienceTable.obj
 0001:00075750       ?_Tidy@?$vector@UITEM_OPTION_INFO@@V?$allocator@UITEM_OPTION_INFO@@@std@@@std@@AAEXXZ 00476750 f i ItemOption.obj
 0001:00075750       ??1?$vector@UMINING_INFO@@V?$allocator@UMINING_INFO@@@std@@@std@@QAE@XZ 00476750 f i MiningSystem.obj
 0001:00075750       ??1?$vector@UEXPERIENCE_TABLE_INFO@@V?$allocator@UEXPERIENCE_TABLE_INFO@@@std@@@std@@QAE@XZ 00476750 f i ExperienceTable.obj
 0001:000757c0       ??$_Emplace_reallocate@ABUITEM_OPTION_INFO@@@?$vector@UITEM_OPTION_INFO@@V?$allocator@UITEM_OPTION_INFO@@@std@@@std@@QAEPAUITEM_OPTION_INFO@@QAU2@ABU2@@Z 004767c0 f i ItemOption.obj
 0001:000757c0       ??$_Emplace_reallocate@ABUEXPERIENCE_TABLE_INFO@@@?$vector@UEXPERIENCE_TABLE_INFO@@V?$allocator@UEXPERIENCE_TABLE_INFO@@@std@@@std@@QAEPAUEXPERIENCE_TABLE_INFO@@QAU2@ABU2@@Z 004767c0 f i ExperienceTable.obj
 0001:00075980       ??_GCFilter@@UAEPAXI@Z     00476980 f i Filter.obj
 0001:00075980       ??_ECFilter@@UAEPAXI@Z     00476980 f i * CIL library *:* CIL module *
 0001:000759b0       ?Load@CFilter@@QAEXPAD@Z   004769b0 f   Filter.obj
 0001:00075bf0       ??1?$vector@V?$basic_string@DU?$char_traits@D@std@@V?$allocator@D@2@@std@@V?$allocator@V?$basic_string@DU?$char_traits@D@std@@V?$allocator@D@2@@std@@@2@@std@@QAE@XZ 00476bf0 f i Filter.obj
 0001:00075c70       ?_Destroy@?$vector@V?$basic_string@DU?$char_traits@D@std@@V?$allocator@D@2@@std@@V?$allocator@V?$basic_string@DU?$char_traits@D@std@@V?$allocator@D@2@@std@@@2@@std@@AAEXPAV?$basic_string@DU?$char_traits@D@std@@V?$allocator@D@2@@2@0@Z 00476c70 f i Filter.obj
 0001:00075c90       ?deallocate@?$allocator@V?$basic_string@DU?$char_traits@D@std@@V?$allocator@D@2@@std@@@std@@QAEXQAV?$basic_string@DU?$char_traits@D@std@@V?$allocator@D@2@@2@I@Z 00476c90 f i Filter.obj
 0001:00075cd0       ??$_Emplace_reallocate@ABV?$basic_string@DU?$char_traits@D@std@@V?$allocator@D@2@@std@@@?$vector@V?$basic_string@DU?$char_traits@D@std@@V?$allocator@D@2@@std@@V?$allocator@V?$basic_string@DU?$char_traits@D@std@@V?$allocator@D@2@@std@@@2@@std@@QAEPAV?$basic_string@DU?$char_traits@D@std@@V?$allocator@D@2@@1@QAV21@ABV21@@Z 00476cd0 f i Filter.obj
 0001:00075ee0       ??$_Destroy_range@V?$allocator@V?$basic_string@DU?$char_traits@D@std@@V?$allocator@D@2@@std@@@std@@@std@@YAXPAV?$basic_string@DU?$char_traits@D@std@@V?$allocator@D@2@@0@QAV10@AAV?$allocator@V?$basic_string@DU?$char_traits@D@std@@V?$allocator@D@2@@std@@@0@@Z 00476ee0 f i Filter.obj
 0001:00075f40       ??$_Uninitialized_move@PAV?$basic_string@DU?$char_traits@D@std@@V?$allocator@D@2@@std@@V?$allocator@V?$basic_string@DU?$char_traits@D@std@@V?$allocator@D@2@@std@@@2@@std@@YAPAV?$basic_string@DU?$char_traits@D@std@@V?$allocator@D@2@@0@QAV10@0PAV10@AAV?$allocator@V?$basic_string@DU?$char_traits@D@std@@V?$allocator@D@2@@std@@@0@@Z 00476f40 f i Filter.obj
 0001:00075fb0       ??_ECFruit@@UAEPAXI@Z      00476fb0 f i * CIL library *:* CIL module *
 0001:00075fb0       ??_GCFruit@@UAEPAXI@Z      00476fb0 f i Fruit.obj
 0001:00075fe0       ?UseFruitAddPoint@CFruit@@QAE_NPAUOBJECTSTRUCT@@H@Z 00476fe0 f   Fruit.obj
 0001:000764c0       ?UseFruitSubPoint@CFruit@@QAE_NPAUOBJECTSTRUCT@@H@Z 004774c0 f   Fruit.obj
 0001:000769c0       ?UseFruitResetPoint@CFruit@@QAE_NPAUOBJECTSTRUCT@@HH@Z 004779c0 f   Fruit.obj
 0001:00076bb0       ?GCFruitResultSend@CFruit@@QAEXPAUOBJECTSTRUCT@@HHH@Z 00477bb0 f   Fruit.obj
 0001:00076c50       ?GameMainInit@@YAXPAUHWND__@@@Z 00477c50 f   GameMain.obj
 0001:00077090       ?JoinServerConnect@@YA_NK@Z 00478090 f   GameMain.obj
 0001:00077130       ?DataServerConnect@@YA_NK@Z 00478130 f   GameMain.obj
 0001:000771d0       ?QueueTimerCallback@@YGXPAXE@Z 004781d0 f   GameMain.obj
 0001:00077500       ??_GCGameMaster@@UAEPAXI@Z 00478500 f i GameMaster.obj
 0001:00077500       ??_ECGameMaster@@UAEPAXI@Z 00478500 f i * CIL library *:* CIL module *
 0001:00077530       ?Load@CGameMaster@@QAEXPAD@Z 00478530 f   GameMaster.obj
 0001:000776f0       ?CheckGameMasterLevel@CGameMaster@@QAE_NPAUOBJECTSTRUCT@@H@Z 004786f0 f   GameMaster.obj
 0001:000777b0       _WinMain@16                004787b0 f   GameServer.obj
 0001:00077d60       ?WndProc@@YGJPAUHWND__@@IIJ@Z 00478d60 f   GameServer.obj
 0001:00079020       ?About@@YGJPAUHWND__@@IIJ@Z 0047a020 f   GameServer.obj
 0001:00079060       ?Disconnect@@YGJPAUHWND__@@IIJ@Z 0047a060 f   GameServer.obj
 0001:000792d0       ?wstrtostr@@YA?AV?$basic_string@DU?$char_traits@D@std@@V?$allocator@D@2@@std@@ABV?$basic_string@_WU?$char_traits@_W@std@@V?$allocator@_W@2@@2@@Z 0047a2d0 f   GameServer.obj
 0001:00079370       ?AdminChat@@YGJPAUHWND__@@IIJ@Z 0047a370 f   GameServer.obj
 0001:00079f40       ?LicenseBox@@YGJPAUHWND__@@IIJ@Z 0047af40 f   GameServer.obj
 0001:00079f90       ??0?$basic_string@_WU?$char_traits@_W@std@@V?$allocator@_W@2@@std@@QAE@QB_W@Z 0047af90 f i GameServer.obj
 0001:0007a050       ?allocate@?$allocator@_W@std@@QAEPA_WI@Z 0047b050 f i GameServer.obj
 0001:0007a0b0       ??1?$basic_string@_WU?$char_traits@_W@std@@V?$allocator@_W@2@@std@@QAE@XZ 0047b0b0 f i GameServer.obj
 0001:0007a110       _fprintf                   0047b110 f i GameServer.obj
 0001:0007a140       ??_ECGate@@UAEPAXI@Z       0047b140 f i * CIL library *:* CIL module *
 0001:0007a140       ??_GCGate@@UAEPAXI@Z       0047b140 f i Gate.obj
 0001:0007a170       ?Load@CGate@@QAEXPAD@Z     0047b170 f   Gate.obj
 0001:0007a4d0       ?GetInfo@CGate@@QAE_NHPAUGATE_INFO@@@Z 0047b4d0 f   Gate.obj
 0001:0007a540       ?GetGate@CGate@@QAE_NHPAH00000@Z 0047b540 f   Gate.obj
 0001:0007a660       ?clear@?$_Tree@V?$_Tmap_traits@HUGATE_INFO@@U?$less@H@std@@V?$allocator@U?$pair@$$CBHUGATE_INFO@@@std@@@3@$0A@@std@@@std@@QAEXXZ 0047b660 f i Gate.obj
 0001:0007a6b0       ??1?$_Tree@V?$_Tmap_traits@HUGATE_INFO@@U?$less@H@std@@V?$allocator@U?$pair@$$CBHUGATE_INFO@@@std@@@3@$0A@@std@@@std@@QAE@XZ 0047b6b0 f i Gate.obj
 0001:0007a6f0       ??$_Erase_tree@V?$allocator@U?$_Tree_node@U?$pair@$$CBHUGATE_INFO@@@std@@PAX@std@@@std@@@?$_Tree_val@U?$_Tree_simple_types@U?$pair@$$CBHUGATE_INFO@@@std@@@std@@@std@@QAEXAAV?$allocator@U?$_Tree_node@U?$pair@$$CBHUGATE_INFO@@@std@@PAX@std@@@1@PAU?$_Tree_node@U?$pair@$$CBHUGATE_INFO@@@std@@PAX@1@@Z 0047b6f0 f i Gate.obj
 0001:0007a730       ??1?$_Alloc_construct_ptr@V?$allocator@U?$_Tree_node@U?$pair@$$CBHUGATE_INFO@@@std@@PAX@std@@@std@@@std@@QAE@XZ 0047b730 f i Gate.obj
 0001:0007a750       ??_GCGensSystem@@UAEPAXI@Z 0047b750 f i GensSystem.obj
 0001:0007a750       ??_ECGensSystem@@UAEPAXI@Z 0047b750 f i * CIL library *:* CIL module *
 0001:0007a780       ?CalcGensMemberInfo@CGensSystem@@QAEXPAUOBJECTSTRUCT@@@Z 0047b780 f   GensSystem.obj
 0001:0007a9b0       ?GetGensRewardSymbol@CGensSystem@@QAEHH@Z 0047b9b0 f   GensSystem.obj
 0001:0007aa40       ?UserDieProc@CGensSystem@@QAEXPAUOBJECTSTRUCT@@0@Z 0047ba40 f   GensSystem.obj
 0001:0007acc0       ?CheckGens@CGensSystem@@QAE_NPAUOBJECTSTRUCT@@0@Z 0047bcc0 f   GensSystem.obj
 0001:0007ada0       ?CGGensSystemInsertRecv@CGensSystem@@QAEXPAUPMSG_GENS_SYSTEM_INSERT_RECV@@H@Z 0047bda0 f   GensSystem.obj
 0001:0007b0f0       ?CGGensSystemDeleteRecv@CGensSystem@@QAEXPAUPMSG_GENS_SYSTEM_DELETE_RECV@@H@Z 0047c0f0 f   GensSystem.obj
 0001:0007b380       ?CGGensSystemRewardRecv@CGensSystem@@QAEXPAUPMSG_GENS_SYSTEM_REWARD_RECV@@H@Z 0047c380 f   GensSystem.obj
 0001:0007b560       ?DGGensSystemRewardRecv@CGensSystem@@QAEXPAUSDHP_GENS_SYSTEM_REWARD_RECV@@@Z 0047c560 f   GensSystem.obj
 0001:0007b7c0       ?GDGensSystemMemberSend@CGensSystem@@QAEXH@Z 0047c7c0 f   GensSystem.obj
 0001:0007b860       ?GDGensSystemUpdateSend@CGensSystem@@QAEXH@Z 0047c860 f   GensSystem.obj
 0001:0007b930       ??_GGRSystem@@UAEPAXI@Z    0047c930 f i GrandResetSystem.obj
 0001:0007b930       ??_EGRSystem@@UAEPAXI@Z    0047c930 f i * CIL library *:* CIL module *
 0001:0007b960       ?Load@GRSystem@@QAEXXZ     0047c960 f   GrandResetSystem.obj
 0001:0007bb80       ?ReadGroupFile@GRSystem@@QAEXPAD@Z 0047cb80 f   GrandResetSystem.obj
 0001:0007bf60       ?GetResetMoney@GRSystem@@QAEHPAUOBJECTSTRUCT@@@Z 0047cf60 f   GrandResetSystem.obj
 0001:0007bfd0       ?GetGRGroup@GRSystem@@QAEHPAUOBJECTSTRUCT@@@Z 0047cfd0 f   GrandResetSystem.obj
 0001:0007c020       ?SearchQuestItem@GRSystem@@QAE_NPAUOBJECTSTRUCT@@E@Z 0047d020 f   GrandResetSystem.obj
 0001:0007c1f0       ?DeleteQuestItem@GRSystem@@QAE_NPAUOBJECTSTRUCT@@E@Z 0047d1f0 f   GrandResetSystem.obj
 0001:0007c3f0       ?CheckAllReq@GRSystem@@QAE_NPAUOBJECTSTRUCT@@@Z 0047d3f0 f   GrandResetSystem.obj
 0001:0007c590       ?SendResetData@GRSystem@@QAEXPAUOBJECTSTRUCT@@_N@Z 0047d590 f   GrandResetSystem.obj
 0001:0007c780       ?FinishResetReq@GRSystem@@QAEXPAUOBJECTSTRUCT@@@Z 0047d780 f   GrandResetSystem.obj
 0001:0007d0c0       ??_ECGuardianStatue@@UAEPAXI@Z 0047e0c0 f i * CIL library *:* CIL module *
 0001:0007d0c0       ??_GCGuardianStatue@@UAEPAXI@Z 0047e0c0 f i GuardianStatue.obj
 0001:0007d0f0       ?GuardianStatueAct@CGuardianStatue@@QAEXH@Z 0047e0f0 f   GuardianStatue.obj
 0001:0007d3b0       ??_GCGuild@@UAEPAXI@Z      0047e3b0 f i Guild.obj
 0001:0007d3b0       ??_ECGuild@@UAEPAXI@Z      0047e3b0 f i * CIL library *:* CIL module *
 0001:0007d3e0       ?GetMaxGuildUser@CGuild@@QAEHPAUOBJECTSTRUCT@@@Z 0047e3e0 f   Guild.obj
 0001:0007d480       ?CGGuildRequestRecv@CGuild@@QAEXPAUPMSG_GUILD_REQUEST_RECV@@H@Z 0047e480 f   Guild.obj
 0001:0007d730       ?CGGuildResultRecv@CGuild@@QAEXPAUPMSG_GUILD_RESULT_RECV@@H@Z 0047e730 f   Guild.obj
 0001:0007da80       ?CGGuildDeleteRecv@CGuild@@QAEXPAUPMSG_GUILD_DELETE_RECV@@H@Z 0047ea80 f   Guild.obj
 0001:0007de50       ?CGGuildAssignStatusRecv@CGuild@@QAEXPAUPMSG_GUILD_ASSIGN_STATUS_RECV@@H@Z 0047ee50 f   Guild.obj
 0001:0007e240       ?GCGuildWarRequestSendRecv@@YAXPAUPMSG_GUILDWARSEND_RESULT@@H@Z 0047f240 f   Guild.obj
 0001:0007e240       ?GCGuildWarRequestResult@@YAXPADHH@Z 0047f240 f   Guild.obj
 0001:0007e250       ?CGRelationShipReqJoinBreakOff@@YAXPAUPMSG_RELATIONSHIP_JOIN_BREAKOFF_REQ@@H@Z 0047f250 f   Guild.obj
 0001:0007e810       ?CGRelationShipAnsJoinBreakOff@@YAXPAUPMSG_RELATIONSHIP_JOIN_BREAKOFF_ANS@@H@Z 0047f810 f   Guild.obj
 0001:0007ea50       ?CGRelationShipReqKickOutUnionMember@@YAXPAUPMSG_KICKOUT_UNIONMEMBER_REQ@@H@Z 0047fa50 f   Guild.obj
 0001:0007ec20       ??_ECGuildClass@@UAEPAXI@Z 0047fc20 f i * CIL library *:* CIL module *
 0001:0007ec20       ??_GCGuildClass@@UAEPAXI@Z 0047fc20 f i GuildClass.obj
 0001:0007ec50       ??1?$map@V?$basic_string@DU?$char_traits@D@std@@V?$allocator@D@2@@std@@PAUGUILD_INFO_STRUCT@@U?$less@V?$basic_string@DU?$char_traits@D@std@@V?$allocator@D@2@@std@@@2@V?$allocator@U?$pair@$$CBV?$basic_string@DU?$char_traits@D@std@@V?$allocator@D@2@@std@@PAUGUILD_INFO_STRUCT@@@std@@@2@@std@@QAE@XZ 0047fc50 f i GuildClass.obj
 0001:0007ec70       ??1CGuildClass@@UAE@XZ     0047fc70 f   GuildClass.obj
 0001:0007ed10       ?AddGuild@CGuildClass@@QAEPAUGUILD_INFO_STRUCT@@HPADPAE0H@Z 0047fd10 f   GuildClass.obj
 0001:0007ee80       ?AddTail@CGuildClass@@QAEXPAUGUILD_INFO_STRUCT@@@Z 0047fe80 f   GuildClass.obj
 0001:0007f0f0       ?DeleteGuild@CGuildClass@@QAEHPAD0@Z 004800f0 f   GuildClass.obj
 0001:0007f310       ?SearchGuild@CGuildClass@@QAEPAUGUILD_INFO_STRUCT@@PAD@Z 00480310 f   GuildClass.obj
 0001:0007f400       ?ConnectUser@CGuildClass@@QAEHPAUGUILD_INFO_STRUCT@@PAD1HH@Z 00480400 f   GuildClass.obj
 0001:0007f640       ?AddMember@CGuildClass@@QAEPAUGUILD_INFO_STRUCT@@PAD0HHHH@Z 00480640 f   GuildClass.obj
 0001:0007f820       ?SetGuildMemberStatus@CGuildClass@@QAEHPAD0H@Z 00480820 f   GuildClass.obj
 0001:0007faa0       ?SetGuildType@CGuildClass@@QAEHPADH@Z 00480aa0 f   GuildClass.obj
 0001:0007fb60       ?AddGuildBuff@CGuildClass@@QAEXPAUGUILD_INFO_STRUCT@@@Z 00480b60 f   GuildClass.obj
 0001:0007fd10       ?clear@?$_Tree@V?$_Tmap_traits@HPAUGUILD_INFO_STRUCT@@U?$less@H@std@@V?$allocator@U?$pair@$$CBHPAUGUILD_INFO_STRUCT@@@std@@@3@$0A@@std@@@std@@QAEXXZ 00480d10 f i GuildClass.obj
 0001:0007fd10       ?clear@?$_Tree@V?$_Tmap_traits@HPAVCUnionInfo@@U?$less@H@std@@V?$allocator@U?$pair@$$CBHPAVCUnionInfo@@@std@@@3@$0A@@std@@@std@@QAEXXZ 00480d10 f i Union.obj
 0001:0007fd60       ??$_Erase_tree@V?$allocator@U?$_Tree_node@U?$pair@$$CBV?$basic_string@DU?$char_traits@D@std@@V?$allocator@D@2@@std@@PAUGUILD_INFO_STRUCT@@@std@@PAX@std@@@std@@@?$_Tree_val@U?$_Tree_simple_types@U?$pair@$$CBV?$basic_string@DU?$char_traits@D@std@@V?$allocator@D@2@@std@@PAUGUILD_INFO_STRUCT@@@std@@@std@@@std@@QAEXAAV?$allocator@U?$_Tree_node@U?$pair@$$CBV?$basic_string@DU?$char_traits@D@std@@V?$allocator@D@2@@std@@PAUGUILD_INFO_STRUCT@@@std@@PAX@std@@@1@PAU?$_Tree_node@U?$pair@$$CBV?$basic_string@DU?$char_traits@D@std@@V?$allocator@D@2@@std@@PAUGUILD_INFO_STRUCT@@@std@@PAX@1@@Z 00480d60 f i GuildClass.obj
 0001:0007fdf0       ??1?$_Alloc_construct_ptr@V?$allocator@U?$_Tree_node@U?$pair@$$CBV?$basic_string@DU?$char_traits@D@std@@V?$allocator@D@2@@std@@PAUGUILD_INFO_STRUCT@@@std@@PAX@std@@@std@@@std@@QAE@XZ 00480df0 f i GuildClass.obj
 0001:0007fe10       ??E?$_Tree_unchecked_const_iterator@V?$_Tree_val@U?$_Tree_simple_types@U?$pair@$$CBV?$basic_string@DU?$char_traits@D@std@@V?$allocator@D@2@@std@@UIP_ADDRESS_INFO@@@std@@@std@@@std@@U_Iterator_base0@2@@std@@QAEAAV01@XZ 00480e10 f i IpManager.obj
 0001:0007fe10       ??E?$_Tree_unchecked_const_iterator@V?$_Tree_val@U?$_Tree_simple_types@U?$pair@$$CBV?$basic_string@DU?$char_traits@D@std@@V?$allocator@D@2@@std@@UREGISTERED_INFO@@@std@@@std@@@std@@U_Iterator_base0@2@@std@@QAEAAV01@XZ 00480e10 f i PartySearch.obj
 0001:0007fe10       ??E?$_Tree_unchecked_const_iterator@V?$_Tree_val@U?$_Tree_simple_types@U?$pair@$$CBV?$basic_string@DU?$char_traits@D@std@@V?$allocator@D@2@@std@@PAUGUILD_INFO_STRUCT@@@std@@@std@@@std@@U_Iterator_base0@2@@std@@QAEAAV01@XZ 00480e10 f i GuildClass.obj
 0001:0007fe10       ??E?$_Tree_unchecked_const_iterator@V?$_Tree_val@U?$_Tree_simple_types@U?$pair@$$CBV?$basic_string@DU?$char_traits@D@std@@V?$allocator@D@2@@std@@UHardwareId_INFO@@@std@@@std@@@std@@U_Iterator_base0@2@@std@@QAEAAV01@XZ 00480e10 f i HwidManager.obj
 0001:0007fe10       ??E?$_Tree_unchecked_const_iterator@V?$_Tree_val@U?$_Tree_simple_types@U?$pair@$$CBHPAUGUILD_INFO_STRUCT@@@std@@@std@@@std@@U_Iterator_base0@2@@std@@QAEAAV01@XZ 00480e10 f i GuildClass.obj
 0001:0007fe70       ?_Extract@?$_Tree_val@U?$_Tree_simple_types@U?$pair@$$CBV?$basic_string@DU?$char_traits@D@std@@V?$allocator@D@2@@std@@UIP_ADDRESS_INFO@@@std@@@std@@@std@@QAEPAU?$_Tree_node@U?$pair@$$CBV?$basic_string@DU?$char_traits@D@std@@V?$allocator@D@2@@std@@UIP_ADDRESS_INFO@@@std@@PAX@2@V?$_Tree_unchecked_const_iterator@V?$_Tree_val@U?$_Tree_simple_types@U?$pair@$$CBV?$basic_string@DU?$char_traits@D@std@@V?$allocator@D@2@@std@@UIP_ADDRESS_INFO@@@std@@@std@@@std@@U_Iterator_base0@2@@2@@Z 00480e70 f i IpManager.obj
 0001:0007fe70       ?_Extract@?$_Tree_val@U?$_Tree_simple_types@U?$pair@$$CBHPAUGUILD_INFO_STRUCT@@@std@@@std@@@std@@QAEPAU?$_Tree_node@U?$pair@$$CBHPAUGUILD_INFO_STRUCT@@@std@@PAX@2@V?$_Tree_unchecked_const_iterator@V?$_Tree_val@U?$_Tree_simple_types@U?$pair@$$CBHPAUGUILD_INFO_STRUCT@@@std@@@std@@@std@@U_Iterator_base0@2@@2@@Z 00480e70 f i GuildClass.obj
 0001:0007fe70       ?_Extract@?$_Tree_val@U?$_Tree_simple_types@U?$pair@$$CBV?$basic_string@DU?$char_traits@D@std@@V?$allocator@D@2@@std@@UHardwareId_INFO@@@std@@@std@@@std@@QAEPAU?$_Tree_node@U?$pair@$$CBV?$basic_string@DU?$char_traits@D@std@@V?$allocator@D@2@@std@@UHardwareId_INFO@@@std@@PAX@2@V?$_Tree_unchecked_const_iterator@V?$_Tree_val@U?$_Tree_simple_types@U?$pair@$$CBV?$basic_string@DU?$char_traits@D@std@@V?$allocator@D@2@@std@@UHardwareId_INFO@@@std@@@std@@@std@@U_Iterator_base0@2@@2@@Z 00480e70 f i HwidManager.obj
 0001:0007fe70       ?_Extract@?$_Tree_val@U?$_Tree_simple_types@U?$pair@$$CBV?$basic_string@DU?$char_traits@D@std@@V?$allocator@D@2@@std@@UREGISTERED_INFO@@@std@@@std@@@std@@QAEPAU?$_Tree_node@U?$pair@$$CBV?$basic_string@DU?$char_traits@D@std@@V?$allocator@D@2@@std@@UREGISTERED_INFO@@@std@@PAX@2@V?$_Tree_unchecked_const_iterator@V?$_Tree_val@U?$_Tree_simple_types@U?$pair@$$CBV?$basic_string@DU?$char_traits@D@std@@V?$allocator@D@2@@std@@UREGISTERED_INFO@@@std@@@std@@@std@@U_Iterator_base0@2@@2@@Z 00480e70 f i PartySearch.obj
 0001:0007fe70       ?_Extract@?$_Tree_val@U?$_Tree_simple_types@U?$pair@$$CBV?$basic_string@DU?$char_traits@D@std@@V?$allocator@D@2@@std@@PAUGUILD_INFO_STRUCT@@@std@@@std@@@std@@QAEPAU?$_Tree_node@U?$pair@$$CBV?$basic_string@DU?$char_traits@D@std@@V?$allocator@D@2@@std@@PAUGUILD_INFO_STRUCT@@@std@@PAX@2@V?$_Tree_unchecked_const_iterator@V?$_Tree_val@U?$_Tree_simple_types@U?$pair@$$CBV?$basic_string@DU?$char_traits@D@std@@V?$allocator@D@2@@std@@PAUGUILD_INFO_STRUCT@@@std@@@std@@@std@@U_Iterator_base0@2@@2@@Z 00480e70 f i GuildClass.obj
 0001:00080250       ??_ECGuildMatching@@UAEPAXI@Z 00481250 f i * CIL library *:* CIL module *
 0001:00080250       ??_GCGuildMatching@@UAEPAXI@Z 00481250 f i GuildMatching.obj
 0001:00080280       ??_EcGuildWarehouse@@UAEPAXI@Z 00481280 f i * CIL library *:* CIL module *
 0001:00080280       ??_GcGuildWarehouse@@UAEPAXI@Z 00481280 f i GuildWarehouse.obj
 0001:000802b0       ?DGGuildWarehouseItemRecv@cGuildWarehouse@@QAEXPAUSDHP_GUILDWAREHOUSE_ITEM_RECV@@@Z 004812b0 f   GuildWarehouse.obj
 0001:000805c0       ?CGGuildWarehouseMoneyRecv@cGuildWarehouse@@QAEXPAUPMSG_WAREHOUSE_MONEY_RECV@@H@Z 004815c0 f   GuildWarehouse.obj
 0001:00080730       ?DecryptData@@YAXPAEHH@Z   00481730 f   HackCheck.obj
 0001:00080a40       ?EncryptData@@YAXPAEH@Z    00481a40 f   HackCheck.obj
 0001:00080bd0       ?InitHackCheck@@YAXXZ      00481bd0 f   HackCheck.obj
 0001:00080dd0       ??_GCHackPacketCheck@@UAEPAXI@Z 00481dd0 f i HackPacketCheck.obj
 0001:00080dd0       ??_ECHackPacketCheck@@UAEPAXI@Z 00481dd0 f i * CIL library *:* CIL module *
 0001:00080e00       ?Init@CHackPacketCheck@@QAEXXZ 00481e00 f   HackPacketCheck.obj
 0001:00080e80       ?Load@CHackPacketCheck@@QAEXPAD@Z 00481e80 f   HackPacketCheck.obj
 0001:00081070       ?CheckPacketHack@CHackPacketCheck@@QAE_NHHHHH@Z 00482070 f   HackPacketCheck.obj
 0001:000812d0       ??_ECHelper@@UAEPAXI@Z     004822d0 f i * CIL library *:* CIL module *
 0001:000812d0       ??_GCHelper@@UAEPAXI@Z     004822d0 f i Helper.obj
 0001:00081300       ?MainProc@CHelper@@QAEXXZ  00482300 f   Helper.obj
 0001:00081530       ?GCHelperStartSend@CHelper@@QAEXHHHH@Z 00482530 f   Helper.obj
 0001:00081590       ??_ECHwidManager@@UAEPAXI@Z 00482590 f i * CIL library *:* CIL module *
 0001:00081590       ??_GCHwidManager@@UAEPAXI@Z 00482590 f i HwidManager.obj
 0001:000815e0       ?InsertHwid@CHwidManager@@QAEXPADH@Z 004825e0 f   HwidManager.obj
 0001:00081930       ?ConnectHwid@CHwidManager@@QAEXPAUCG_HWID_SEND@@PAUOBJECTSTRUCT@@@Z 00482930 f   HwidManager.obj
 0001:00081b10       ??$_Erase_tree@V?$allocator@U?$_Tree_node@U?$pair@$$CBV?$basic_string@DU?$char_traits@D@std@@V?$allocator@D@2@@std@@UHardwareId_INFO@@@std@@PAX@std@@@std@@@?$_Tree_val@U?$_Tree_simple_types@U?$pair@$$CBV?$basic_string@DU?$char_traits@D@std@@V?$allocator@D@2@@std@@UHardwareId_INFO@@@std@@@std@@@std@@QAEXAAV?$allocator@U?$_Tree_node@U?$pair@$$CBV?$basic_string@DU?$char_traits@D@std@@V?$allocator@D@2@@std@@UHardwareId_INFO@@@std@@PAX@std@@@1@PAU?$_Tree_node@U?$pair@$$CBV?$basic_string@DU?$char_traits@D@std@@V?$allocator@D@2@@std@@UHardwareId_INFO@@@std@@PAX@1@@Z 00482b10 f i HwidManager.obj
 0001:00081ba0       ??1?$_Alloc_construct_ptr@V?$allocator@U?$_Tree_node@U?$pair@$$CBHUITEM_OPTION0_RATE_INFO@@@std@@PAX@std@@@std@@@std@@QAE@XZ 00482ba0 f i ItemOptionRate.obj
 0001:00081ba0       ??1?$_Alloc_construct_ptr@V?$allocator@U?$_Tree_node@U?$pair@$$CBHUMAP_MANAGER_INFO@@@std@@PAX@std@@@std@@@std@@QAE@XZ 00482ba0 f i MapManager.obj
 0001:00081ba0       ??1?$_Alloc_construct_ptr@V?$allocator@U?$_Tree_node@U?$pair@$$CBV?$basic_string@DU?$char_traits@D@std@@V?$allocator@D@2@@std@@UHardwareId_INFO@@@std@@PAX@std@@@std@@@std@@QAE@XZ 00482ba0 f i HwidManager.obj
 0001:00081ba0       ??1?$_Alloc_construct_ptr@V?$allocator@U?$_Tree_node@U?$pair@$$CBHUMAP_INFO@@@std@@PAX@std@@@std@@@std@@QAE@XZ 00482ba0 f i Message.obj
 0001:00081bc0       ??0CIllusionTemple@@QAE@XZ 00482bc0 f   IllusionTemple.obj
 0001:00081ef0       ??_ECIllusionTemple@@UAEPAXI@Z 00482ef0 f i * CIL library *:* CIL module *
 0001:00081ef0       ??_GCIllusionTemple@@UAEPAXI@Z 00482ef0 f i IllusionTemple.obj
 0001:00081f30       ?Init@CIllusionTemple@@QAEXXZ 00482f30 f   IllusionTemple.obj
 0001:00081f90       ?Load@CIllusionTemple@@QAEXPAD@Z 00482f90 f   IllusionTemple.obj
 0001:00082370       ?ProcState_EMPTY@CIllusionTemple@@QAEXPAUILLUSION_TEMPLE_LEVEL@@@Z 00483370 f   IllusionTemple.obj
 0001:000825c0       ?ProcState_STAND@CIllusionTemple@@QAEXPAUILLUSION_TEMPLE_LEVEL@@@Z 004835c0 f   IllusionTemple.obj
 0001:00082910       ?ProcState_START@CIllusionTemple@@QAEXPAUILLUSION_TEMPLE_LEVEL@@@Z 00483910 f   IllusionTemple.obj
 0001:00082c00       ?SetState@CIllusionTemple@@QAEXPAUILLUSION_TEMPLE_LEVEL@@H@Z 00483c00 f   IllusionTemple.obj
 0001:00082c80       ?SetState_EMPTY@CIllusionTemple@@QAEXPAUILLUSION_TEMPLE_LEVEL@@@Z 00483c80 f   IllusionTemple.obj
 0001:00082e60       ?SetState_STAND@CIllusionTemple@@QAEXPAUILLUSION_TEMPLE_LEVEL@@@Z 00483e60 f   IllusionTemple.obj
 0001:00082fe0       ?SetState_START@CIllusionTemple@@QAEXPAUILLUSION_TEMPLE_LEVEL@@@Z 00483fe0 f   IllusionTemple.obj
 0001:00083170       ?SetState_CLEAN@CIllusionTemple@@QAEXPAUILLUSION_TEMPLE_LEVEL@@@Z 00484170 f   IllusionTemple.obj
 0001:000835c0       ?CheckSync@CIllusionTemple@@QAEXPAUILLUSION_TEMPLE_LEVEL@@@Z 004845c0 f   IllusionTemple.obj
 0001:00083790       ?GetRemainTime@CIllusionTemple@@QAEHH@Z 00484790 f   IllusionTemple.obj
 0001:00083950       ?DelUser@CIllusionTemple@@QAE_NPAUILLUSION_TEMPLE_LEVEL@@H@Z 00484950 f   IllusionTemple.obj
 0001:00083a40       ?CheckUser@CIllusionTemple@@QAEXPAUILLUSION_TEMPLE_LEVEL@@@Z 00484a40 f   IllusionTemple.obj
 0001:00083a90       ?GetUserAbleLevel@CIllusionTemple@@QAEHPAUOBJECTSTRUCT@@@Z 00484a90 f   IllusionTemple.obj
 0001:00083bf0       ?SearchUserDropEventItem@CIllusionTemple@@QAEXH@Z 00484bf0 f   IllusionTemple.obj
 0001:00083d90       ?SearchUserDeleteEventItem@CIllusionTemple@@QAEXH@Z 00484d90 f   IllusionTemple.obj
 0001:00083e90       ?GiveUserRewardExperience@CIllusionTemple@@QAEXPAUILLUSION_TEMPLE_LEVEL@@@Z 00484e90 f   IllusionTemple.obj
 0001:00084040       ?SetStoneStatue@CIllusionTemple@@QAEXPAUILLUSION_TEMPLE_LEVEL@@@Z 00485040 f   IllusionTemple.obj
 0001:00084130       ?SetMonster@CIllusionTemple@@QAEXPAUILLUSION_TEMPLE_LEVEL@@H@Z 00485130 f   IllusionTemple.obj
 0001:00084220       ?NpcMirageTheMummy@CIllusionTemple@@QAEXPAUOBJECTSTRUCT@@0@Z 00485220 f   IllusionTemple.obj
 0001:00084460       ?NoticeSendToAll@CIllusionTemple@@QAAXPAUILLUSION_TEMPLE_LEVEL@@HPADZZ 00485460 f   IllusionTemple.obj
 0001:000844f0       ?CGIllusionTempleEnterRecv@CIllusionTemple@@QAEXPAUPMSG_ILLUSION_TEMPLE_ENTER_RECV@@H@Z 004854f0 f   IllusionTemple.obj
 0001:000847d0       ?CGIllusionTempleSkillRecv@CIllusionTemple@@QAEXPAUPMSG_ILLUSION_TEMPLE_SKILL_RECV@@H@Z 004857d0 f   IllusionTemple.obj
 0001:00084ca0       ?CGIllusionTempleButtonClickRecv@CIllusionTemple@@QAEXH@Z 00485ca0 f   IllusionTemple.obj
 0001:00084eb0       ?GCIllusionTempleBattleInfoSend@CIllusionTemple@@QAEXPAUILLUSION_TEMPLE_LEVEL@@@Z 00485eb0 f   IllusionTemple.obj
 0001:00085390       ?GCIllusionTempleChangeScenarioSend@CIllusionTemple@@QAEXPAUILLUSION_TEMPLE_LEVEL@@HH@Z 00486390 f   IllusionTemple.obj
 0001:00085410       ??_ECImperialGuardian@@UAEPAXI@Z 00486410 f i * CIL library *:* CIL module *
 0001:00085410       ??_GCImperialGuardian@@UAEPAXI@Z 00486410 f i ImperialGuardian.obj
 0001:00085440       ?Load@CImperialGuardian@@QAEXPAD@Z 00486440 f   ImperialGuardian.obj
 0001:000857f0       ?MainProc@CImperialGuardian@@QAEXXZ 004867f0 f   ImperialGuardian.obj
 0001:00085ed0       ?SetState@CImperialGuardian@@QAEXH@Z 00486ed0 f   ImperialGuardian.obj
 0001:00086470       ?SetState_PLAY3@CImperialGuardian@@QAEXXZ 00487470 f   ImperialGuardian.obj
 0001:00086610       ?SetState_CLEAN@CImperialGuardian@@QAEXXZ 00487610 f   ImperialGuardian.obj
 0001:00086920       ?AddUser@CImperialGuardian@@QAE_NH@Z 00487920 f   ImperialGuardian.obj
 0001:00086990       ?DelUser@CImperialGuardian@@QAE_NH@Z 00487990 f   ImperialGuardian.obj
 0001:00086a20       ?CheckUser@CImperialGuardian@@QAEXXZ 00487a20 f   ImperialGuardian.obj
 0001:00086a70       ?GetUserCount@CImperialGuardian@@QAEHXZ 00487a70 f   ImperialGuardian.obj
 0001:00086ae0       ?GiveUserRewardExperience@CImperialGuardian@@QAEXH@Z 00487ae0 f   ImperialGuardian.obj
 0001:00086c40       ?ClearMonster@CImperialGuardian@@QAEXXZ 00487c40 f   ImperialGuardian.obj
 0001:00086c70       ?ClearMonsterTrap@CImperialGuardian@@QAEXXZ 00487c70 f   ImperialGuardian.obj
 0001:00086cc0       ?SetSideGate@CImperialGuardian@@QAEXXZ 00487cc0 f   ImperialGuardian.obj
 0001:000870a0       ?SetLockGate@CImperialGuardian@@QAEXXZ 004880a0 f   ImperialGuardian.obj
 0001:00087480       ?SetMainGate@CImperialGuardian@@QAEXXZ 00488480 f   ImperialGuardian.obj
 0001:00087860       ?SetSideBoss@CImperialGuardian@@QAEXH@Z 00488860 f   ImperialGuardian.obj
 0001:00087c90       ?SetMainBoss@CImperialGuardian@@QAEXH@Z 00488c90 f   ImperialGuardian.obj
 0001:000880c0       ?SetMonster@CImperialGuardian@@QAEXH@Z 004890c0 f   ImperialGuardian.obj
 0001:00088520       ?SetMonsterTrap@CImperialGuardian@@QAEXH@Z 00489520 f   ImperialGuardian.obj
 0001:00088870       ?DropSideBossItem@CImperialGuardian@@QAEXPAUOBJECTSTRUCT@@0@Z 00489870 f   ImperialGuardian.obj
 0001:00088a60       ?SetSideGateZone@CImperialGuardian@@QAEXXZ 00489a60 f   ImperialGuardian.obj
 0001:00088b60       ?SetLockGateZone@CImperialGuardian@@QAEXXZ 00489b60 f   ImperialGuardian.obj
 0001:00088c60       ?SetMainGateZone@CImperialGuardian@@QAEXXZ 00489c60 f   ImperialGuardian.obj
 0001:00088d60       ?DelSideGateZone@CImperialGuardian@@QAEXXZ 00489d60 f   ImperialGuardian.obj
 0001:00088e60       ?DelLockGateZone@CImperialGuardian@@QAEXXZ 00489e60 f   ImperialGuardian.obj
 0001:00088f60       ?DelMainGateZone@CImperialGuardian@@QAEXXZ 00489f60 f   ImperialGuardian.obj
 0001:00089060       ?MonsterDieProc@CImperialGuardian@@QAEXPAUOBJECTSTRUCT@@0@Z 0048a060 f   ImperialGuardian.obj
 0001:00089240       ?CGImperialGuardianEnterRecv@CImperialGuardian@@QAEXPAUPMSG_IMPERIAL_GUARDIAN_ENTER_RECV@@H@Z 0048a240 f   ImperialGuardian.obj
 0001:00089570       ?GCImperialGuardianStateSend@CImperialGuardian@@QAEXHH@Z 0048a570 f   ImperialGuardian.obj
 0001:00089670       ?GCImperialGuardianInterfaceSend@CImperialGuardian@@QAEXXZ 0048a670 f   ImperialGuardian.obj
 0001:00089750       ??0INVASION_INFO@@QAE@XZ   0048a750 f i InvasionManager.obj
 0001:00089830       ??_GCInvasionManager@@UAEPAXI@Z 0048a830 f i InvasionManager.obj
 0001:00089830       ??_ECInvasionManager@@UAEPAXI@Z 0048a830 f i * CIL library *:* CIL module *
 0001:000898b0       ??1INVASION_INFO@@QAE@XZ   0048a8b0 f i InvasionManager.obj
 0001:00089930       ?Load@CInvasionManager@@QAEXPAD@Z 0048a930 f   InvasionManager.obj
 0001:00089f30       ?ProcState_EMPTY@CInvasionManager@@QAEXPAUINVASION_INFO@@@Z 0048af30 f   InvasionManager.obj
 0001:0008a110       ?SetState@CInvasionManager@@QAEXPAUINVASION_INFO@@H@Z 0048b110 f   InvasionManager.obj
 0001:0008a1e0       ?SetState_EMPTY@CInvasionManager@@QAEXPAUINVASION_INFO@@@Z 0048b1e0 f   InvasionManager.obj
 0001:0008a4d0       ?SetMonster@CInvasionManager@@QAEXPAUINVASION_INFO@@PAUINVASION_RESPWAN_INFO@@PAUINVASION_MONSTER_INFO@@@Z 0048b4d0 f   InvasionManager.obj
 0001:0008a7f0       ?MonsterDieProc@CInvasionManager@@QAEXPAUOBJECTSTRUCT@@0@Z 0048b7f0 f   InvasionManager.obj
 0001:0008ab00       ??0?$vector@UINVASION_RESPWAN_INFO@@V?$allocator@UINVASION_RESPWAN_INFO@@@std@@@std@@QAE@XZ 0048bb00 f i InvasionManager.obj
 0001:0008ab20       ??_ECInventoryEquipment@@UAEPAXI@Z 0048bb20 f i * CIL library *:* CIL module *
 0001:0008ab20       ??_GCInventoryEquipment@@UAEPAXI@Z 0048bb20 f i InventoryEquipment.obj
 0001:0008ab50       ?CGInventoryEquipmentRecv@CInventoryEquipment@@QAEXPAUPMSG_INVENTORY_EQUIPMENT_RECV@@H@Z 0048bb50 f   InventoryEquipment.obj
 0001:0008ad50       ??_ECIpManager@@UAEPAXI@Z  0048bd50 f i * CIL library *:* CIL module *
 0001:0008ad50       ??_GCIpManager@@UAEPAXI@Z  0048bd50 f i IpManager.obj
 0001:0008ada0       ?CheckIpAddress@CIpManager@@QAE_NPAD@Z 0048bda0 f   IpManager.obj
 0001:0008aea0       ?InsertIpAddress@CIpManager@@QAEXPAD@Z 0048bea0 f   IpManager.obj
 0001:0008b160       ?RemoveIpAddress@CIpManager@@QAEXPAD@Z 0048c160 f   IpManager.obj
 0001:0008b2a0       ??$_Erase_tree@V?$allocator@U?$_Tree_node@U?$pair@$$CBV?$basic_string@DU?$char_traits@D@std@@V?$allocator@D@2@@std@@UIP_ADDRESS_INFO@@@std@@PAX@std@@@std@@@?$_Tree_val@U?$_Tree_simple_types@U?$pair@$$CBV?$basic_string@DU?$char_traits@D@std@@V?$allocator@D@2@@std@@UIP_ADDRESS_INFO@@@std@@@std@@@std@@QAEXAAV?$allocator@U?$_Tree_node@U?$pair@$$CBV?$basic_string@DU?$char_traits@D@std@@V?$allocator@D@2@@std@@UIP_ADDRESS_INFO@@@std@@PAX@std@@@1@PAU?$_Tree_node@U?$pair@$$CBV?$basic_string@DU?$char_traits@D@std@@V?$allocator@D@2@@std@@UIP_ADDRESS_INFO@@@std@@PAX@1@@Z 0048c2a0 f i IpManager.obj
 0001:0008b330       ??0CItem@@QAE@XZ           0048c330 f   Item.obj
 0001:0008b340       ?Clear@CItem@@QAEXXZ       0048c340 f   Item.obj
 0001:0008b450       ?Convert@CItem@@QAEXHEEEEEEEQAEE@Z 0048c450 f   Item.obj
 0001:0008c8c0       ?Value@CItem@@QAEXXZ       0048d8c0 f   Item.obj
 0001:0008d300       ?OldValue@CItem@@QAEXXZ    0048e300 f   Item.obj
 0001:0008d380       ?PetValue@CItem@@QAEXXZ    0048e380 f   Item.obj
 0001:0008d430       ?SetPetItemInfo@CItem@@QAEXHH@Z 0048e430 f   Item.obj
 0001:0008d5b0       ?WeaponDurabilityDown@CItem@@QAE_NHHH@Z 0048e5b0 f   Item.obj
 0001:0008d750       ?ArmorDurabilityDown@CItem@@QAE_NHH@Z 0048e750 f   Item.obj
 0001:0008d920       ?RingDurabilityDown@CItem@@QAE_NHH@Z 0048e920 f   Item.obj
 0001:0008da00       ?LuckyDurabilityDown@CItem@@QAE_NHH@Z 0048ea00 f   Item.obj
 0001:0008dab0       ?CheckDurabilityState@CItem@@QAE_NXZ 0048eab0 f   Item.obj
 0001:0008dc30       ?AddPetItemExp@CItem@@QAE_NH@Z 0048ec30 f   Item.obj
 0001:0008de10       ?DecPetItemExp@CItem@@QAE_NH@Z 0048ee10 f   Item.obj
 0001:0008dfe0       ??_ECItemBag@@UAEPAXI@Z    0048efe0 f i * CIL library *:* CIL module *
 0001:0008dfe0       ??_GCItemBag@@UAEPAXI@Z    0048efe0 f i ItemBag.obj
 0001:0008e010       ??1CItemBag@@UAE@XZ        0048f010 f   ItemBag.obj
 0001:0008e070       ?Load@CItemBag@@QAEXPAD@Z  0048f070 f   ItemBag.obj
 0001:0008e590       ?GetItem@CItemBag@@QAE_NPAUOBJECTSTRUCT@@PAVCItem@@@Z 0048f590 f   ItemBag.obj
 0001:0008e870       ?DropItem@CItemBag@@QAE_NPAUOBJECTSTRUCT@@HHH@Z 0048f870 f   ItemBag.obj
 0001:0008eb80       ??_GCItemBagEx@@UAEPAXI@Z  0048fb80 f i ItemBagEx.obj
 0001:0008eb80       ??_ECItemBagEx@@UAEPAXI@Z  0048fb80 f i * CIL library *:* CIL module *
 0001:0008ebe0       ??1?$map@HUITEM_BAG_EX_INFO@@U?$less@H@std@@V?$allocator@U?$pair@$$CBHUITEM_BAG_EX_INFO@@@std@@@3@@std@@QAE@XZ 0048fbe0 f i ItemBagEx.obj
 0001:0008ec00       ?Load@CItemBagEx@@QAEXPAD@Z 0048fc00 f   ItemBagEx.obj
 0001:0008f3a0       ??1ITEM_BAG_EX_INFO@@QAE@XZ 004903a0 f i ItemBagEx.obj
 0001:0008f3b0       ??1?$pair@HUITEM_BAG_EX_INFO@@@std@@QAE@XZ 004903b0 f i ItemBagEx.obj
 0001:0008f3c0       ??1?$pair@HV?$vector@UITEM_BAG_EX_ITEM_INFO@@V?$allocator@UITEM_BAG_EX_ITEM_INFO@@@std@@@std@@@std@@QAE@XZ 004903c0 f i ItemBagEx.obj
 0001:0008f3c0       ??1?$pair@HV?$vector@UMONSTER_SET_BASE_INFO@@V?$allocator@UMONSTER_SET_BASE_INFO@@@std@@@std@@@std@@QAE@XZ 004903c0 f i MonsterSetBase.obj
 0001:0008f3d0       ?GetItem@CItemBagEx@@QAE_NPAUOBJECTSTRUCT@@PAVCItem@@@Z 004903d0 f   ItemBagEx.obj
 0001:0008f6b0       ?DropItem@CItemBagEx@@QAE_NPAUOBJECTSTRUCT@@HHH@Z 004906b0 f   ItemBagEx.obj
 0001:0008fba0       ?CheckDropClass@CItemBagEx@@QAE_NPAUOBJECTSTRUCT@@HQAH@Z 00490ba0 f   ItemBagEx.obj
 0001:0008fc50       ??1?$vector@UITEM_BAG_EX_ITEM_INFO@@V?$allocator@UITEM_BAG_EX_ITEM_INFO@@@std@@@std@@QAE@XZ 00490c50 f i ItemBagEx.obj
 0001:0008fc50       ??1?$vector@UMONSTER_SET_BASE_INFO@@V?$allocator@UMONSTER_SET_BASE_INFO@@@std@@@std@@QAE@XZ 00490c50 f i MonsterSetBase.obj
 0001:0008fc60       ?_Tidy@?$vector@UITEM_BAG_EX_DROP_INFO@@V?$allocator@UITEM_BAG_EX_DROP_INFO@@@std@@@std@@AAEXXZ 00490c60 f i ItemBagEx.obj
 0001:0008fcd0       ??0ITEM_BAG_EX_INFO@@QAE@ABU0@@Z 00490cd0 f i ItemBagEx.obj
 0001:0008fdb0       ??$_Erase_tree_and_orphan@V?$allocator@U?$_Tree_node@U?$pair@$$CBHV?$vector@UITEM_BAG_EX_ITEM_INFO@@V?$allocator@UITEM_BAG_EX_ITEM_INFO@@@std@@@std@@@std@@PAX@std@@@std@@@?$_Tree_val@U?$_Tree_simple_types@U?$pair@$$CBHV?$vector@UITEM_BAG_EX_ITEM_INFO@@V?$allocator@UITEM_BAG_EX_ITEM_INFO@@@std@@@std@@@std@@@std@@@std@@QAEXAAV?$allocator@U?$_Tree_node@U?$pair@$$CBHV?$vector@UITEM_BAG_EX_ITEM_INFO@@V?$allocator@UITEM_BAG_EX_ITEM_INFO@@@std@@@std@@@std@@PAX@std@@@1@PAU?$_Tree_node@U?$pair@$$CBHV?$vector@UITEM_BAG_EX_ITEM_INFO@@V?$allocator@UITEM_BAG_EX_ITEM_INFO@@@std@@@std@@@std@@PAX@1@@Z 00490db0 f i ItemBagManager.obj
 0001:0008fdb0       ??$_Erase_tree@V?$allocator@U?$_Tree_node@U?$pair@$$CBHV?$vector@UMONSTER_SET_BASE_INFO@@V?$allocator@UMONSTER_SET_BASE_INFO@@@std@@@std@@@std@@PAX@std@@@std@@@?$_Tree_val@U?$_Tree_simple_types@U?$pair@$$CBHV?$vector@UMONSTER_SET_BASE_INFO@@V?$allocator@UMONSTER_SET_BASE_INFO@@@std@@@std@@@std@@@std@@@std@@QAEXAAV?$allocator@U?$_Tree_node@U?$pair@$$CBHV?$vector@UMONSTER_SET_BASE_INFO@@V?$allocator@UMONSTER_SET_BASE_INFO@@@std@@@std@@@std@@PAX@std@@@1@PAU?$_Tree_node@U?$pair@$$CBHV?$vector@UMONSTER_SET_BASE_INFO@@V?$allocator@UMONSTER_SET_BASE_INFO@@@std@@@std@@@std@@PAX@1@@Z 00490db0 f i MonsterSetBase.obj
 0001:0008fdb0       ??$_Erase_tree@V?$allocator@U?$_Tree_node@U?$pair@$$CBHV?$vector@UITEM_BAG_EX_ITEM_INFO@@V?$allocator@UITEM_BAG_EX_ITEM_INFO@@@std@@@std@@@std@@PAX@std@@@std@@@?$_Tree_val@U?$_Tree_simple_types@U?$pair@$$CBHV?$vector@UITEM_BAG_EX_ITEM_INFO@@V?$allocator@UITEM_BAG_EX_ITEM_INFO@@@std@@@std@@@std@@@std@@@std@@QAEXAAV?$allocator@U?$_Tree_node@U?$pair@$$CBHV?$vector@UITEM_BAG_EX_ITEM_INFO@@V?$allocator@UITEM_BAG_EX_ITEM_INFO@@@std@@@std@@@std@@PAX@std@@@1@PAU?$_Tree_node@U?$pair@$$CBHV?$vector@UITEM_BAG_EX_ITEM_INFO@@V?$allocator@UITEM_BAG_EX_ITEM_INFO@@@std@@@std@@@std@@PAX@1@@Z 00490db0 f i ItemBagEx.obj
 0001:0008fdb0       ??$_Erase_tree_and_orphan@V?$allocator@U?$_Tree_node@U?$pair@$$CBHV?$vector@UMONSTER_SET_BASE_INFO@@V?$allocator@UMONSTER_SET_BASE_INFO@@@std@@@std@@@std@@PAX@std@@@std@@@?$_Tree_val@U?$_Tree_simple_types@U?$pair@$$CBHV?$vector@UMONSTER_SET_BASE_INFO@@V?$allocator@UMONSTER_SET_BASE_INFO@@@std@@@std@@@std@@@std@@@std@@QAEXAAV?$allocator@U?$_Tree_node@U?$pair@$$CBHV?$vector@UMONSTER_SET_BASE_INFO@@V?$allocator@UMONSTER_SET_BASE_INFO@@@std@@@std@@@std@@PAX@std@@@1@PAU?$_Tree_node@U?$pair@$$CBHV?$vector@UMONSTER_SET_BASE_INFO@@V?$allocator@UMONSTER_SET_BASE_INFO@@@std@@@std@@@std@@PAX@1@@Z 00490db0 f i MonsterSetBase.obj
 0001:0008fe00       ??$_Erase_tree_and_orphan@V?$allocator@U?$_Tree_node@U?$pair@$$CBHUITEM_BAG_EX_INFO@@@std@@PAX@std@@@std@@@?$_Tree_val@U?$_Tree_simple_types@U?$pair@$$CBHUITEM_BAG_EX_INFO@@@std@@@std@@@std@@QAEXAAV?$allocator@U?$_Tree_node@U?$pair@$$CBHUITEM_BAG_EX_INFO@@@std@@PAX@std@@@1@PAU?$_Tree_node@U?$pair@$$CBHUITEM_BAG_EX_INFO@@@std@@PAX@1@@Z 00490e00 f i ItemBagManager.obj
 0001:0008fe00       ??$_Erase_tree@V?$allocator@U?$_Tree_node@U?$pair@$$CBHUITEM_BAG_EX_INFO@@@std@@PAX@std@@@std@@@?$_Tree_val@U?$_Tree_simple_types@U?$pair@$$CBHUITEM_BAG_EX_INFO@@@std@@@std@@@std@@QAEXAAV?$allocator@U?$_Tree_node@U?$pair@$$CBHUITEM_BAG_EX_INFO@@@std@@PAX@std@@@1@PAU?$_Tree_node@U?$pair@$$CBHUITEM_BAG_EX_INFO@@@std@@PAX@1@@Z 00490e00 f i ItemBagEx.obj
 0001:0008fe50       ??$_Emplace_reallocate@ABUITEM_BAG_EX_DROP_INFO@@@?$vector@UITEM_BAG_EX_DROP_INFO@@V?$allocator@UITEM_BAG_EX_DROP_INFO@@@std@@@std@@QAEPAUITEM_BAG_EX_DROP_INFO@@QAU2@ABU2@@Z 00490e50 f i ItemBagEx.obj
 0001:00090010       ?_Buy_raw@?$vector@UITEM_BAG_EX_ITEM_INFO@@V?$allocator@UITEM_BAG_EX_ITEM_INFO@@@std@@@std@@AAEXI@Z 00491010 f i ItemBagEx.obj
 0001:000900a0       ??1?$_Alloc_construct_ptr@V?$allocator@U?$_Tree_node@U?$pair@$$CBHV?$vector@UITEM_BAG_EX_ITEM_INFO@@V?$allocator@UITEM_BAG_EX_ITEM_INFO@@@std@@@std@@@std@@PAX@std@@@std@@@std@@QAE@XZ 004910a0 f i ItemBagEx.obj
 0001:000900a0       ??1?$_Alloc_construct_ptr@V?$allocator@U?$_Tree_node@U?$pair@$$CBHV?$vector@UITEM_OPTION_INFO@@V?$allocator@UITEM_OPTION_INFO@@@std@@@std@@@std@@PAX@std@@@std@@@std@@QAE@XZ 004910a0 f i ItemOption.obj
 0001:000900a0       ??1?$_Alloc_construct_ptr@V?$allocator@U?$_Tree_node@U?$pair@$$CBHUITEM_OPTION1_RATE_INFO@@@std@@PAX@std@@@std@@@std@@QAE@XZ 004910a0 f i ItemOptionRate.obj
 0001:000900a0       ??1?$_Alloc_construct_ptr@V?$allocator@U?$_Tree_node@U?$pair@$$CBHV?$vector@UMONSTER_SET_BASE_INFO@@V?$allocator@UMONSTER_SET_BASE_INFO@@@std@@@std@@@std@@PAX@std@@@std@@@std@@QAE@XZ 004910a0 f i MonsterSetBase.obj
 0001:000900a0       ??1?$_Alloc_construct_ptr@V?$allocator@U?$_Tree_node@U?$pair@$$CBHUITEM_OPTION2_RATE_INFO@@@std@@PAX@std@@@std@@@std@@QAE@XZ 004910a0 f i ItemOptionRate.obj
 0001:000900a0       ??1?$_Alloc_construct_ptr@V?$allocator@U?$_Tree_node@U?$pair@$$CBHUZEN_DROP@@@std@@PAX@std@@@std@@@std@@QAE@XZ 004910a0 f i ZenDrop.obj
 0001:000900c0       ??_ECItemBagManager@@UAEPAXI@Z 004910c0 f i * CIL library *:* CIL module *
 0001:000900c0       ??_GCItemBagManager@@UAEPAXI@Z 004910c0 f i ItemBagManager.obj
 0001:00090120       ?Load@CItemBagManager@@QAEXPAD@Z 00491120 f   ItemBagManager.obj
 0001:00090690       ??1ITEM_BAG_MANAGER_INFO@@QAE@XZ 00491690 f i ItemBagManager.obj
 0001:000906a0       ??1?$pair@HUITEM_BAG_MANAGER_INFO@@@std@@QAE@XZ 004916a0 f i ItemBagManager.obj
 0001:000906b0       ?LoadEventItemBag@CItemBagManager@@QAEXXZ 004916b0 f   ItemBagManager.obj
 0001:00090a10       ?GetItemBySpecialValue@CItemBagManager@@QAE_NHPAUOBJECTSTRUCT@@PAVCItem@@@Z 00491a10 f   ItemBagManager.obj
 0001:00090a90       ?DropItemByMonsterClass@CItemBagManager@@QAE_NHPAUOBJECTSTRUCT@@HHH@Z 00491a90 f   ItemBagManager.obj
 0001:00090b20       ?DropItemBySpecialValue@CItemBagManager@@QAE_NHPAUOBJECTSTRUCT@@HHH@Z 00491b20 f   ItemBagManager.obj
 0001:00090bb0       ??C?$_Tree_iterator@V?$_Tree_val@U?$_Tree_simple_types@U?$pair@$$CBHUITEM_BAG_MANAGER_INFO@@@std@@@std@@@std@@@std@@QBEPAU?$pair@$$CBHUITEM_BAG_MANAGER_INFO@@@1@XZ 00491bb0 f i ItemBagManager.obj
 0001:00090bc0       ??0CItemBag@@QAE@ABV0@@Z   00491bc0 f i ItemBagManager.obj
 0001:00090c50       ??0CItemBagEx@@QAE@ABV0@@Z 00491c50 f i ItemBagManager.obj
 0001:00090de0       ??$insert@U?$pair@HH@std@@$0A@@?$map@HHU?$less@H@std@@V?$allocator@U?$pair@$$CBHH@std@@@2@@std@@QAE?AU?$pair@V?$_Tree_iterator@V?$_Tree_val@U?$_Tree_simple_types@U?$pair@$$CBHH@std@@@std@@@std@@@std@@_N@1@$$QAU?$pair@HH@1@@Z 00491de0 f i ItemBagManager.obj
 0001:00090ed0       ??$_Erase_tree@V?$allocator@U?$_Tree_node@U?$pair@$$CBHUITEM_BAG_MANAGER_INFO@@@std@@PAX@std@@@std@@@?$_Tree_val@U?$_Tree_simple_types@U?$pair@$$CBHUITEM_BAG_MANAGER_INFO@@@std@@@std@@@std@@QAEXAAV?$allocator@U?$_Tree_node@U?$pair@$$CBHUITEM_BAG_MANAGER_INFO@@@std@@PAX@std@@@1@PAU?$_Tree_node@U?$pair@$$CBHUITEM_BAG_MANAGER_INFO@@@std@@PAX@1@@Z 00491ed0 f i ItemBagManager.obj
 0001:00090f40       ??1?$_Tree_head_scoped_ptr@V?$allocator@U?$_Tree_node@U?$pair@$$CBHUITEM_BAG_EX_INFO@@@std@@PAX@std@@@std@@V?$_Tree_val@U?$_Tree_simple_types@U?$pair@$$CBHUITEM_BAG_EX_INFO@@@std@@@std@@@2@@std@@QAE@XZ 00491f40 f i ItemBagManager.obj
 0001:00090f70       ??1?$_Tree_head_scoped_ptr@V?$allocator@U?$_Tree_node@U?$pair@$$CBHV?$vector@UMONSTER_SET_BASE_INFO@@V?$allocator@UMONSTER_SET_BASE_INFO@@@std@@@std@@@std@@PAX@std@@@std@@V?$_Tree_val@U?$_Tree_simple_types@U?$pair@$$CBHV?$vector@UMONSTER_SET_BASE_INFO@@V?$allocator@UMONSTER_SET_BASE_INFO@@@std@@@std@@@std@@@std@@@2@@std@@QAE@XZ 00491f70 f i MonsterSetBase.obj
 0001:00090f70       ??1?$_Tree_head_scoped_ptr@V?$allocator@U?$_Tree_node@U?$pair@$$CBHV?$vector@UITEM_BAG_EX_ITEM_INFO@@V?$allocator@UITEM_BAG_EX_ITEM_INFO@@@std@@@std@@@std@@PAX@std@@@std@@V?$_Tree_val@U?$_Tree_simple_types@U?$pair@$$CBHV?$vector@UITEM_BAG_EX_ITEM_INFO@@V?$allocator@UITEM_BAG_EX_ITEM_INFO@@@std@@@std@@@std@@@std@@@2@@std@@QAE@XZ 00491f70 f i ItemBagManager.obj
 0001:00090fa0       ??1?$_Tree_temp_node_alloc@V?$allocator@U?$_Tree_node@U?$pair@$$CBHUITEM_BAG_MANAGER_INFO@@@std@@PAX@std@@@std@@@std@@QAE@XZ 00491fa0 f i ItemBagManager.obj
 0001:00090fa0       ??1?$_Alloc_construct_ptr@V?$allocator@U?$_Tree_node@U?$pair@$$CBHUITEM_BAG_MANAGER_INFO@@@std@@PAX@std@@@std@@@std@@QAE@XZ 00491fa0 f i ItemBagManager.obj
 0001:00090fd0       ??$_Copy_nodes@U_Copy_tag@?$_Tree@V?$_Tmap_traits@HV?$vector@UITEM_BAG_EX_ITEM_INFO@@V?$allocator@UITEM_BAG_EX_ITEM_INFO@@@std@@@std@@U?$less@H@2@V?$allocator@U?$pair@$$CBHV?$vector@UITEM_BAG_EX_ITEM_INFO@@V?$allocator@UITEM_BAG_EX_ITEM_INFO@@@std@@@std@@@std@@@2@$0A@@std@@@std@@@?$_Tree@V?$_Tmap_traits@HV?$vector@UITEM_BAG_EX_ITEM_INFO@@V?$allocator@UITEM_BAG_EX_ITEM_INFO@@@std@@@std@@U?$less@H@2@V?$allocator@U?$pair@$$CBHV?$vector@UITEM_BAG_EX_ITEM_INFO@@V?$allocator@UITEM_BAG_EX_ITEM_INFO@@@std@@@std@@@std@@@2@$0A@@std@@@std@@IAEPAU?$_Tree_node@U?$pair@$$CBHV?$vector@UITEM_BAG_EX_ITEM_INFO@@V?$allocator@UITEM_BAG_EX_ITEM_INFO@@@std@@@std@@@std@@PAX@1@PAU21@0U_Copy_tag@01@@Z 00491fd0 f i ItemBagManager.obj
 0001:00091120       ??$_Copy_nodes@U_Copy_tag@?$_Tree@V?$_Tmap_traits@HUITEM_BAG_EX_INFO@@U?$less@H@std@@V?$allocator@U?$pair@$$CBHUITEM_BAG_EX_INFO@@@std@@@3@$0A@@std@@@std@@@?$_Tree@V?$_Tmap_traits@HUITEM_BAG_EX_INFO@@U?$less@H@std@@V?$allocator@U?$pair@$$CBHUITEM_BAG_EX_INFO@@@std@@@3@$0A@@std@@@std@@IAEPAU?$_Tree_node@U?$pair@$$CBHUITEM_BAG_EX_INFO@@@std@@PAX@1@PAU21@0U_Copy_tag@01@@Z 00492120 f i ItemBagManager.obj
 0001:00091220       ??_ECItemDrop@@UAEPAXI@Z   00492220 f i * CIL library *:* CIL module *
 0001:00091220       ??_GCItemDrop@@UAEPAXI@Z   00492220 f i ItemDrop.obj
 0001:00091250       ?Load@CItemDrop@@QAEXPAD@Z 00492250 f   ItemDrop.obj
 0001:00091500       ?DropItem@CItemDrop@@QAEHPAUOBJECTSTRUCT@@0@Z 00492500 f   ItemDrop.obj
 0001:00091890       ??1?$vector@UITEM_DROP_INFO@@V?$allocator@UITEM_DROP_INFO@@@std@@@std@@QAE@XZ 00492890 f i ItemDrop.obj
 0001:00091890       ??1?$vector@UBOTS_DATA@@V?$allocator@UBOTS_DATA@@@std@@@std@@QAE@XZ 00492890 f i MonsterSpawn.obj
 0001:00091890       ??1?$vector@UTELEPORTS_COMMAND_DATA@@V?$allocator@UTELEPORTS_COMMAND_DATA@@@std@@@std@@QAE@XZ 00492890 f i NPCTeleport.obj
 0001:00091890       ??1?$vector@URESET_TABLE_INFO@@V?$allocator@URESET_TABLE_INFO@@@std@@@std@@QAE@XZ 00492890 f i ResetTable.obj
 0001:000918f0       ??$_Emplace_reallocate@ABUITEM_DROP_INFO@@@?$vector@UITEM_DROP_INFO@@V?$allocator@UITEM_DROP_INFO@@@std@@@std@@QAEPAUITEM_DROP_INFO@@QAU2@ABU2@@Z 004928f0 f i ItemDrop.obj
 0001:000918f0       ??$_Emplace_reallocate@ABUBOTS_DATA@@@?$vector@UBOTS_DATA@@V?$allocator@UBOTS_DATA@@@std@@@std@@QAEPAUBOTS_DATA@@QAU2@ABU2@@Z 004928f0 f i MonsterSpawn.obj
 0001:000918f0       ??$_Emplace_reallocate@ABURESET_TABLE_INFO@@@?$vector@URESET_TABLE_INFO@@V?$allocator@URESET_TABLE_INFO@@@std@@@std@@QAEPAURESET_TABLE_INFO@@QAU2@ABU2@@Z 004928f0 f i ResetTable.obj
 0001:000918f0       ??$_Emplace_reallocate@ABUTELEPORTS_COMMAND_DATA@@@?$vector@UTELEPORTS_COMMAND_DATA@@V?$allocator@UTELEPORTS_COMMAND_DATA@@@std@@@std@@QAEPAUTELEPORTS_COMMAND_DATA@@QAU2@ABU2@@Z 004928f0 f i NPCTeleport.obj
 0001:00091a70       ??_ECItemManager@@UAEPAXI@Z 00492a70 f i * CIL library *:* CIL module *
 0001:00091a70       ??_GCItemManager@@UAEPAXI@Z 00492a70 f i ItemManager.obj
 0001:00091aa0       ?Load@CItemManager@@QAEXPAD@Z 00492aa0 f   ItemManager.obj
 0001:000922b0       ?GetItemDurability@CItemManager@@QAEHHHHH@Z 004932b0 f   ItemManager.obj
 0001:00092490       ?GetItemRepairMoney@CItemManager@@QAEHPAVCItem@@H@Z 00493490 f   ItemManager.obj
 0001:00092670       ?GetInventoryItemSlot@CItemManager@@QAEHPAUOBJECTSTRUCT@@HH@Z 00493670 f   ItemManager.obj
 0001:000926f0       ?GetInventoryItemCount@CItemManager@@QAEHPAUOBJECTSTRUCT@@HH@Z 004936f0 f   ItemManager.obj
 0001:00092780       ?GetInventoryMaxValue@CItemManager@@QAEHPAUOBJECTSTRUCT@@@Z 00493780 f   ItemManager.obj
 0001:000927e0       ?CheckItemRequireClass@CItemManager@@QAE_NPAUOBJECTSTRUCT@@H@Z 004937e0 f   ItemManager.obj
 0001:000928a0       ?CheckItemMoveToInventory@CItemManager@@QAE_NPAUOBJECTSTRUCT@@PAVCItem@@H@Z 004938a0 f   ItemManager.obj
 0001:00092ba0       ?CheckItemMoveToTrade@CItemManager@@QAE_NPAUOBJECTSTRUCT@@PAVCItem@@E@Z 00493ba0 f   ItemManager.obj
 0001:00092c40       ?CheckItemMoveToBlock@CItemManager@@QAE_NPAUOBJECTSTRUCT@@PAVCItem@@@Z 00493c40 f   ItemManager.obj
 0001:00092d60       ?CheckItemInventorySpace@CItemManager@@QAE_NPAUOBJECTSTRUCT@@H@Z 00493d60 f   ItemManager.obj
 0001:00092e20       ?CheckItemInventorySpace@CItemManager@@QAE_NPAUOBJECTSTRUCT@@HH@Z 00493e20 f   ItemManager.obj
 0001:00092ea0       ?InventoryItemSet@CItemManager@@QAEXHHE@Z 00493ea0 f   ItemManager.obj
 0001:00093090       ?InventoryRectCheck@CItemManager@@QAEEHHHHH@Z 00494090 f   ItemManager.obj
 0001:000931b0       ?InventoryInsertItem@CItemManager@@QAEEHVCItem@@@Z 004941b0 f   ItemManager.obj
 0001:000932c0       ?InventoryAddItem@CItemManager@@QAEEHVCItem@@H@Z 004942c0 f   ItemManager.obj
 0001:00093470       ?InventoryDelItem@CItemManager@@QAEXHH@Z 00494470 f   ItemManager.obj
 0001:00093650       ?InventoryInsertItemStack@CItemManager@@QAE_NPAUOBJECTSTRUCT@@PAVCItem@@@Z 00494650 f   ItemManager.obj
 0001:00093860       ?InventoryAddItemStack@CItemManager@@QAE_NPAUOBJECTSTRUCT@@HH@Z 00494860 f   ItemManager.obj
 0001:00093a90       ?InventoryCheckInsertItem@CItemManager@@QAEEHG@Z 00494a90 f   ItemManager.obj
 0001:00093b50       ?TradeItemSet@CItemManager@@QAEXHHE@Z 00494b50 f   ItemManager.obj
 0001:00093c50       ?TradeRectCheck@CItemManager@@QAEEHHHHH@Z 00494c50 f   ItemManager.obj
 0001:00093cd0       ?TradeAddItem@CItemManager@@QAEEHVCItem@@H@Z 00494cd0 f   ItemManager.obj
 0001:00093de0       ?WarehouseItemSet@CItemManager@@QAEXHHE@Z 00494de0 f   ItemManager.obj
 0001:00093f10       ?WarehouseRectCheck@CItemManager@@QAEEHHHHH@Z 00494f10 f   ItemManager.obj
 0001:00093fc0       ?WarehouseAddItem@CItemManager@@QAEEHVCItem@@H@Z 00494fc0 f   ItemManager.obj
 0001:000940e0       ?GuildWarehouseItemSet@CItemManager@@QAEXHHE@Z 004950e0 f   ItemManager.obj
 0001:00094210       ?GuildWarehouseAddItem@CItemManager@@QAEEHVCItem@@H@Z 00495210 f   ItemManager.obj
 0001:000943a0       ?ChaosBoxItemSet@CItemManager@@QAEXHHE@Z 004953a0 f   ItemManager.obj
 0001:000944a0       ?ChaosBoxRectCheck@CItemManager@@QAEEHHHHH@Z 004954a0 f   ItemManager.obj
 0001:00094520       ?ChaosBoxAddItem@CItemManager@@QAEEHVCItem@@H@Z 00495520 f   ItemManager.obj
 0001:00094640       ?ItemByteConvert@CItemManager@@QAEXPAEVCItem@@@Z 00495640 f   ItemManager.obj
 0001:00094700       ?DBItemByteConvert@CItemManager@@QAEXPAEPAVCItem@@@Z 00495700 f   ItemManager.obj
 0001:00094860       ?ConvertItemByte@CItemManager@@QAE_NPAVCItem@@PAE@Z 00495860 f   ItemManager.obj
 0001:00094a90       ?IsValidItem@CItemManager@@QAE_NPAUOBJECTSTRUCT@@PAVCItem@@@Z 00495a90 f   ItemManager.obj
 0001:00094b80       ?UpdateInventoryViewport@CItemManager@@QAEXHH@Z 00495b80 f   ItemManager.obj
 0001:00094c90       ?DeleteInventoryItemCount@CItemManager@@QAEXPAUOBJECTSTRUCT@@HHH@Z 00495c90 f   ItemManager.obj
 0001:00094df0       ?DecreaseItemDur@CItemManager@@QAEXPAUOBJECTSTRUCT@@HH@Z 00495df0 f   ItemManager.obj
 0001:00094eb0       ?RepairItem@CItemManager@@QAEHPAUOBJECTSTRUCT@@PAVCItem@@HH@Z 00495eb0 f   ItemManager.obj
 0001:00095150       ?MoveItemToInventoryFromInventory@CItemManager@@QAEEPAUOBJECTSTRUCT@@EEE@Z 00496150 f   ItemManager.obj
 0001:00095320       ?MoveItemToInventoryFromTrade@CItemManager@@QAEEPAUOBJECTSTRUCT@@EEE@Z 00496320 f   ItemManager.obj
 0001:000954f0       ?MoveItemToInventoryFromWarehouse@CItemManager@@QAEEPAUOBJECTSTRUCT@@EEE@Z 004964f0 f   ItemManager.obj
 0001:00095760       ?MoveItemToWarehouseFromInventory@CItemManager@@QAEEPAUOBJECTSTRUCT@@EEE@Z 00496760 f   ItemManager.obj
 0001:00095920       ?MoveItemToWarehouseFromWarehouse@CItemManager@@QAEEPAUOBJECTSTRUCT@@EEE@Z 00496920 f   ItemManager.obj
 0001:00095b20       ?MoveItemToChaosBoxFromInventory@CItemManager@@QAEEPAUOBJECTSTRUCT@@EEE@Z 00496b20 f   ItemManager.obj
 0001:00095c80       ?CGItemGetRecv@CItemManager@@QAEXPAUPMSG_ITEM_GET_RECV@@H@Z 00496c80 f   ItemManager.obj
 0001:00096be0       ?CGItemDropRecv@CItemManager@@QAEXPAUPMSG_ITEM_DROP_RECV@@H@Z 00497be0 f   ItemManager.obj
 0001:000971d0       ?CGItemMoveRecv@CItemManager@@QAEXPAUPMSG_ITEM_MOVE_RECV@@H@Z 004981d0 f   ItemManager.obj
 0001:00098080       ?CGItemUseRecv@CItemManager@@QAEXPAUPMSG_ITEM_USE_RECV@@H@Z 00499080 f   ItemManager.obj
 0001:00098b20       ?CGItemBuyRecv@CItemManager@@QAEXPAUPMSG_ITEM_BUY_RECV@@H@Z 00499b20 f   ItemManager.obj
 0001:000993c0       ?CGItemBuyRecvCallback@CItemManager@@SAXPAUOBJECTSTRUCT@@EKKKK@Z 0049a3c0 f   ItemManager.obj
 0001:0009a380       ?CGItemSellRecv@CItemManager@@QAEXPAUPMSG_ITEM_SELL_RECV@@H@Z 0049b380 f   ItemManager.obj
 0001:0009aca0       ?CGItemRepairRecv@CItemManager@@QAEXPAUPMSG_ITEM_REPAIR_RECV@@H@Z 0049bca0 f   ItemManager.obj
 0001:0009ae50       ?GCItemDeleteSend@CItemManager@@QAEXHEE@Z 0049be50 f   ItemManager.obj
 0001:0009ae90       ?GCItemListSend@CItemManager@@QAEXH@Z 0049be90 f   ItemManager.obj
 0001:0009b000       ?CGMoveItemProc@CItemManager@@QAEXPAUPMSG_MOVEITEM@@F@Z 0049c000 f   ItemManager.obj
 0001:0009b730       ?clear@?$_Tree@V?$_Tmap_traits@HUITEM_INFO@@U?$less@H@std@@V?$allocator@U?$pair@$$CBHUITEM_INFO@@@std@@@3@$0A@@std@@@std@@QAEXXZ 0049c730 f i ItemManager.obj
 0001:0009b780       ??1?$_Tree@V?$_Tmap_traits@HUITEM_INFO@@U?$less@H@std@@V?$allocator@U?$pair@$$CBHUITEM_INFO@@@std@@@3@$0A@@std@@@std@@QAE@XZ 0049c780 f i ItemManager.obj
 0001:0009b7d0       ??$_Erase_tree@V?$allocator@U?$_Tree_node@U?$pair@$$CBHUITEM_INFO@@@std@@PAX@std@@@std@@@?$_Tree_val@U?$_Tree_simple_types@U?$pair@$$CBHUITEM_INFO@@@std@@@std@@@std@@QAEXAAV?$allocator@U?$_Tree_node@U?$pair@$$CBHUITEM_INFO@@@std@@PAX@std@@@1@PAU?$_Tree_node@U?$pair@$$CBHUITEM_INFO@@@std@@PAX@1@@Z 0049c7d0 f i ItemManager.obj
 0001:0009b810       ??1?$_Alloc_construct_ptr@V?$allocator@U?$_Tree_node@U?$pair@$$CBHUITEM_INFO@@@std@@PAX@std@@@std@@@std@@QAE@XZ 0049c810 f i ItemManager.obj
 0001:0009b830       ?DGAnsItemList@CItemMarket@@QAEXPAUSDHP_ANS_MARKET_ITEM@@@Z 0049c830 f   ItemMarket.obj
 0001:0009ba50       ?DGAnsItemBuy@CItemMarket@@QAEXPAUSDHP_ANS_MARKET_BUY@@@Z 0049ca50 f   ItemMarket.obj
 0001:0009bd20       ??_ECItemMove@@UAEPAXI@Z   0049cd20 f i * CIL library *:* CIL module *
 0001:0009bd20       ??_GCItemMove@@UAEPAXI@Z   0049cd20 f i ItemMove.obj
 0001:0009bd50       ?Load@CItemMove@@QAEXPAD@Z 0049cd50 f   ItemMove.obj
 0001:0009bfb0       ??_ECItemOption@@UAEPAXI@Z 0049cfb0 f i * CIL library *:* CIL module *
 0001:0009bfb0       ??_GCItemOption@@UAEPAXI@Z 0049cfb0 f i ItemOption.obj
 0001:0009bfe0       ?Load@CItemOption@@QAEXPAD@Z 0049cfe0 f   ItemOption.obj
 0001:0009c380       ??1?$pair@HV?$vector@UITEM_OPTION_INFO@@V?$allocator@UITEM_OPTION_INFO@@@std@@@std@@@std@@QAE@XZ 0049d380 f i ItemOption.obj
 0001:0009c390       ?GetItemOption@CItemOption@@QAE_NHPAVCItem@@@Z 0049d390 f   ItemOption.obj
 0001:0009c5f0       ?CalcItemCommonOption@CItemOption@@QAEXPAUOBJECTSTRUCT@@_N@Z 0049d5f0 f   ItemOption.obj
 0001:0009c660       ?InsertOption@CItemOption@@QAEXPAUOBJECTSTRUCT@@PAVCItem@@_N@Z 0049d660 f   ItemOption.obj
 0001:0009cd30       ??1?$vector@UITEM_OPTION_INFO@@V?$allocator@UITEM_OPTION_INFO@@@std@@@std@@QAE@XZ 0049dd30 f i ItemOption.obj
 0001:0009cd40       ?clear@?$_Tree@V?$_Tmap_traits@HV?$vector@UITEM_OPTION_INFO@@V?$allocator@UITEM_OPTION_INFO@@@std@@@std@@U?$less@H@2@V?$allocator@U?$pair@$$CBHV?$vector@UITEM_OPTION_INFO@@V?$allocator@UITEM_OPTION_INFO@@@std@@@std@@@std@@@2@$0A@@std@@@std@@QAEXXZ 0049dd40 f i ItemOption.obj
 0001:0009cdb0       ??1?$_Tree@V?$_Tmap_traits@HV?$vector@UITEM_OPTION_INFO@@V?$allocator@UITEM_OPTION_INFO@@@std@@@std@@U?$less@H@2@V?$allocator@U?$pair@$$CBHV?$vector@UITEM_OPTION_INFO@@V?$allocator@UITEM_OPTION_INFO@@@std@@@std@@@std@@@2@$0A@@std@@@std@@QAE@XZ 0049ddb0 f i ItemOption.obj
 0001:0009ce00       ??$_Erase_tree@V?$allocator@U?$_Tree_node@U?$pair@$$CBHV?$vector@UITEM_OPTION_INFO@@V?$allocator@UITEM_OPTION_INFO@@@std@@@std@@@std@@PAX@std@@@std@@@?$_Tree_val@U?$_Tree_simple_types@U?$pair@$$CBHV?$vector@UITEM_OPTION_INFO@@V?$allocator@UITEM_OPTION_INFO@@@std@@@std@@@std@@@std@@@std@@QAEXAAV?$allocator@U?$_Tree_node@U?$pair@$$CBHV?$vector@UITEM_OPTION_INFO@@V?$allocator@UITEM_OPTION_INFO@@@std@@@std@@@std@@PAX@std@@@1@PAU?$_Tree_node@U?$pair@$$CBHV?$vector@UITEM_OPTION_INFO@@V?$allocator@UITEM_OPTION_INFO@@@std@@@std@@@std@@PAX@1@@Z 0049de00 f i ItemOption.obj
 0001:0009ce50       ??0CItemOptionRate@@QAE@XZ 0049de50 f   ItemOptionRate.obj
 0001:0009d080       ??_GCItemOptionRate@@UAEPAXI@Z 0049e080 f i ItemOptionRate.obj
 0001:0009d080       ??_ECItemOptionRate@@UAEPAXI@Z 0049e080 f i * CIL library *:* CIL module *
 0001:0009d0f0       ??1?$map@HUPENTAGRAM_OPTION_INFO@@U?$less@H@std@@V?$allocator@U?$pair@$$CBHUPENTAGRAM_OPTION_INFO@@@std@@@3@@std@@QAE@XZ 0049e0f0 f i PentagramSystem.obj
 0001:0009d0f0       ??1?$map@HUITEM_OPTION0_RATE_INFO@@U?$less@H@std@@V?$allocator@U?$pair@$$CBHUITEM_OPTION0_RATE_INFO@@@std@@@3@@std@@QAE@XZ 0049e0f0 f i ItemOptionRate.obj
 0001:0009d100       ??1?$map@HUPENTAGRAM_JEWEL_UPGRADE_RANK_INFO@@U?$less@H@std@@V?$allocator@U?$pair@$$CBHUPENTAGRAM_JEWEL_UPGRADE_RANK_INFO@@@std@@@3@@std@@QAE@XZ 0049e100 f i PentagramSystem.obj
 0001:0009d100       ??1?$map@HUITEM_OPTION2_RATE_INFO@@U?$less@H@std@@V?$allocator@U?$pair@$$CBHUITEM_OPTION2_RATE_INFO@@@std@@@3@@std@@QAE@XZ 0049e100 f i ItemOptionRate.obj
 0001:0009d100       ??1?$map@HUITEM_OPTION1_RATE_INFO@@U?$less@H@std@@V?$allocator@U?$pair@$$CBHUITEM_OPTION1_RATE_INFO@@@std@@@3@@std@@QAE@XZ 0049e100 f i ItemOptionRate.obj
 0001:0009d100       ??1?$map@HUPENTAGRAM_TYPE_INFO@@U?$less@H@std@@V?$allocator@U?$pair@$$CBHUPENTAGRAM_TYPE_INFO@@@std@@@3@@std@@QAE@XZ 0049e100 f i PentagramSystem.obj
 0001:0009d110       ??1?$map@HUITEM_OPTION3_RATE_INFO@@U?$less@H@std@@V?$allocator@U?$pair@$$CBHUITEM_OPTION3_RATE_INFO@@@std@@@3@@std@@QAE@XZ 0049e110 f i ItemOptionRate.obj
 0001:0009d120       ??1?$map@HUITEM_OPTION4_RATE_INFO@@U?$less@H@std@@V?$allocator@U?$pair@$$CBHUITEM_OPTION4_RATE_INFO@@@std@@@3@@std@@QAE@XZ 0049e120 f i ItemOptionRate.obj
 0001:0009d130       ??1?$map@HUITEM_OPTION5_RATE_INFO@@U?$less@H@std@@V?$allocator@U?$pair@$$CBHUITEM_OPTION5_RATE_INFO@@@std@@@3@@std@@QAE@XZ 0049e130 f i ItemOptionRate.obj
 0001:0009d140       ??1?$map@HUITEM_OPTION6_RATE_INFO@@U?$less@H@std@@V?$allocator@U?$pair@$$CBHUITEM_OPTION6_RATE_INFO@@@std@@@3@@std@@QAE@XZ 0049e140 f i ItemOptionRate.obj
 0001:0009d150       ?Load@CItemOptionRate@@QAEXPAD@Z 0049e150 f   ItemOptionRate.obj
 0001:0009de80       ?GetItemOption0@CItemOptionRate@@QAE_NHPAE@Z 0049ee80 f   ItemOptionRate.obj
 0001:0009dfe0       ?GetItemOption1@CItemOptionRate@@QAE_NHPAE@Z 0049efe0 f   ItemOptionRate.obj
 0001:0009e130       ?GetItemOption2@CItemOptionRate@@QAE_NHPAE@Z 0049f130 f   ItemOptionRate.obj
 0001:0009e280       ?GetItemOption3@CItemOptionRate@@QAE_NHPAE@Z 0049f280 f   ItemOptionRate.obj
 0001:0009e3d0       ?GetItemOption4@CItemOptionRate@@QAE_NHPAE@Z 0049f3d0 f   ItemOptionRate.obj
 0001:0009e520       ?GetItemOption5@CItemOptionRate@@QAE_NHPAE@Z 0049f520 f   ItemOptionRate.obj
 0001:0009e670       ?GetItemOption6@CItemOptionRate@@QAE_NHPAE@Z 0049f670 f   ItemOptionRate.obj
 0001:0009e7c0       ?MakeNewOption@CItemOptionRate@@QAE_NHHPAEH@Z 0049f7c0 f   ItemOptionRate.obj
 0001:0009ea40       ?MakeSetOption@CItemOptionRate@@QAE_NHHPAE@Z 0049fa40 f   ItemOptionRate.obj
 0001:0009eb00       ?MakeSocketOption@CItemOptionRate@@QAE_NHHPAE@Z 0049fb00 f   ItemOptionRate.obj
 0001:0009ec60       ?clear@?$_Tree@V?$_Tmap_traits@HUITEM_EXCELLENT_RATE_INFO@@U?$less@H@std@@V?$allocator@U?$pair@$$CBHUITEM_EXCELLENT_RATE_INFO@@@std@@@3@$0A@@std@@@std@@QAEXXZ 0049fc60 f i ItemOptionRate.obj
 0001:0009ec60       ?clear@?$_Tree@V?$_Tmap_traits@HUITEM_OPTION6_RATE_INFO@@U?$less@H@std@@V?$allocator@U?$pair@$$CBHUITEM_OPTION6_RATE_INFO@@@std@@@3@$0A@@std@@@std@@QAEXXZ 0049fc60 f i ItemOptionRate.obj
 0001:0009ecb0       ??1?$_Tree@V?$_Tmap_traits@HUPENTAGRAM_JEWEL_UPGRADE_LEVEL_INFO@@U?$less@H@std@@V?$allocator@U?$pair@$$CBHUPENTAGRAM_JEWEL_UPGRADE_LEVEL_INFO@@@std@@@3@$0A@@std@@@std@@QAE@XZ 0049fcb0 f i PentagramSystem.obj
 0001:0009ecb0       ??1?$_Tree@V?$_Tmap_traits@HUITEM_OPTION6_RATE_INFO@@U?$less@H@std@@V?$allocator@U?$pair@$$CBHUITEM_OPTION6_RATE_INFO@@@std@@@3@$0A@@std@@@std@@QAE@XZ 0049fcb0 f i ItemOptionRate.obj
 0001:0009ecb0       ??1?$_Tree@V?$_Tmap_traits@HUITEM_EXCELLENT_RATE_INFO@@U?$less@H@std@@V?$allocator@U?$pair@$$CBHUITEM_EXCELLENT_RATE_INFO@@@std@@@3@$0A@@std@@@std@@QAE@XZ 0049fcb0 f i ItemOptionRate.obj
 0001:0009ecf0       ?clear@?$_Tree@V?$_Tmap_traits@HUITEM_OPTION5_RATE_INFO@@U?$less@H@std@@V?$allocator@U?$pair@$$CBHUITEM_OPTION5_RATE_INFO@@@std@@@3@$0A@@std@@@std@@QAEXXZ 0049fcf0 f i ItemOptionRate.obj
 0001:0009ed40       ??1?$_Tree@V?$_Tmap_traits@HUITEM_OPTION5_RATE_INFO@@U?$less@H@std@@V?$allocator@U?$pair@$$CBHUITEM_OPTION5_RATE_INFO@@@std@@@3@$0A@@std@@@std@@QAE@XZ 0049fd40 f i ItemOptionRate.obj
 0001:0009ed80       ?clear@?$_Tree@V?$_Tmap_traits@HUITEM_OPTION4_RATE_INFO@@U?$less@H@std@@V?$allocator@U?$pair@$$CBHUITEM_OPTION4_RATE_INFO@@@std@@@3@$0A@@std@@@std@@QAEXXZ 0049fd80 f i ItemOptionRate.obj
 0001:0009edd0       ??1?$_Tree@V?$_Tmap_traits@HUITEM_OPTION4_RATE_INFO@@U?$less@H@std@@V?$allocator@U?$pair@$$CBHUITEM_OPTION4_RATE_INFO@@@std@@@3@$0A@@std@@@std@@QAE@XZ 0049fdd0 f i ItemOptionRate.obj
 0001:0009ee10       ?clear@?$_Tree@V?$_Tmap_traits@HUITEM_OPTION3_RATE_INFO@@U?$less@H@std@@V?$allocator@U?$pair@$$CBHUITEM_OPTION3_RATE_INFO@@@std@@@3@$0A@@std@@@std@@QAEXXZ 0049fe10 f i ItemOptionRate.obj
 0001:0009ee60       ??1?$_Tree@V?$_Tmap_traits@HUITEM_OPTION3_RATE_INFO@@U?$less@H@std@@V?$allocator@U?$pair@$$CBHUITEM_OPTION3_RATE_INFO@@@std@@@3@$0A@@std@@@std@@QAE@XZ 0049fe60 f i ItemOptionRate.obj
 0001:0009eea0       ?clear@?$_Tree@V?$_Tmap_traits@HUITEM_OPTION2_RATE_INFO@@U?$less@H@std@@V?$allocator@U?$pair@$$CBHUITEM_OPTION2_RATE_INFO@@@std@@@3@$0A@@std@@@std@@QAEXXZ 0049fea0 f i ItemOptionRate.obj
 0001:0009eea0       ?clear@?$_Tree@V?$_Tmap_traits@HUITEM_OPTION1_RATE_INFO@@U?$less@H@std@@V?$allocator@U?$pair@$$CBHUITEM_OPTION1_RATE_INFO@@@std@@@3@$0A@@std@@@std@@QAEXXZ 0049fea0 f i ItemOptionRate.obj
 0001:0009eef0       ??1?$_Tree@V?$_Tmap_traits@HUPENTAGRAM_TYPE_INFO@@U?$less@H@std@@V?$allocator@U?$pair@$$CBHUPENTAGRAM_TYPE_INFO@@@std@@@3@$0A@@std@@@std@@QAE@XZ 0049fef0 f i PentagramSystem.obj
 0001:0009eef0       ??1?$_Tree@V?$_Tmap_traits@HUZEN_DROP@@U?$less@H@std@@V?$allocator@U?$pair@$$CBHUZEN_DROP@@@std@@@3@$0A@@std@@@std@@QAE@XZ 0049fef0 f i ZenDrop.obj
 0001:0009eef0       ??1?$_Tree@V?$_Tmap_traits@HUITEM_OPTION2_RATE_INFO@@U?$less@H@std@@V?$allocator@U?$pair@$$CBHUITEM_OPTION2_RATE_INFO@@@std@@@3@$0A@@std@@@std@@QAE@XZ 0049fef0 f i ItemOptionRate.obj
 0001:0009eef0       ??1?$_Tree@V?$_Tmap_traits@HUPENTAGRAM_JEWEL_UPGRADE_RANK_INFO@@U?$less@H@std@@V?$allocator@U?$pair@$$CBHUPENTAGRAM_JEWEL_UPGRADE_RANK_INFO@@@std@@@3@$0A@@std@@@std@@QAE@XZ 0049fef0 f i PentagramSystem.obj
 0001:0009eef0       ??1?$_Tree@V?$_Tmap_traits@HUITEM_OPTION1_RATE_INFO@@U?$less@H@std@@V?$allocator@U?$pair@$$CBHUITEM_OPTION1_RATE_INFO@@@std@@@3@$0A@@std@@@std@@QAE@XZ 0049fef0 f i ItemOptionRate.obj
 0001:0009ef30       ?clear@?$_Tree@V?$_Tmap_traits@HUMAP_MANAGER_INFO@@U?$less@H@std@@V?$allocator@U?$pair@$$CBHUMAP_MANAGER_INFO@@@std@@@3@$0A@@std@@@std@@QAEXXZ 0049ff30 f i MapManager.obj
 0001:0009ef30       ?clear@?$_Tree@V?$_Tmap_traits@HUITEM_OPTION0_RATE_INFO@@U?$less@H@std@@V?$allocator@U?$pair@$$CBHUITEM_OPTION0_RATE_INFO@@@std@@@3@$0A@@std@@@std@@QAEXXZ 0049ff30 f i ItemOptionRate.obj
 0001:0009ef80       ??1?$_Tree@V?$_Tmap_traits@HUMAP_MANAGER_INFO@@U?$less@H@std@@V?$allocator@U?$pair@$$CBHUMAP_MANAGER_INFO@@@std@@@3@$0A@@std@@@std@@QAE@XZ 0049ff80 f i MapManager.obj
 0001:0009ef80       ??1?$_Tree@V?$_Tmap_traits@HUMAP_INFO@@U?$less@H@std@@V?$allocator@U?$pair@$$CBHUMAP_INFO@@@std@@@3@$0A@@std@@@std@@QAE@XZ 0049ff80 f i Message.obj
 0001:0009ef80       ??1?$_Tree@V?$_Tmap_traits@HUITEM_OPTION0_RATE_INFO@@U?$less@H@std@@V?$allocator@U?$pair@$$CBHUITEM_OPTION0_RATE_INFO@@@std@@@3@$0A@@std@@@std@@QAE@XZ 0049ff80 f i ItemOptionRate.obj
 0001:0009ef80       ??1?$_Tree@V?$_Tmap_traits@HUPENTAGRAM_OPTION_INFO@@U?$less@H@std@@V?$allocator@U?$pair@$$CBHUPENTAGRAM_OPTION_INFO@@@std@@@3@$0A@@std@@@std@@QAE@XZ 0049ff80 f i PentagramSystem.obj
 0001:0009efc0       ??$_Erase_tree@V?$allocator@U?$_Tree_node@U?$pair@$$CBHUITEM_EXCELLENT_RATE_INFO@@@std@@PAX@std@@@std@@@?$_Tree_val@U?$_Tree_simple_types@U?$pair@$$CBHUITEM_EXCELLENT_RATE_INFO@@@std@@@std@@@std@@QAEXAAV?$allocator@U?$_Tree_node@U?$pair@$$CBHUITEM_EXCELLENT_RATE_INFO@@@std@@PAX@std@@@1@PAU?$_Tree_node@U?$pair@$$CBHUITEM_EXCELLENT_RATE_INFO@@@std@@PAX@1@@Z 0049ffc0 f i ItemOptionRate.obj
 0001:0009efc0       ??$_Erase_tree@V?$allocator@U?$_Tree_node@U?$pair@$$CBHUPENTAGRAM_JEWEL_UPGRADE_LEVEL_INFO@@@std@@PAX@std@@@std@@@?$_Tree_val@U?$_Tree_simple_types@U?$pair@$$CBHUPENTAGRAM_JEWEL_UPGRADE_LEVEL_INFO@@@std@@@std@@@std@@QAEXAAV?$allocator@U?$_Tree_node@U?$pair@$$CBHUPENTAGRAM_JEWEL_UPGRADE_LEVEL_INFO@@@std@@PAX@std@@@1@PAU?$_Tree_node@U?$pair@$$CBHUPENTAGRAM_JEWEL_UPGRADE_LEVEL_INFO@@@std@@PAX@1@@Z 0049ffc0 f i PentagramSystem.obj
 0001:0009efc0       ??$_Erase_tree@V?$allocator@U?$_Tree_node@U?$pair@$$CBHUITEM_OPTION6_RATE_INFO@@@std@@PAX@std@@@std@@@?$_Tree_val@U?$_Tree_simple_types@U?$pair@$$CBHUITEM_OPTION6_RATE_INFO@@@std@@@std@@@std@@QAEXAAV?$allocator@U?$_Tree_node@U?$pair@$$CBHUITEM_OPTION6_RATE_INFO@@@std@@PAX@std@@@1@PAU?$_Tree_node@U?$pair@$$CBHUITEM_OPTION6_RATE_INFO@@@std@@PAX@1@@Z 0049ffc0 f i ItemOptionRate.obj
 0001:0009f000       ??$_Erase_tree@V?$allocator@U?$_Tree_node@U?$pair@$$CBHUITEM_OPTION5_RATE_INFO@@@std@@PAX@std@@@std@@@?$_Tree_val@U?$_Tree_simple_types@U?$pair@$$CBHUITEM_OPTION5_RATE_INFO@@@std@@@std@@@std@@QAEXAAV?$allocator@U?$_Tree_node@U?$pair@$$CBHUITEM_OPTION5_RATE_INFO@@@std@@PAX@std@@@1@PAU?$_Tree_node@U?$pair@$$CBHUITEM_OPTION5_RATE_INFO@@@std@@PAX@1@@Z 004a0000 f i ItemOptionRate.obj
 0001:0009f040       ??$_Erase_tree@V?$allocator@U?$_Tree_node@U?$pair@$$CBHUITEM_OPTION4_RATE_INFO@@@std@@PAX@std@@@std@@@?$_Tree_val@U?$_Tree_simple_types@U?$pair@$$CBHUITEM_OPTION4_RATE_INFO@@@std@@@std@@@std@@QAEXAAV?$allocator@U?$_Tree_node@U?$pair@$$CBHUITEM_OPTION4_RATE_INFO@@@std@@PAX@std@@@1@PAU?$_Tree_node@U?$pair@$$CBHUITEM_OPTION4_RATE_INFO@@@std@@PAX@1@@Z 004a0040 f i ItemOptionRate.obj
 0001:0009f080       ??$_Erase_tree@V?$allocator@U?$_Tree_node@U?$pair@$$CBHUITEM_OPTION3_RATE_INFO@@@std@@PAX@std@@@std@@@?$_Tree_val@U?$_Tree_simple_types@U?$pair@$$CBHUITEM_OPTION3_RATE_INFO@@@std@@@std@@@std@@QAEXAAV?$allocator@U?$_Tree_node@U?$pair@$$CBHUITEM_OPTION3_RATE_INFO@@@std@@PAX@std@@@1@PAU?$_Tree_node@U?$pair@$$CBHUITEM_OPTION3_RATE_INFO@@@std@@PAX@1@@Z 004a0080 f i ItemOptionRate.obj
 0001:0009f0c0       ??$_Erase_tree@V?$allocator@U?$_Tree_node@U?$pair@$$CBHUITEM_OPTION2_RATE_INFO@@@std@@PAX@std@@@std@@@?$_Tree_val@U?$_Tree_simple_types@U?$pair@$$CBHUITEM_OPTION2_RATE_INFO@@@std@@@std@@@std@@QAEXAAV?$allocator@U?$_Tree_node@U?$pair@$$CBHUITEM_OPTION2_RATE_INFO@@@std@@PAX@std@@@1@PAU?$_Tree_node@U?$pair@$$CBHUITEM_OPTION2_RATE_INFO@@@std@@PAX@1@@Z 004a00c0 f i ItemOptionRate.obj
 0001:0009f0c0       ??$_Erase_tree@V?$allocator@U?$_Tree_node@U?$pair@$$CBHUPENTAGRAM_TYPE_INFO@@@std@@PAX@std@@@std@@@?$_Tree_val@U?$_Tree_simple_types@U?$pair@$$CBHUPENTAGRAM_TYPE_INFO@@@std@@@std@@@std@@QAEXAAV?$allocator@U?$_Tree_node@U?$pair@$$CBHUPENTAGRAM_TYPE_INFO@@@std@@PAX@std@@@1@PAU?$_Tree_node@U?$pair@$$CBHUPENTAGRAM_TYPE_INFO@@@std@@PAX@1@@Z 004a00c0 f i PentagramSystem.obj
 0001:0009f0c0       ??$_Erase_tree@V?$allocator@U?$_Tree_node@U?$pair@$$CBHUITEM_OPTION1_RATE_INFO@@@std@@PAX@std@@@std@@@?$_Tree_val@U?$_Tree_simple_types@U?$pair@$$CBHUITEM_OPTION1_RATE_INFO@@@std@@@std@@@std@@QAEXAAV?$allocator@U?$_Tree_node@U?$pair@$$CBHUITEM_OPTION1_RATE_INFO@@@std@@PAX@std@@@1@PAU?$_Tree_node@U?$pair@$$CBHUITEM_OPTION1_RATE_INFO@@@std@@PAX@1@@Z 004a00c0 f i ItemOptionRate.obj
 0001:0009f0c0       ??$_Erase_tree@V?$allocator@U?$_Tree_node@U?$pair@$$CBHUPENTAGRAM_JEWEL_UPGRADE_RANK_INFO@@@std@@PAX@std@@@std@@@?$_Tree_val@U?$_Tree_simple_types@U?$pair@$$CBHUPENTAGRAM_JEWEL_UPGRADE_RANK_INFO@@@std@@@std@@@std@@QAEXAAV?$allocator@U?$_Tree_node@U?$pair@$$CBHUPENTAGRAM_JEWEL_UPGRADE_RANK_INFO@@@std@@PAX@std@@@1@PAU?$_Tree_node@U?$pair@$$CBHUPENTAGRAM_JEWEL_UPGRADE_RANK_INFO@@@std@@PAX@1@@Z 004a00c0 f i PentagramSystem.obj
 0001:0009f0c0       ??$_Erase_tree@V?$allocator@U?$_Tree_node@U?$pair@$$CBHUZEN_DROP@@@std@@PAX@std@@@std@@@?$_Tree_val@U?$_Tree_simple_types@U?$pair@$$CBHUZEN_DROP@@@std@@@std@@@std@@QAEXAAV?$allocator@U?$_Tree_node@U?$pair@$$CBHUZEN_DROP@@@std@@PAX@std@@@1@PAU?$_Tree_node@U?$pair@$$CBHUZEN_DROP@@@std@@PAX@1@@Z 004a00c0 f i ZenDrop.obj
 0001:0009f100       ??$_Erase_tree@V?$allocator@U?$_Tree_node@U?$pair@$$CBHUITEM_OPTION0_RATE_INFO@@@std@@PAX@std@@@std@@@?$_Tree_val@U?$_Tree_simple_types@U?$pair@$$CBHUITEM_OPTION0_RATE_INFO@@@std@@@std@@@std@@QAEXAAV?$allocator@U?$_Tree_node@U?$pair@$$CBHUITEM_OPTION0_RATE_INFO@@@std@@PAX@std@@@1@PAU?$_Tree_node@U?$pair@$$CBHUITEM_OPTION0_RATE_INFO@@@std@@PAX@1@@Z 004a0100 f i ItemOptionRate.obj
 0001:0009f100       ??$_Erase_tree@V?$allocator@U?$_Tree_node@U?$pair@$$CBHUPENTAGRAM_OPTION_INFO@@@std@@PAX@std@@@std@@@?$_Tree_val@U?$_Tree_simple_types@U?$pair@$$CBHUPENTAGRAM_OPTION_INFO@@@std@@@std@@@std@@QAEXAAV?$allocator@U?$_Tree_node@U?$pair@$$CBHUPENTAGRAM_OPTION_INFO@@@std@@PAX@std@@@1@PAU?$_Tree_node@U?$pair@$$CBHUPENTAGRAM_OPTION_INFO@@@std@@PAX@1@@Z 004a0100 f i PentagramSystem.obj
 0001:0009f100       ??$_Erase_tree@V?$allocator@U?$_Tree_node@U?$pair@$$CBHUMAP_INFO@@@std@@PAX@std@@@std@@@?$_Tree_val@U?$_Tree_simple_types@U?$pair@$$CBHUMAP_INFO@@@std@@@std@@@std@@QAEXAAV?$allocator@U?$_Tree_node@U?$pair@$$CBHUMAP_INFO@@@std@@PAX@std@@@1@PAU?$_Tree_node@U?$pair@$$CBHUMAP_INFO@@@std@@PAX@1@@Z 004a0100 f i Message.obj
 0001:0009f100       ??$_Erase_tree@V?$allocator@U?$_Tree_node@U?$pair@$$CBHUMAP_MANAGER_INFO@@@std@@PAX@std@@@std@@@?$_Tree_val@U?$_Tree_simple_types@U?$pair@$$CBHUMAP_MANAGER_INFO@@@std@@@std@@@std@@QAEXAAV?$allocator@U?$_Tree_node@U?$pair@$$CBHUMAP_MANAGER_INFO@@@std@@PAX@std@@@1@PAU?$_Tree_node@U?$pair@$$CBHUMAP_MANAGER_INFO@@@std@@PAX@1@@Z 004a0100 f i MapManager.obj
 0001:0009f140       ??1?$_Alloc_construct_ptr@V?$allocator@U?$_Tree_node@U?$pair@$$CBHUITEM_OPTION5_RATE_INFO@@@std@@PAX@std@@@std@@@std@@QAE@XZ 004a0140 f i ItemOptionRate.obj
 0001:0009f160       ??1?$_Alloc_construct_ptr@V?$allocator@U?$_Tree_node@U?$pair@$$CBHUITEM_OPTION4_RATE_INFO@@@std@@PAX@std@@@std@@@std@@QAE@XZ 004a0160 f i ItemOptionRate.obj
 0001:0009f180       ??1?$_Alloc_construct_ptr@V?$allocator@U?$_Tree_node@U?$pair@$$CBHUITEM_OPTION3_RATE_INFO@@@std@@PAX@std@@@std@@@std@@QAE@XZ 004a0180 f i ItemOptionRate.obj
 0001:0009f1a0       ??1?$vector@UItemRank_Data@@V?$allocator@UItemRank_Data@@@std@@@std@@QAE@XZ 004a01a0 f i ItemRank.obj
 0001:0009f220       ??$_Destroy_range@V?$allocator@UItemRank_Data@@@std@@@std@@YAXPAUItemRank_Data@@QAU1@AAV?$allocator@UItemRank_Data@@@0@@Z 004a0220 f i ItemRank.obj
 0001:0009f290       ??_ECItemStack@@UAEPAXI@Z  004a0290 f i * CIL library *:* CIL module *
 0001:0009f290       ??_GCItemStack@@UAEPAXI@Z  004a0290 f i ItemStack.obj
 0001:0009f2c0       ?Load@CItemStack@@QAEXPAD@Z 004a02c0 f   ItemStack.obj
 0001:0009f480       ?GetItemMaxStack@CItemStack@@QAEHHH@Z 004a0480 f   ItemStack.obj
 0001:0009f4d0       ?GetCreateItemIndex@CItemStack@@QAEHHH@Z 004a04d0 f   ItemStack.obj
 0001:0009f520       ?Load@CItemToPoints@@QAEXPAD@Z 004a0520 f   ItemToPoints.obj
 0001:0009f8e0       ?Tick@CItemToPoints@@QAEXPAUOBJECTSTRUCT@@@Z 004a08e0 f   ItemToPoints.obj
 0001:0009faf0       ??$_Emplace_reallocate@ABUItemToPointsData@@@?$vector@UItemToPointsData@@V?$allocator@UItemToPointsData@@@std@@@std@@QAEPAUItemToPointsData@@QAU2@ABU2@@Z 004a0af0 f i ItemToPoints.obj
 0001:0009fc70       ??_GCItemValue@@UAEPAXI@Z  004a0c70 f i ItemValue.obj
 0001:0009fc70       ??_ECItemValue@@UAEPAXI@Z  004a0c70 f i * CIL library *:* CIL module *
 0001:0009fca0       ?Load@CItemValue@@QAEXPAD@Z 004a0ca0 f   ItemValue.obj
 0001:0009fec0       ??_GCJewelMix@@UAEPAXI@Z   004a0ec0 f i JewelMix.obj
 0001:0009fec0       ??_ECJewelMix@@UAEPAXI@Z   004a0ec0 f i * CIL library *:* CIL module *
 0001:0009fef0       ?GetJewelSimpleIndex@CJewelMix@@QAEHH@Z 004a0ef0 f   JewelMix.obj
 0001:0009ffd0       ?GetJewelBundleIndex@CJewelMix@@QAEHH@Z 004a0fd0 f   JewelMix.obj
 0001:000a00b0       ?GetJewelBundleType@CJewelMix@@QAEHH@Z 004a10b0 f   JewelMix.obj
 0001:000a0230       ?CGJewelMixRecv@CJewelMix@@QAEXPAUPMSG_JEWEL_MIX_RECV@@H@Z 004a1230 f   JewelMix.obj
 0001:000a0400       ?CGJewelUnMixRecv@CJewelMix@@QAEXPAUPMSG_JEWEL_UNMIX_RECV@@H@Z 004a1400 f   JewelMix.obj
 0001:000a06b0       ??_ECJewelOfHarmonyOption@@UAEPAXI@Z 004a16b0 f i * CIL library *:* CIL module *
 0001:000a06b0       ??_GCJewelOfHarmonyOption@@UAEPAXI@Z 004a16b0 f i JewelOfHarmonyOption.obj
 0001:000a06e0       ?Init@CJewelOfHarmonyOption@@QAEXXZ 004a16e0 f   JewelOfHarmonyOption.obj
 0001:000a0720       ?Load@CJewelOfHarmonyOption@@QAEXPAD@Z 004a1720 f   JewelOfHarmonyOption.obj
 0001:000a0960       ?GetJewelOfHarmonyItemOptionType@CJewelOfHarmonyOption@@QAEHPAVCItem@@@Z 004a1960 f   JewelOfHarmonyOption.obj
 0001:000a09d0       ?GetJewelOfHarmonyRandomOption@CJewelOfHarmonyOption@@QAEHPAVCItem@@@Z 004a19d0 f   JewelOfHarmonyOption.obj
 0001:000a0b70       ?AddJewelOfHarmonyOption@CJewelOfHarmonyOption@@QAE_NPAUOBJECTSTRUCT@@HH@Z 004a1b70 f   JewelOfHarmonyOption.obj
 0001:000a0d80       ?AddSmeltStoneOption@CJewelOfHarmonyOption@@QAE_NPAUOBJECTSTRUCT@@HH@Z 004a1d80 f   JewelOfHarmonyOption.obj
 0001:000a0f60       ?AddJewelOfElevationOption@CJewelOfHarmonyOption@@QAE_NPAUOBJECTSTRUCT@@HH@Z 004a1f60 f   JewelOfHarmonyOption.obj
 0001:000a1120       ?CalcJewelOfHarmonyOption@CJewelOfHarmonyOption@@QAEXPAUOBJECTSTRUCT@@_N@Z 004a2120 f   JewelOfHarmonyOption.obj
 0001:000a1210       ?InsertOption@CJewelOfHarmonyOption@@QAEXPAUOBJECTSTRUCT@@HHH_N@Z 004a2210 f   JewelOfHarmonyOption.obj
 0001:000a1460       ??_GCJewelOfHarmonyType@@UAEPAXI@Z 004a2460 f i JewelOfHarmonyType.obj
 0001:000a1460       ??_ECJewelOfHarmonyType@@UAEPAXI@Z 004a2460 f i * CIL library *:* CIL module *
 0001:000a1490       ?Load@CJewelOfHarmonyType@@QAEXPAD@Z 004a2490 f   JewelOfHarmonyType.obj
 0001:000a1630       ?JoinServerProtocolCore@@YAXEPAEH@Z 004a2630 f   JSProtocol.obj
 0001:000a17b0       ?JGConnectAccountRecv@@YAXPAUSDHP_CONNECT_ACCOUNT_RECV@@@Z 004a27b0 f   JSProtocol.obj
 0001:000a1b20       ?JGMapServerMoveRecv@@YAXPAUSDHP_MAP_SERVER_MOVE_RECV@@@Z 004a2b20 f   JSProtocol.obj
 0001:000a1e30       ?JGMapServerMoveAuthRecv@@YAXPAUSDHP_MAP_SERVER_MOVE_AUTH_RECV@@@Z 004a2e30 f   JSProtocol.obj
 0001:000a21a0       ?JGAccountLevelRecv@@YAXPAUSDHP_ACCOUNT_LEVEL_RECV@@@Z 004a31a0 f   JSProtocol.obj
 0001:000a23a0       ?JGAccountAlreadyConnectedRecv@@YAXPAUSDHP_ACCOUNT_ALREADY_CONNECTED_RECV@@@Z 004a33a0 f   JSProtocol.obj
 0001:000a25e0       ?GJMapServerMoveSend@@YAXHGGEE@Z 004a35e0 f   JSProtocol.obj
 0001:000a2690       ?GJSetOffExpSend@@YAXPAUOBJECTSTRUCT@@_N@Z 004a3690 f   JSProtocol.obj
 0001:000a2740       ?GJGetLastVoteInfo@@YAXH@Z 004a3740 f   JSProtocol.obj
 0001:000a27c0       ??_GCKalima@@UAEPAXI@Z     004a37c0 f i Kalima.obj
 0001:000a27c0       ??_ECKalima@@UAEPAXI@Z     004a37c0 f i * CIL library *:* CIL module *
 0001:000a27f0       ?GetKalimaGateLevel@CKalima@@QAEHPAUOBJECTSTRUCT@@@Z 004a37f0 f   Kalima.obj
 0001:000a2930       ?CreateKalimaGate@CKalima@@QAE_NHHHH@Z 004a3930 f   Kalima.obj
 0001:000a2c20       ?CreateNextKalimaGate@CKalima@@QAE_NHHHH@Z 004a3c20 f   Kalima.obj
 0001:000a2e20       ?DeleteKalimaGate@CKalima@@QAE_NH@Z 004a3e20 f   Kalima.obj
 0001:000a2f60       ?KalimaGateAct@CKalima@@QAEXH@Z 004a3f60 f   Kalima.obj
 0001:000a3230       ?KalimaNextGateAct@CKalima@@QAEXH@Z 004a4230 f   Kalima.obj
 0001:000a34e0       ??0CKanturu@@QAE@XZ        004a44e0 f   Kanturu.obj
 0001:000a3770       ??_ECKanturu@@UAEPAXI@Z    004a4770 f i * CIL library *:* CIL module *
 0001:000a3770       ??_GCKanturu@@UAEPAXI@Z    004a4770 f i Kanturu.obj
 0001:000a37a0       ??1CKanturu@@UAE@XZ        004a47a0 f   Kanturu.obj
 0001:000a38d0       ?ResetAllData@CKanturu@@QAEXXZ 004a48d0 f   Kanturu.obj
 0001:000a39a0       ?Load@CKanturu@@QAEXPAD@Z  004a49a0 f   Kanturu.obj
 0001:000a3c30       ?MainProc@CKanturu@@QAEXXZ 004a4c30 f   Kanturu.obj
 0001:000a3fc0       ?SetState@CKanturu@@QAEXH@Z 004a4fc0 f   Kanturu.obj
 0001:000a4200       ?CheckEnterKanturu@CKanturu@@QAE_NH@Z 004a5200 f   Kanturu.obj
 0001:000a4390       ?SetKanturuMapAttr@CKanturu@@QAEXH@Z 004a5390 f   Kanturu.obj
 0001:000a4420       ?GetRemainTime@CKanturu@@QAEHXZ 004a5420 f   Kanturu.obj
 0001:000a4580       ??_GCKanturuBattleOfMaya@@UAEPAXI@Z 004a5580 f i KanturuBattleOfMaya.obj
 0001:000a4580       ??_ECKanturuBattleOfMaya@@UAEPAXI@Z 004a5580 f i * CIL library *:* CIL module *
 0001:000a4610       ??1CKanturuBattleOfMaya@@UAE@XZ 004a5610 f   KanturuBattleOfMaya.obj
 0001:000a4680       ?ResetAllData@CKanturuBattleOfMaya@@QAEXXZ 004a5680 f   KanturuBattleOfMaya.obj
 0001:000a4710       ?Load@CKanturuBattleOfMaya@@QAEXPAD@Z 004a5710 f   KanturuBattleOfMaya.obj
 0001:000a4af0       ?MainProc@CKanturuBattleOfMaya@@QAEXXZ 004a5af0 f   KanturuBattleOfMaya.obj
 0001:000a4fd0       ?SetState@CKanturuBattleOfMaya@@QAEXH@Z 004a5fd0 f   KanturuBattleOfMaya.obj
 0001:000a5950       ??_ECKanturuBattleOfNightmare@@UAEPAXI@Z 004a6950 f i * CIL library *:* CIL module *
 0001:000a5950       ??_GCKanturuBattleOfNightmare@@UAEPAXI@Z 004a6950 f i KanturuBattleOfNightmare.obj
 0001:000a59d0       ??1CKanturuBattleOfNightmare@@UAE@XZ 004a69d0 f   KanturuBattleOfNightmare.obj
 0001:000a5a20       ?ResetAllData@CKanturuBattleOfNightmare@@QAEXXZ 004a6a20 f   KanturuBattleOfNightmare.obj
 0001:000a5ac0       ?Load@CKanturuBattleOfNightmare@@QAEXPAD@Z 004a6ac0 f   KanturuBattleOfNightmare.obj
 0001:000a5d20       ?MainProc@CKanturuBattleOfNightmare@@QAEXXZ 004a6d20 f   KanturuBattleOfNightmare.obj
 0001:000a5eb0       ?SetState@CKanturuBattleOfNightmare@@QAEXH@Z 004a6eb0 f   KanturuBattleOfNightmare.obj
 0001:000a61b0       ?SetState_NONE@CKanturuBattleOfNightmare@@QAEXXZ 004a71b0 f   KanturuBattleOfNightmare.obj
 0001:000a6220       ??_GCKanturuBattleStanby@@UAEPAXI@Z 004a7220 f i KanturuBattleStanby.obj
 0001:000a6220       ??_ECKanturuBattleStanby@@UAEPAXI@Z 004a7220 f i * CIL library *:* CIL module *
 0001:000a6290       ??1CKanturuBattleStanby@@UAE@XZ 004a7290 f   KanturuBattleStanby.obj
 0001:000a62e0       ?ResetAllData@CKanturuBattleStanby@@QAEXXZ 004a72e0 f   KanturuBattleStanby.obj
 0001:000a6350       ?Load@CKanturuBattleStanby@@QAEXPAD@Z 004a7350 f   KanturuBattleStanby.obj
 0001:000a6550       ?SetState@CKanturuBattleStanby@@QAEXH@Z 004a7550 f   KanturuBattleStanby.obj
 0001:000a66a0       ??0CKanturuBattleUser@@QAE@XZ 004a76a0 f i KanturuBattleUserMng.obj
 0001:000a66c0       ??1CKanturuBattleUser@@UAE@XZ 004a76c0 f i KanturuBattleUserMng.obj
 0001:000a66d0       ??_ECKanturuBattleUser@@UAEPAXI@Z 004a76d0 f i * CIL library *:* CIL module *
 0001:000a66d0       ??_GCKanturuBattleUser@@UAEPAXI@Z 004a76d0 f i KanturuBattleUserMng.obj
 0001:000a6700       ??_ECKanturuBattleUserMng@@UAEPAXI@Z 004a7700 f i * CIL library *:* CIL module *
 0001:000a6700       ??_GCKanturuBattleUserMng@@UAEPAXI@Z 004a7700 f i KanturuBattleUserMng.obj
 0001:000a6780       ?ResetAllData@CKanturuBattleUserMng@@QAEXXZ 004a7780 f   KanturuBattleUserMng.obj
 0001:000a67c0       ?DelUserData@CKanturuBattleUserMng@@QAE_NH@Z 004a77c0 f   KanturuBattleUserMng.obj
 0001:000a6870       ?CheckUserState@CKanturuBattleUserMng@@QAEXXZ 004a7870 f   KanturuBattleUserMng.obj
 0001:000a6920       ?MoveAllUser@CKanturuBattleUserMng@@QAEXH@Z 004a7920 f   KanturuBattleUserMng.obj
 0001:000a6980       ??_GCKanturuEntranceNPC@@UAEPAXI@Z 004a7980 f i KanturuEntranceNPC.obj
 0001:000a6980       ??_ECKanturuEntranceNPC@@UAEPAXI@Z 004a7980 f i * CIL library *:* CIL module *
 0001:000a69b0       ?CGKanturuEnterInfoRecv@CKanturuEntranceNPC@@QAEXH@Z 004a79b0 f   KanturuEntranceNPC.obj
 0001:000a6a80       ?CGKanturuEnterRecv@CKanturuEntranceNPC@@QAEXH@Z 004a7a80 f   KanturuEntranceNPC.obj
 0001:000a6dd0       ??_GCKanturuMaya@@UAEPAXI@Z 004a7dd0 f i KanturuMaya.obj
 0001:000a6dd0       ??_ECKanturuMaya@@UAEPAXI@Z 004a7dd0 f i * CIL library *:* CIL module *
 0001:000a6e00       ?KanturuMayaAct_IceStorm@CKanturuMaya@@QAEXH@Z 004a7e00 f   KanturuMaya.obj
 0001:000a6f10       ?KanturuMayaAct_Hands@CKanturuMaya@@QAEXXZ 004a7f10 f   KanturuMaya.obj
 0001:000a70d0       ??_GCKanturuMonsterMng@@UAEPAXI@Z 004a80d0 f i KanturuMonsterMng.obj
 0001:000a70d0       ??_ECKanturuMonsterMng@@UAEPAXI@Z 004a80d0 f i * CIL library *:* CIL module *
 0001:000a7110       ?Load@CKanturuMonsterMng@@QAEXPAD@Z 004a8110 f   KanturuMonsterMng.obj
 0001:000a7350       ?ResetRegenMonsterObjData@CKanturuMonsterMng@@QAEXXZ 004a8350 f   KanturuMonsterMng.obj
 0001:000a73e0       ?SetKanturuMonster@CKanturuMonsterMng@@QAEHH@Z 004a83e0 f   KanturuMonsterMng.obj
 0001:000a7560       ?GetPosition@CKanturuMonsterMng@@QAEHHFPAF0@Z 004a8560 f   KanturuMonsterMng.obj
 0001:000a76e0       ??_ECKanturuObjInfo@@UAEPAXI@Z 004a86e0 f i * CIL library *:* CIL module *
 0001:000a76e0       ??_GCKanturuObjInfo@@UAEPAXI@Z 004a86e0 f i KanturuObjInfo.obj
 0001:000a7710       ??1CKanturuObjInfo@@UAE@XZ 004a8710 f   KanturuObjInfo.obj
 0001:000a7720       ??0CKanturuStateInfo@@QAE@XZ 004a8720 f   KanturuStateInfo.obj
 0001:000a7740       ??_GCKanturuStateInfo@@UAEPAXI@Z 004a8740 f i KanturuStateInfo.obj
 0001:000a7740       ??_ECKanturuStateInfo@@UAEPAXI@Z 004a8740 f i * CIL library *:* CIL module *
 0001:000a7770       ??1CKanturuStateInfo@@UAE@XZ 004a8770 f   KanturuStateInfo.obj
 0001:000a7780       ??_ECKanturuTowerOfRefinement@@UAEPAXI@Z 004a8780 f i * CIL library *:* CIL module *
 0001:000a7780       ??_GCKanturuTowerOfRefinement@@UAEPAXI@Z 004a8780 f i KanturuTowerOfRefinement.obj
 0001:000a7800       ??1CKanturuTowerOfRefinement@@UAE@XZ 004a8800 f   KanturuTowerOfRefinement.obj
 0001:000a7850       ?ResetAllData@CKanturuTowerOfRefinement@@QAEXXZ 004a8850 f   KanturuTowerOfRefinement.obj
 0001:000a78f0       ?Load@CKanturuTowerOfRefinement@@QAEXPAD@Z 004a88f0 f   KanturuTowerOfRefinement.obj
 0001:000a7b00       ?SetState@CKanturuTowerOfRefinement@@QAEXH@Z 004a8b00 f   KanturuTowerOfRefinement.obj
 0001:000a7db0       ??_ECKanturuUtil@@UAEPAXI@Z 004a8db0 f i * CIL library *:* CIL module *
 0001:000a7db0       ??_GCKanturuUtil@@UAEPAXI@Z 004a8db0 f i KanturuUtil.obj
 0001:000a7de0       ?SendMsgKanturuBossMapUser@CKanturuUtil@@QAAXPADZZ 004a8de0 f   KanturuUtil.obj
 0001:000a7e90       ?SendDataKanturuBossMapUser@CKanturuUtil@@QAEXPAEH@Z 004a8e90 f   KanturuUtil.obj
 0001:000a7f00       ??_GCLifeStone@@UAEPAXI@Z  004a8f00 f i LifeStone.obj
 0001:000a7f00       ??_ECLifeStone@@UAEPAXI@Z  004a8f00 f i * CIL library *:* CIL module *
 0001:000a7f30       ?CreateLifeStone@CLifeStone@@QAE_NH@Z 004a8f30 f   LifeStone.obj
 0001:000a8400       ?LifeStoneAct@CLifeStone@@QAEXH@Z 004a9400 f   LifeStone.obj
 0001:000a8720       ??_GCLog@@UAEPAXI@Z        004a9720 f i Log.obj
 0001:000a8720       ??_ECLog@@UAEPAXI@Z        004a9720 f i * CIL library *:* CIL module *
 0001:000a8750       ??1CLog@@UAE@XZ            004a9750 f   Log.obj
 0001:000a87a0       ?AddLog@CLog@@QAEXHPAD@Z   004a97a0 f   Log.obj
 0001:000a88c0       ?Output@CLog@@QAAXW4eLogType@@PADZZ 004a98c0 f   Log.obj
 0001:000a8ac0       ??_ELuaExport@@UAEPAXI@Z   004a9ac0 f i * CIL library *:* CIL module *
 0001:000a8ac0       ??_GLuaExport@@UAEPAXI@Z   004a9ac0 f i LuaExport.obj
 0001:000a8af0       ??_ECLuckyCoin@@UAEPAXI@Z  004a9af0 f i * CIL library *:* CIL module *
 0001:000a8af0       ??_GCLuckyCoin@@UAEPAXI@Z  004a9af0 f i LuckyCoin.obj
 0001:000a8b20       ?DGLuckyCoinExchangeRecv@CLuckyCoin@@QAEXPAUSDHP_LUCKY_COIN_EXCHANGE_RECV@@@Z 004a9b20 f   LuckyCoin.obj
 0001:000a8cf0       ??_GCLuckyItem@@UAEPAXI@Z  004a9cf0 f i LuckyItem.obj
 0001:000a8cf0       ??_ECLuckyItem@@UAEPAXI@Z  004a9cf0 f i * CIL library *:* CIL module *
 0001:000a8d20       ?Load@CLuckyItem@@QAEXPAD@Z 004a9d20 f   LuckyItem.obj
 0001:000a8f60       ??0CMap@@QAE@XZ            004a9f60 f   Map.obj
 0001:000a91d0       ??_GCMap@@UAEPAXI@Z        004aa1d0 f i Map.obj
 0001:000a91d0       ??_ECMap@@UAEPAXI@Z        004aa1d0 f i * CIL library *:* CIL module *
 0001:000a9250       ??1CMap@@UAE@XZ            004aa250 f   Map.obj
 0001:000a92b0       ?Load@CMap@@QAEXPADH@Z     004aa2b0 f   Map.obj
 0001:000a93f0       ?CheckStandAttr@CMap@@QAE_NHH@Z 004aa3f0 f   Map.obj
 0001:000a9450       ?WeatherAllSend@CMap@@QAEXE@Z 004aa450 f   Map.obj
 0001:000a94b0       ?GetMapPos@CMap@@QAEXHPAF0@Z 004aa4b0 f   Map.obj
 0001:000a95a0       ?GetMapRandomPos@CMap@@QAEXPAF0H@Z 004aa5a0 f   Map.obj
 0001:000a9650       ?MoneyItemDrop@CMap@@QAE_NHHH@Z 004aa650 f   Map.obj
 0001:000a9770       ?MonsterItemDrop@CMap@@QAE_NHHMHHEEEEEHKEEQAEEK@Z 004aa770 f   Map.obj
 0001:000a9940       ?ItemDrop@CMap@@QAE_NHHMHHEEEEEKHHHEEQAEEK@Z 004aa940 f   Map.obj
 0001:000a9d80       ?CheckWall2@CMap@@QAEEHHHH@Z 004aad80 f   Map.obj
 0001:000a9e80       ?PathFinding2@CMap@@QAE_NHHHHPAUPATH_INFO@@@Z 004aae80 f   Map.obj
 0001:000a9f20       ??0CMapItem@@QAE@XZ        004aaf20 f   MapItem.obj
 0001:000a9f40       ??_ECMapItem@@UAEPAXI@Z    004aaf40 f i * CIL library *:* CIL module *
 0001:000a9f40       ??_GCMapItem@@UAEPAXI@Z    004aaf40 f i MapItem.obj
 0001:000a9f70       ??1CMapItem@@UAE@XZ        004aaf70 f   MapItem.obj
 0001:000a9f80       ??_ECMapManager@@UAEPAXI@Z 004aaf80 f i * CIL library *:* CIL module *
 0001:000a9f80       ??_GCMapManager@@UAEPAXI@Z 004aaf80 f i MapManager.obj
 0001:000a9fb0       ?Load@CMapManager@@QAEXPAD@Z 004aafb0 f   MapManager.obj
 0001:000aa610       ?FindNextDir@CMapPath@@AAEHHHHHH_N0@Z 004ab610 f   MapPath.obj
 0001:000aab20       ?FindNextDir3@CMapPath@@AAEHHHHHH_N0@Z 004abb20 f   MapPath.obj
 0001:000aafd0       ?FindPath@CMapPath@@QAE_NHHHH_N@Z 004abfd0 f   MapPath.obj
 0001:000ab0d0       ?FindPath3@CMapPath@@QAE_NHHHH_N@Z 004ac0d0 f   MapPath.obj
 0001:000ab1d0       ??$_Erase_tree@V?$allocator@U?$_Tree_node@U?$pair@$$CBHV?$map@HUMAP_QUEST_DATA@@U?$less@H@std@@V?$allocator@U?$pair@$$CBHUMAP_QUEST_DATA@@@std@@@3@@std@@@std@@PAX@std@@@std@@@?$_Tree_val@U?$_Tree_simple_types@U?$pair@$$CBHV?$map@HUMAP_QUEST_DATA@@U?$less@H@std@@V?$allocator@U?$pair@$$CBHUMAP_QUEST_DATA@@@std@@@3@@std@@@std@@@std@@@std@@QAEXAAV?$allocator@U?$_Tree_node@U?$pair@$$CBHV?$map@HUMAP_QUEST_DATA@@U?$less@H@std@@V?$allocator@U?$pair@$$CBHUMAP_QUEST_DATA@@@std@@@3@@std@@@std@@PAX@std@@@1@PAU?$_Tree_node@U?$pair@$$CBHV?$map@HUMAP_QUEST_DATA@@U?$less@H@std@@V?$allocator@U?$pair@$$CBHUMAP_QUEST_DATA@@@std@@@3@@std@@@std@@PAX@1@@Z 004ac1d0 f i MapQuestSystem.obj
 0001:000ab230       ??$_Erase_tree@V?$allocator@U?$_Tree_node@U?$pair@$$CBHUMAP_QUEST_DATA@@@std@@PAX@std@@@std@@@?$_Tree_val@U?$_Tree_simple_types@U?$pair@$$CBHUMAP_QUEST_DATA@@@std@@@std@@@std@@QAEXAAV?$allocator@U?$_Tree_node@U?$pair@$$CBHUMAP_QUEST_DATA@@@std@@PAX@std@@@1@PAU?$_Tree_node@U?$pair@$$CBHUMAP_QUEST_DATA@@@std@@PAX@1@@Z 004ac230 f i MapQuestSystem.obj
 0001:000ab290       ??0CMapServerData@@QAE@XZ  004ac290 f i MapServerManager.obj
 0001:000ab2d0       ??1CMapServerData@@UAE@XZ  004ac2d0 f i MapServerManager.obj
 0001:000ab2e0       ??_GCMapServerData@@UAEPAXI@Z 004ac2e0 f i MapServerManager.obj
 0001:000ab2e0       ??_ECMapServerData@@UAEPAXI@Z 004ac2e0 f i * CIL library *:* CIL module *
 0001:000ab310       ??_ECMapServerManager@@UAEPAXI@Z 004ac310 f i * CIL library *:* CIL module *
 0001:000ab310       ??_GCMapServerManager@@UAEPAXI@Z 004ac310 f i MapServerManager.obj
 0001:000ab3a0       ?Load@CMapServerManager@@QAEXPAD@Z 004ac3a0 f   MapServerManager.obj
 0001:000abb60       ?CheckMapServerMove@CMapServerManager@@QAEFHHF@Z 004acb60 f   MapServerManager.obj
 0001:000ac170       ??_GCMarry@@UAEPAXI@Z      004ad170 f i Marry.obj
 0001:000ac170       ??_ECMarry@@UAEPAXI@Z      004ad170 f i * CIL library *:* CIL module *
 0001:000ac1c0       ?LoadFile@CMarry@@QAEXPAD@Z 004ad1c0 f   Marry.obj
 0001:000aca50       ?Propose@CMarry@@QAEXHH@Z  004ada50 f   Marry.obj
 0001:000acd00       ?Accept@CMarry@@QAE_NH@Z   004add00 f   Marry.obj
 0001:000ad080       ?Divorce@CMarry@@QAEXH@Z   004ae080 f   Marry.obj
 0001:000ad310       ?CheckPosition@CMarry@@AAE_NHH@Z 004ae310 f   Marry.obj
 0001:000ad3a0       ?CheckRequiredItem@CMarry@@AAE_NHH@Z 004ae3a0 f   Marry.obj
 0001:000ad430       ?GiveGiftItem@CMarry@@AAEXHH@Z 004ae430 f   Marry.obj
 0001:000ad4d0       ?DeleteRequiredItem@CMarry@@AAEXHH@Z 004ae4d0 f   Marry.obj
 0001:000ad5c0       ??_GCMarrySystem@@UAEPAXI@Z 004ae5c0 f i MarrySystem.obj
 0001:000ad5c0       ??_ECMarrySystem@@UAEPAXI@Z 004ae5c0 f i * CIL library *:* CIL module *
 0001:000ad5f0       ?Load@CMarrySystem@@QAEXPAD0@Z 004ae5f0 f   MarrySystem.obj
 0001:000ae0c0       ?TickMarriage@@YGKPAUOBJECTSTRUCT@@@Z 004af0c0 f   MarrySystem.obj
 0001:000ae650       ?CheckMarryCostCallback@CMarrySystem@@SAXPAUOBJECTSTRUCT@@H0KKK@Z 004af650 f   MarrySystem.obj
 0001:000ae9a0       ?CheckCost@CMarrySystem@@QAE_NPAUOBJECTSTRUCT@@UWCOINS_STRUCT_MAARRY@@H@Z 004af9a0 f   MarrySystem.obj
 0001:000aecc0       ?FireMarriage@@YGKXZ       004afcc0 f   MarrySystem.obj
 0001:000aef70       ?CancelMarry@CMarrySystem@@QAEXPAUOBJECTSTRUCT@@@Z 004aff70 f   MarrySystem.obj
 0001:000af010       ?NoCommand@CMarrySystem@@QAE_NPAUOBJECTSTRUCT@@@Z 004b0010 f   MarrySystem.obj
 0001:000af150       ?IsMarry@CMarrySystem@@QAEXPAUOBJECTSTRUCT@@PAD@Z 004b0150 f   MarrySystem.obj
 0001:000af2c0       ?IsMarryOnline@CMarrySystem@@QAEXPAUOBJECTSTRUCT@@@Z 004b02c0 f   MarrySystem.obj
 0001:000af3b0       ?TraceMarry@CMarrySystem@@QAEXPAUOBJECTSTRUCT@@@Z 004b03b0 f   MarrySystem.obj
 0001:000af630       ?MarryDivorce@CMarrySystem@@QAEXPAUOBJECTSTRUCT@@@Z 004b0630 f   MarrySystem.obj
 0001:000af710       ?MarryDivorceCallback@CMarrySystem@@SAXPAUOBJECTSTRUCT@@H0KKK@Z 004b0710 f   MarrySystem.obj
 0001:000afa00       ??_ECMasterSkillTree@@UAEPAXI@Z 004b0a00 f i * CIL library *:* CIL module *
 0001:000afa00       ??_GCMasterSkillTree@@UAEPAXI@Z 004b0a00 f i MasterSkillTree.obj
 0001:000afa30       ?Load@CMasterSkillTree@@QAEXPAD@Z 004b0a30 f   MasterSkillTree.obj
 0001:000afd50       ?GetMasterSkillValue@CMasterSkillTree@@QAEHPAUOBJECTSTRUCT@@H@Z 004b0d50 f   MasterSkillTree.obj
 0001:000afe20       ?GetMasterSkillWeapon@CMasterSkillTree@@QAEHPAUOBJECTSTRUCT@@H@Z 004b0e20 f   MasterSkillTree.obj
 0001:000b0100       ?GetMasterSkillDamageMin@CMasterSkillTree@@QAEHPAUOBJECTSTRUCT@@H@Z 004b1100 f   MasterSkillTree.obj
 0001:000b06f0       ?GetMasterSkillDamageMax@CMasterSkillTree@@QAEHPAUOBJECTSTRUCT@@H@Z 004b16f0 f   MasterSkillTree.obj
 0001:000b0c90       ?CheckMasterLevel@CMasterSkillTree@@QAE_NPAUOBJECTSTRUCT@@@Z 004b1c90 f   MasterSkillTree.obj
 0001:000b0cd0       ?CalcMasterSkillTreeOption@CMasterSkillTree@@QAEXPAUOBJECTSTRUCT@@_N@Z 004b1cd0 f   MasterSkillTree.obj
 0001:000b0e20       ?InsertOption@CMasterSkillTree@@QAEXPAUOBJECTSTRUCT@@HH_N@Z 004b1e20 f   MasterSkillTree.obj
 0001:000b1df0       ?CGMasterSkillRecv@CMasterSkillTree@@QAEXPAUPMSG_MASTER_SKILL_RECV@@H@Z 004b2df0 f   MasterSkillTree.obj
 0001:000b2120       ?GCMasterInfoSend@CMasterSkillTree@@QAEXPAUOBJECTSTRUCT@@@Z 004b3120 f   MasterSkillTree.obj
 0001:000b2310       ?GCMasterSkillListSend@CMasterSkillTree@@QAEXH@Z 004b3310 f   MasterSkillTree.obj
 0001:000b2560       ?clear@?$_Tree@V?$_Tmap_traits@HUMASTER_SKILL_TREE_INFO@@U?$less@H@std@@V?$allocator@U?$pair@$$CBHUMASTER_SKILL_TREE_INFO@@@std@@@3@$0A@@std@@@std@@QAEXXZ 004b3560 f i MasterSkillTree.obj
 0001:000b25b0       ??1?$_Tree@V?$_Tmap_traits@HUMASTER_SKILL_TREE_INFO@@U?$less@H@std@@V?$allocator@U?$pair@$$CBHUMASTER_SKILL_TREE_INFO@@@std@@@3@$0A@@std@@@std@@QAE@XZ 004b35b0 f i MasterSkillTree.obj
 0001:000b2600       ??$_Erase_tree@V?$allocator@U?$_Tree_node@U?$pair@$$CBHUMASTER_SKILL_TREE_INFO@@@std@@PAX@std@@@std@@@?$_Tree_val@U?$_Tree_simple_types@U?$pair@$$CBHUMASTER_SKILL_TREE_INFO@@@std@@@std@@@std@@QAEXAAV?$allocator@U?$_Tree_node@U?$pair@$$CBHUMASTER_SKILL_TREE_INFO@@@std@@PAX@std@@@1@PAU?$_Tree_node@U?$pair@$$CBHUMASTER_SKILL_TREE_INFO@@@std@@PAX@1@@Z 004b3600 f i MasterSkillTree.obj
 0001:000b2640       ??1?$_Alloc_construct_ptr@V?$allocator@U?$_Tree_node@U?$pair@$$CBHUMASTER_SKILL_TREE_INFO@@@std@@PAX@std@@@std@@@std@@QAE@XZ 004b3640 f i MasterSkillTree.obj
 0001:000b2660       ??_ECMemoryAllocator@@UAEPAXI@Z 004b3660 f i * CIL library *:* CIL module *
 0001:000b2660       ??_GCMemoryAllocator@@UAEPAXI@Z 004b3660 f i MemoryAllocator.obj
 0001:000b26a0       ?GetMemoryAllocatorFree@CMemoryAllocator@@QAE_NPAHHHK@Z 004b36a0 f   MemoryAllocator.obj
 0001:000b2730       ?GetMemoryAllocatorInfo@CMemoryAllocator@@QAE_NPAVCMemoryAllocatorInfo@@H@Z 004b3730 f   MemoryAllocator.obj
 0001:000b27a0       ?InsertMemoryAllocatorInfo@CMemoryAllocator@@QAEXVCMemoryAllocatorInfo@@@Z 004b37a0 f   MemoryAllocator.obj
 0001:000b2800       ?BindMemoryAllocatorInfo@CMemoryAllocator@@QAEXHVCMemoryAllocatorInfo@@@Z 004b3800 f   MemoryAllocator.obj
 0001:000b2970       ??0CMemoryAllocatorInfo@@QAE@XZ 004b3970 f   MemoryAllocatorInfo.obj
 0001:000b2980       ?Clear@CMemoryAllocatorInfo@@QAEXXZ 004b3980 f   MemoryAllocatorInfo.obj
 0001:000b2a60       ?Alloc@CMemoryAllocatorInfo@@QAEXXZ 004b3a60 f   MemoryAllocatorInfo.obj
 0001:000b2e10       ??_ECSkill@@UAEPAXI@Z      004b3e10 f i MemoryAllocatorInfo.obj
 0001:000b2ec0       ??_ECEffect@@UAEPAXI@Z     004b3ec0 f i MemoryAllocatorInfo.obj
 0001:000b2f70       ??_GCMemScript@@UAEPAXI@Z  004b3f70 f i MemScript.obj
 0001:000b2f70       ??_ECMemScript@@UAEPAXI@Z  004b3f70 f i * CIL library *:* CIL module *
 0001:000b2fc0       ?SetBuffer@CMemScript@@QAE_NPAD@Z 004b3fc0 f   MemScript.obj
 0001:000b30c0       ?GetToken@CMemScript@@QAE?AW4eTokenResult@@XZ 004b40c0 f   MemScript.obj
 0001:000b3420       ?SetLastError@CMemScript@@QAEXH@Z 004b4420 f   MemScript.obj
 0001:000b3500       ?GetLastError@CMemScript@@QAEPADXZ 004b4500 f   MemScript.obj
 0001:000b3510       ___local_stdio_scanf_options 004b4510 f i MemScript.obj
 0001:000b3520       _sscanf_s                  004b4520 f i MemScript.obj
 0001:000b3550       ??_ECMercenary@@UAEPAXI@Z  004b4550 f i * CIL library *:* CIL module *
 0001:000b3550       ??_GCMercenary@@UAEPAXI@Z  004b4550 f i Mercenary.obj
 0001:000b3580       ?CreateMercenary@CMercenary@@QAE_NHHEE@Z 004b4580 f   Mercenary.obj
 0001:000b3a60       ?MercenaryAct@CMercenary@@QAEXH@Z 004b4a60 f   Mercenary.obj
 0001:000b3c20       ??_ECMessage@@UAEPAXI@Z    004b4c20 f i * CIL library *:* CIL module *
 0001:000b3c20       ??_GCMessage@@UAEPAXI@Z    004b4c20 f i Message.obj
 0001:000b3c60       ??1?$map@HUMESSAGE_INFO@@U?$less@H@std@@V?$allocator@U?$pair@$$CBHUMESSAGE_INFO@@@std@@@3@@std@@QAE@XZ 004b4c60 f i Message.obj
 0001:000b3c80       ?Load@CMessage@@QAEXPAD@Z  004b4c80 f   Message.obj
 0001:000b41b0       ?GetMessageA@CMessage@@QAEPADH@Z 004b51b0 f   Message.obj
 0001:000b4210       ?clear@?$_Tree@V?$_Tmap_traits@HUMESSAGE_INFO@@U?$less@H@std@@V?$allocator@U?$pair@$$CBHUMESSAGE_INFO@@@std@@@3@$0A@@std@@@std@@QAEXXZ 004b5210 f i Message.obj
 0001:000b4260       ??1?$_Tree@V?$_Tmap_traits@HUMESSAGE_INFO@@U?$less@H@std@@V?$allocator@U?$pair@$$CBHUMESSAGE_INFO@@@std@@@3@$0A@@std@@@std@@QAE@XZ 004b5260 f i Message.obj
 0001:000b42b0       ??$_Erase_tree@V?$allocator@U?$_Tree_node@U?$pair@$$CBHUMESSAGE_INFO@@@std@@PAX@std@@@std@@@?$_Tree_val@U?$_Tree_simple_types@U?$pair@$$CBHUMESSAGE_INFO@@@std@@@std@@@std@@QAEXAAV?$allocator@U?$_Tree_node@U?$pair@$$CBHUMESSAGE_INFO@@@std@@PAX@std@@@1@PAU?$_Tree_node@U?$pair@$$CBHUMESSAGE_INFO@@@std@@PAX@1@@Z 004b52b0 f i Message.obj
 0001:000b42f0       ??1?$_Alloc_construct_ptr@V?$allocator@U?$_Tree_node@U?$pair@$$CBHUMESSAGE_INFO@@@std@@PAX@std@@@std@@@std@@QAE@XZ 004b52f0 f i Message.obj
 0001:000b4310       ??_ECMiniMap@@UAEPAXI@Z    004b5310 f i * CIL library *:* CIL module *
 0001:000b4310       ??_GCMiniMap@@UAEPAXI@Z    004b5310 f i MiniMap.obj
 0001:000b4340       ??1?$vector@UMINI_MAP_INFO@@V?$allocator@UMINI_MAP_INFO@@@std@@@std@@QAE@XZ 004b5340 f i MiniMap.obj
 0001:000b43b0       ??_GCMiningSystem@@UAEPAXI@Z 004b53b0 f i MiningSystem.obj
 0001:000b43b0       ??_ECMiningSystem@@UAEPAXI@Z 004b53b0 f i * CIL library *:* CIL module *
 0001:000b43e0       ??_EcMMOTOP@@UAEPAXI@Z     004b53e0 f i * CIL library *:* CIL module *
 0001:000b43e0       ??_GcMMOTOP@@UAEPAXI@Z     004b53e0 f i MMOTOP.obj
 0001:000b4420       ?Init@cMMOTOP@@QAEXXZ      004b5420 f   MMOTOP.obj
 0001:000b4680       ?Load@cMMOTOP@@QAEXPAD@Z   004b5680 f   MMOTOP.obj
 0001:000b4d30       ?WriteCallback@@YAIPAXII0@Z 004b5d30 f   MMOTOP.obj
 0001:000b4d90       ?DownloadFile@cMMOTOP@@QAEXPAD@Z 004b5d90 f   MMOTOP.obj
 0001:000b5830       ??_D?$basic_ofstream@DU?$char_traits@D@std@@@std@@QAEXXZ 004b6830 f i MMOTOP.obj
 0001:000b58c0       ?imbue@?$basic_filebuf@DU?$char_traits@D@std@@@std@@MAEXABVlocale@2@@Z 004b68c0 f i MMOTOP.obj
 0001:000b58e0       ?sync@?$basic_filebuf@DU?$char_traits@D@std@@@std@@MAEHXZ 004b68e0 f i MMOTOP.obj
 0001:000b5910       ?setbuf@?$basic_filebuf@DU?$char_traits@D@std@@@std@@MAEPAV?$basic_streambuf@DU?$char_traits@D@std@@@2@PAD_J@Z 004b6910 f i MMOTOP.obj
 0001:000b5970       ?seekpos@?$basic_filebuf@DU?$char_traits@D@std@@@std@@MAE?AV?$fpos@U_Mbstatet@@@2@V32@H@Z 004b6970 f i MMOTOP.obj
 0001:000b5a40       ?seekoff@?$basic_filebuf@DU?$char_traits@D@std@@@std@@MAE?AV?$fpos@U_Mbstatet@@@2@_JHH@Z 004b6a40 f i MMOTOP.obj
 0001:000b5b50       ?xsputn@?$basic_filebuf@DU?$char_traits@D@std@@@std@@MAE_JPBD_J@Z 004b6b50 f i MMOTOP.obj
 0001:000b5cf0       ?xsgetn@?$basic_filebuf@DU?$char_traits@D@std@@@std@@MAE_JPAD_J@Z 004b6cf0 f i MMOTOP.obj
 0001:000b5ee0       ?uflow@?$basic_filebuf@DU?$char_traits@D@std@@@std@@MAEHXZ 004b6ee0 f i MMOTOP.obj
 0001:000b6150       ?underflow@?$basic_filebuf@DU?$char_traits@D@std@@@std@@MAEHXZ 004b7150 f i MMOTOP.obj
 0001:000b6190       ?pbackfail@?$basic_filebuf@DU?$char_traits@D@std@@@std@@MAEHH@Z 004b7190 f i MMOTOP.obj
 0001:000b6240       ?overflow@?$basic_filebuf@DU?$char_traits@D@std@@@std@@MAEHH@Z 004b7240 f i MMOTOP.obj
 0001:000b63b0       ?_Unlock@?$basic_filebuf@DU?$char_traits@D@std@@@std@@UAEXXZ 004b73b0 f i MMOTOP.obj
 0001:000b63c0       ?_Lock@?$basic_filebuf@DU?$char_traits@D@std@@@std@@UAEXXZ 004b73c0 f i MMOTOP.obj
 0001:000b63d0       ??1?$basic_filebuf@DU?$char_traits@D@std@@@std@@UAE@XZ 004b73d0 f i MMOTOP.obj
 0001:000b6480       ??1?$vector@UPARCER_DATA@@V?$allocator@UPARCER_DATA@@@std@@@std@@QAE@XZ 004b7480 f i VoteParcer.obj
 0001:000b6480       ??1?$vector@UTELEPORTS_NPC_DATA@@V?$allocator@UTELEPORTS_NPC_DATA@@@std@@@std@@QAE@XZ 004b7480 f i NPCTeleport.obj
 0001:000b6480       ??1?$vector@UMMOTOP_DATA@@V?$allocator@UMMOTOP_DATA@@@std@@@std@@QAE@XZ 004b7480 f i MMOTOP.obj
 0001:000b64f0       ??_E?$basic_filebuf@DU?$char_traits@D@std@@@std@@UAEPAXI@Z 004b74f0 f i * CIL library *:* CIL module *
 0001:000b64f0       ??_G?$basic_filebuf@DU?$char_traits@D@std@@@std@@UAEPAXI@Z 004b74f0 f i MMOTOP.obj
 0001:000b6520       ??_G?$basic_ofstream@DU?$char_traits@D@std@@@std@@UAEPAXI@Z 004b7520 f i MMOTOP.obj
 0001:000b6520       ??_E?$basic_ofstream@DU?$char_traits@D@std@@@std@@UAEPAXI@Z 004b7520 f i * CIL library *:* CIL module *
 0001:000b6550       ?do_length@?$codecvt@DDU_Mbstatet@@@std@@MBEHAAU_Mbstatet@@PBD1I@Z 004b7550 f i MMOTOP.obj
 0001:000b6570       ?do_unshift@?$codecvt@DDU_Mbstatet@@@std@@MBEHAAU_Mbstatet@@PAD1AAPAD@Z 004b7570 f i MMOTOP.obj
 0001:000b6590       ?do_out@?$codecvt@DDU_Mbstatet@@@std@@MBEHAAU_Mbstatet@@PBD1AAPBDPAD3AAPAD@Z 004b7590 f i MMOTOP.obj
 0001:000b6590       ?do_in@?$codecvt@DDU_Mbstatet@@@std@@MBEHAAU_Mbstatet@@PBD1AAPBDPAD3AAPAD@Z 004b7590 f i MMOTOP.obj
 0001:000b65b0       __should_initialize_environment 004b75b0 f i LIBCMT:env_mode.obj
 0001:000b65b0       ?do_always_noconv@?$codecvt@DDU_Mbstatet@@@std@@MBE_NXZ 004b75b0 f i MMOTOP.obj
 0001:000b65b0       ___acrt_uninitialize_command_line 004b75b0 f i libucrt:argv_data.obj
 0001:000b65c0       ?_Initcvt@?$basic_filebuf@DU?$char_traits@D@std@@@std@@IAEXABV?$codecvt@DDU_Mbstatet@@@2@@Z 004b75c0 f i MMOTOP.obj
 0001:000b6650       ?_Endwrite@?$basic_filebuf@DU?$char_traits@D@std@@@std@@IAE_NXZ 004b7650 f i MMOTOP.obj
 0001:000b6720       ?_Init@?$basic_filebuf@DU?$char_traits@D@std@@@std@@IAEXPAU_iobuf@@W4_Initfl@12@@Z 004b7720 f i MMOTOP.obj
 0001:000b6810       ?close@?$basic_filebuf@DU?$char_traits@D@std@@@std@@QAEPAV12@XZ 004b7810 f i MMOTOP.obj
 0001:000b6900       ?open@?$basic_filebuf@DU?$char_traits@D@std@@@std@@QAEPAV12@PBDHH@Z 004b7900 f i MMOTOP.obj
 0001:000b69c0       ??0?$basic_filebuf@DU?$char_traits@D@std@@@std@@QAE@XZ 004b79c0 f i MMOTOP.obj
 0001:000b6a60       ??$getline@DU?$char_traits@D@std@@V?$allocator@D@2@@std@@YAAAV?$basic_istream@DU?$char_traits@D@std@@@0@AAV10@AAV?$basic_string@DU?$char_traits@D@std@@V?$allocator@D@2@@0@@Z 004b7a60 f i MMOTOP.obj
 0001:000b6b10       ??$endl@DU?$char_traits@D@std@@@std@@YAAAV?$basic_ostream@DU?$char_traits@D@std@@@0@AAV10@@Z 004b7b10 f i MMOTOP.obj
 0001:000b6bc0       ??$use_facet@V?$codecvt@DDU_Mbstatet@@@std@@@std@@YAABV?$codecvt@DDU_Mbstatet@@@0@ABVlocale@0@@Z 004b7bc0 f i MMOTOP.obj
 0001:000b6d00       ??$_Emplace_reallocate@ABUTELEPORTS_NPC_DATA@@@?$vector@UTELEPORTS_NPC_DATA@@V?$allocator@UTELEPORTS_NPC_DATA@@@std@@@std@@QAEPAUTELEPORTS_NPC_DATA@@QAU2@ABU2@@Z 004b7d00 f i NPCTeleport.obj
 0001:000b6d00       ??$_Emplace_reallocate@ABUMMOTOP_DATA@@@?$vector@UMMOTOP_DATA@@V?$allocator@UMMOTOP_DATA@@@std@@@std@@QAEPAUMMOTOP_DATA@@QAU2@ABU2@@Z 004b7d00 f i MMOTOP.obj
 0001:000b6ed0       ?put@?$basic_ostream@DU?$char_traits@D@std@@@std@@QAEAAV12@D@Z 004b7ed0 f i MMOTOP.obj
 0001:000b7080       ??$getline@DU?$char_traits@D@std@@V?$allocator@D@2@@std@@YAAAV?$basic_istream@DU?$char_traits@D@std@@@0@$$QAV10@AAV?$basic_string@DU?$char_traits@D@std@@V?$allocator@D@2@@0@D@Z 004b8080 f i MMOTOP.obj
 0001:000b72f0       ??$_Insert_string@DU?$char_traits@D@std@@I@std@@YAAAV?$basic_ostream@DU?$char_traits@D@std@@@0@AAV10@QBDI@Z 004b82f0 f i MMOTOP.obj
 0001:000b7570       ??1sentry@?$basic_istream@DU?$char_traits@D@std@@@std@@QAE@XZ 004b8570 f i MMOTOP.obj
 0001:000b75d0       ?_Ipfx@?$basic_istream@DU?$char_traits@D@std@@@std@@QAE_N_N@Z 004b85d0 f i MMOTOP.obj
 0001:000b7660       ??_E?$basic_ofstream@DU?$char_traits@D@std@@@std@@$4PPPPPPPM@A@AEPAXI@Z 004b8660 f i MMOTOP.obj
 0001:000b7670       ?do_encoding@codecvt_base@std@@MBEHXZ 004b8670 f i MMOTOP.obj
 0001:000b7670       ?do_max_length@codecvt_base@std@@MBEHXZ 004b8670 f i MMOTOP.obj
 0001:000b7680       ??$_Reallocate_grow_by@V<lambda_15711c68e099a15a58f4d77303cb286d>@@D@?$basic_string@DU?$char_traits@D@std@@V?$allocator@D@2@@std@@AAEAAV01@IV<lambda_15711c68e099a15a58f4d77303cb286d>@@D@Z 004b8680 f i MMOTOP.obj
 0001:000b77c0       __vsscanf_l                004b87c0 f i MMOTOP.obj
 0001:000b77f0       _sscanf                    004b87f0 f i MMOTOP.obj
 0001:000b7810       ?gObjMonsterDieGiveItem@@YAXPAUOBJECTSTRUCT@@0@Z 004b8810 f   Monster.obj
 0001:000b8310       ?gObjSetPosMonster@@YA_NHH@Z 004b9310 f   Monster.obj
 0001:000b83e0       ?gObjSetMonster@@YA_NHH@Z  004b93e0 f   Monster.obj
 0001:000b8ef0       ?gObjMonsterRegen@@YA_NPAUOBJECTSTRUCT@@@Z 004b9ef0 f   Monster.obj
 0001:000b9100       ?gObjMonsterMoveCheck@@YA_NPAUOBJECTSTRUCT@@HH@Z 004ba100 f   Monster.obj
 0001:000b9230       ?gObjMonsterInitHitDamage@@YAXPAUOBJECTSTRUCT@@@Z 004ba230 f   Monster.obj
 0001:000b9280       ?gObjMonsterDelHitDamageUser@@YAHPAUOBJECTSTRUCT@@@Z 004ba280 f   Monster.obj
 0001:000b9330       ?gObjMonsterGetTopHitDamageUser@@YAHPAUOBJECTSTRUCT@@@Z 004ba330 f   Monster.obj
 0001:000b9430       ?gObjMonsterGetTopHitDamageParty@@YAHPAUOBJECTSTRUCT@@HPAH@Z 004ba430 f   Monster.obj
 0001:000b9630       ?gObjAddMonster@@YAHH@Z    004ba630 f   Monster.obj
 0001:000b97c0       ?gObjAddSummon@@YAHXZ      004ba7c0 f   Monster.obj
 0001:000b9910       ?gObjSummonSetEnemy@@YAHPAUOBJECTSTRUCT@@H@Z 004ba910 f   Monster.obj
 0001:000b9990       ?gObjSummonKill@@YAXH@Z    004ba990 f   Monster.obj
 0001:000b9a00       ?gObjMonsterMagicAttack@@YAXPAUOBJECTSTRUCT@@H@Z 004baa00 f   Monster.obj
 0001:000b9d20       ?gObjMonsterAttack@@YAXPAUOBJECTSTRUCT@@0@Z 004bad20 f   Monster.obj
 0001:000ba450       ?gObjMonsterDie@@YAXPAUOBJECTSTRUCT@@0@Z 004bb450 f   Monster.obj
 0001:000ba5f0       ?gObjMonsterStateProc@@YAXPAUOBJECTSTRUCT@@HHH@Z 004bb5f0 f   Monster.obj
 0001:000ba7e0       ?gObjMonsterGetTargetPos@@YAHPAUOBJECTSTRUCT@@@Z 004bb7e0 f   Monster.obj
 0001:000baad0       ?gObjGetTargetPos@@YAHPAUOBJECTSTRUCT@@HHAAH1@Z 004bbad0 f   Monster.obj
 0001:000baca0       ?gObjMonsterSearchEnemy@@YAHPAUOBJECTSTRUCT@@E@Z 004bbca0 f   Monster.obj
 0001:000bae40       ?gObjMonsterProcess@@YAXPAUOBJECTSTRUCT@@@Z 004bbe40 f   Monster.obj
 0001:000bb480       ?PathFindMoveMsgSend@@YAHPAUOBJECTSTRUCT@@@Z 004bc480 f   Monster.obj
 0001:000bb670       ?gObjMonsterMoveAction@@YAXPAUOBJECTSTRUCT@@@Z 004bc670 f   Monster.obj
 0001:000bb870       ?gObjMonsterBaseAct@@YAXPAUOBJECTSTRUCT@@@Z 004bc870 f   Monster.obj
 0001:000bc590       ?gObjMonsterTrapAct@@YAXPAUOBJECTSTRUCT@@@Z 004bd590 f   Monster.obj
 0001:000bc8c0       ?gObjMonsterStateProcCase0@@YAXPAUOBJECTSTRUCT@@H@Z 004bd8c0 f   Monster.obj
 0001:000bccb0       _powf                      004bdcb0 f i Monster.obj
 0001:000bcce0       ?MonsterAIProc@CMonsterAI@@SAXXZ 004bdce0 f   MonsterAI.obj
 0001:000bcf20       ?MonsterStateMsgProc@CMonsterAI@@SAXH@Z 004bdf20 f   MonsterAI.obj
 0001:000bd170       ?MonsterMove@CMonsterAI@@SAXH@Z 004be170 f   MonsterAI.obj
 0001:000bd3d0       ??0CMonsterAIAgroInfo@@QAE@XZ 004be3d0 f i MonsterAIAgro.obj
 0001:000bd3e0       ??_GCMonsterAIAgro@@UAEPAXI@Z 004be3e0 f i MonsterAIAgro.obj
 0001:000bd3e0       ??_ECMonsterAIAgro@@UAEPAXI@Z 004be3e0 f i * CIL library *:* CIL module *
 0001:000bd410       ?LoadData@CMonsterAIAutomata@@SAXPAD@Z 004be410 f   MonsterAIAutomata.obj
 0001:000bd700       ??0CMonsterAIAutomataInfo@@QAE@XZ 004be700 f   MonsterAIAutomataInfo.obj
 0001:000bd740       ??_GCMonsterAIAutomataInfo@@UAEPAXI@Z 004be740 f i MonsterAIAutomataInfo.obj
 0001:000bd740       ??_ECMonsterAIAutomataInfo@@UAEPAXI@Z 004be740 f i * CIL library *:* CIL module *
 0001:000bd770       ??1CMonsterAIAutomataInfo@@UAE@XZ 004be770 f   MonsterAIAutomataInfo.obj
 0001:000bd780       ?Reset@CMonsterAIAutomataInfo@@QAEXXZ 004be780 f   MonsterAIAutomataInfo.obj
 0001:000bd830       ?RunAutomataInfo@CMonsterAIAutomataInfo@@QAEPAVCMonsterAIState@@H@Z 004be830 f   MonsterAIAutomataInfo.obj
 0001:000bddf0       ?LoadData@CMonsterAIElement@@SAXPAD@Z 004bedf0 f   MonsterAIElement.obj
 0001:000be0f0       ?DelAllAIElement@CMonsterAIElement@@SAXXZ 004bf0f0 f   MonsterAIElement.obj
 0001:000be170       ??0CMonsterAIElementInfo@@QAE@XZ 004bf170 f   MonsterAIElementInfo.obj
 0001:000be1d0       ??_GCMonsterAIElementInfo@@UAEPAXI@Z 004bf1d0 f i MonsterAIElementInfo.obj
 0001:000be1d0       ??_ECMonsterAIElementInfo@@UAEPAXI@Z 004bf1d0 f i * CIL library *:* CIL module *
 0001:000be200       ??1CMonsterAIElementInfo@@UAE@XZ 004bf200 f   MonsterAIElementInfo.obj
 0001:000be210       ?ForceAIElementInfo@CMonsterAIElementInfo@@QAEHHHPAVCMonsterAIState@@@Z 004bf210 f   MonsterAIElementInfo.obj
 0001:000be830       ?ApplyElementMoveTarget@CMonsterAIElementInfo@@QAEXHHPAVCMonsterAIState@@@Z 004bf830 f   MonsterAIElementInfo.obj
 0001:000beae0       ?ApplyElementGroupMove@CMonsterAIElementInfo@@QAEXHHPAVCMonsterAIState@@@Z 004bfae0 f   MonsterAIElementInfo.obj
 0001:000bec40       ?ApplyElementAttack@CMonsterAIElementInfo@@QAEXHHPAVCMonsterAIState@@@Z 004bfc40 f   MonsterAIElementInfo.obj
 0001:000bef90       ?ApplyElementAttackArea@CMonsterAIElementInfo@@QAEXHHPAVCMonsterAIState@@@Z 004bff90 f   MonsterAIElementInfo.obj
 0001:000bf220       ?ApplyElementSkillAttack@CMonsterAIElementInfo@@QAEXHHPAVCMonsterAIState@@@Z 004c0220 f   MonsterAIElementInfo.obj
 0001:000bf600       ?LoadData@CMonsterAIGroup@@SAXPAD@Z 004c0600 f   MonsterAIGroup.obj
 0001:000bf910       ?ChangeAIOrder@CMonsterAIGroup@@SAXHH@Z 004c0910 f   MonsterAIGroup.obj
 0001:000bf9f0       ?DelAllGroupInfo@CMonsterAIGroup@@SAXXZ 004c09f0 f   MonsterAIGroup.obj
 0001:000bfa90       ?FindGroupMemberToHeal@CMonsterAIGroup@@SAPAVCMonsterAIGroupMember@@HHHHH@Z 004c0a90 f   MonsterAIGroup.obj
 0001:000bfbd0       ?Init@CMonsterAIGroup@@SAXH@Z 004c0bd0 f   MonsterAIGroup.obj
 0001:000bfd40       ??0CMonsterAIGroupMember@@QAE@XZ 004c0d40 f   MonsterAIGroupMember.obj
 0001:000bfdc0       ??_ECMonsterAIGroupMember@@UAEPAXI@Z 004c0dc0 f i * CIL library *:* CIL module *
 0001:000bfdc0       ??_GCMonsterAIGroupMember@@UAEPAXI@Z 004c0dc0 f i MonsterAIGroupMember.obj
 0001:000bfdf0       ??1CMonsterAIGroupMember@@UAE@XZ 004c0df0 f   MonsterAIGroupMember.obj
 0001:000bfe00       ??0CMonsterAIMovePath@@QAE@XZ 004c0e00 f   MonsterAIMovePath.obj
 0001:000bfe30       ??_ECMonsterAIMovePath@@UAEPAXI@Z 004c0e30 f i * CIL library *:* CIL module *
 0001:000bfe30       ??_GCMonsterAIMovePath@@UAEPAXI@Z 004c0e30 f i MonsterAIMovePath.obj
 0001:000bfe60       ??1CMonsterAIMovePath@@UAE@XZ 004c0e60 f   MonsterAIMovePath.obj
 0001:000bfe70       ?LoadData@CMonsterAIMovePath@@QAEXPAD@Z 004c0e70 f   MonsterAIMovePath.obj
 0001:000c0040       ?DelAllAIMonsterMovePath@CMonsterAIMovePath@@QAEXXZ 004c1040 f   MonsterAIMovePath.obj
 0001:000c0080       ??0CMonsterAIMovePathInfo@@QAE@XZ 004c1080 f   MonsterAIMovePathInfo.obj
 0001:000c00a0       ?LoadData@CMonsterAIRule@@SAXPAD@Z 004c10a0 f   MonsterAIRule.obj
 0001:000c0400       ?DelAllAIRule@CMonsterAIRule@@SAXXZ 004c1400 f   MonsterAIRule.obj
 0001:000c04d0       ??0CMonsterAIRuleInfo@@QAE@XZ 004c14d0 f   MonsterAIRuleInfo.obj
 0001:000c0550       ??_GCMonsterAIRuleInfo@@UAEPAXI@Z 004c1550 f i MonsterAIRuleInfo.obj
 0001:000c0550       ??_ECMonsterAIRuleInfo@@UAEPAXI@Z 004c1550 f i * CIL library *:* CIL module *
 0001:000c0580       ??1CMonsterAIRuleInfo@@UAE@XZ 004c1580 f   MonsterAIRuleInfo.obj
 0001:000c0590       ?CheckConditionSpecificDate@CMonsterAIRuleInfo@@QAEHXZ 004c1590 f   MonsterAIRuleInfo.obj
 0001:000c0840       ??0CMonsterAIState@@QAE@XZ 004c1840 f   MonsterAIState.obj
 0001:000c0890       ?LoadData@CMonsterAIUnit@@SAXPAD@Z 004c1890 f   MonsterAIUnit.obj
 0001:000c0d00       ??0CMonsterAIUnitInfo@@QAE@XZ 004c1d00 f   MonsterAIUnitInfo.obj
 0001:000c0d20       ??_ECMonsterAIUnitInfo@@UAEPAXI@Z 004c1d20 f i * CIL library *:* CIL module *
 0001:000c0d20       ??_GCMonsterAIUnitInfo@@UAEPAXI@Z 004c1d20 f i MonsterAIUnitInfo.obj
 0001:000c0d50       ??1CMonsterAIUnitInfo@@UAE@XZ 004c1d50 f   MonsterAIUnitInfo.obj
 0001:000c0d60       ?Reset@CMonsterAIUnitInfo@@QAEXXZ 004c1d60 f   MonsterAIUnitInfo.obj
 0001:000c0e00       ?FindPathToMoveMonster@CMonsterAIUtil@@SAHPAUOBJECTSTRUCT@@HHH_N@Z 004c1e00 f   MonsterAIUtil.obj
 0001:000c1230       ?GetXYToPatrol@CMonsterAIUtil@@SAHPAUOBJECTSTRUCT@@@Z 004c2230 f   MonsterAIUtil.obj
 0001:000c1360       ?GetXYToEascape@CMonsterAIUtil@@SAHPAUOBJECTSTRUCT@@@Z 004c2360 f   MonsterAIUtil.obj
 0001:000c1710       ?GetXYToChase@CMonsterAIUtil@@SAHPAUOBJECTSTRUCT@@@Z 004c2710 f   MonsterAIUtil.obj
 0001:000c1ab0       ?FindMonsterToHeal@CMonsterAIUtil@@SAJPAUOBJECTSTRUCT@@HH@Z 004c2ab0 f   MonsterAIUtil.obj
 0001:000c1c50       ??_ECMonsterManager@@UAEPAXI@Z 004c2c50 f i * CIL library *:* CIL module *
 0001:000c1c50       ??_GCMonsterManager@@UAEPAXI@Z 004c2c50 f i MonsterManager.obj
 0001:000c1c80       ?Init@CMonsterManager@@QAEXXZ 004c2c80 f   MonsterManager.obj
 0001:000c1ce0       ?load_xml@CMonsterManager@@QAEXPAD@Z 004c2ce0 f   MonsterManager.obj
 0001:000c2a20       ?LoadTXT@CMonsterManager@@QAEXABV?$basic_string@DU?$char_traits@D@std@@V?$allocator@D@2@@std@@0@Z 004c3a20 f   MonsterManager.obj
 0001:000c4320       ?SetMonsterData@CMonsterManager@@QAEXXZ 004c5320 f   MonsterManager.obj
 0001:000c46d0       ??$_Convert_stringoid_to_wide@U_Normal_conversion@filesystem@std@@@filesystem@std@@YA?AV?$basic_string@_WU?$char_traits@_W@std@@V?$allocator@_W@2@@1@V?$basic_string_view@DU?$char_traits@D@std@@@1@U_Normal_conversion@01@@Z 004c56d0 f i MonsterManager.obj
 0001:000c47d0       ?append@?$basic_string@_WU?$char_traits@_W@std@@V?$allocator@_W@2@@std@@QAEAAV12@I_W@Z 004c57d0 f i MonsterManager.obj
 0001:000c4980       ??0filesystem_error@filesystem@std@@QAE@ABV?$basic_string@DU?$char_traits@D@std@@V?$allocator@D@2@@2@ABVpath@12@1Verror_code@2@@Z 004c5980 f i MonsterManager.obj
 0001:000c4a40       ?_Throw_fs_error@filesystem@std@@YAXPBDW4__std_win_error@@ABVpath@12@2@Z 004c5a40 f i MonsterManager.obj
 0001:000c4af0       ?_Throw_fs_error@filesystem@std@@YAXPBDW4__std_win_error@@ABVpath@12@@Z 004c5af0 f i MonsterManager.obj
 0001:000c4b90       ?_Get_any_status@filesystem@std@@YA?AU_File_status_and_error@12@ABVpath@12@W4__std_fs_stats_flags@@@Z 004c5b90 f i MonsterManager.obj
 0001:000c4d20       ?make_error_code@std@@YA?AVerror_code@1@W4errc@1@@Z 004c5d20 f i MonsterManager.obj
 0001:000c4d30       ?_Throw_system_error@std@@YAXW4errc@1@@Z 004c5d30 f i MonsterManager.obj
 0001:000c4d60       ??0system_error@std@@QAE@Verror_code@1@@Z 004c5d60 f i MonsterManager.obj
 0001:000c4e30       ?name@_System_error_category@std@@UBEPBDXZ 004c5e30 f i MonsterManager.obj
 0001:000c4e40       ??1_System_error_message@std@@QAE@XZ 004c5e40 f i MonsterManager.obj
 0001:000c4e50       ?message@_System_error_category@std@@UBE?AV?$basic_string@DU?$char_traits@D@std@@V?$allocator@D@2@@2@H@Z 004c5e50 f i MonsterManager.obj
 0001:000c4ef0       ?name@_Generic_error_category@std@@UBEPBDXZ 004c5ef0 f i MonsterManager.obj
 0001:000c4f00       ?message@_Generic_error_category@std@@UBE?AV?$basic_string@DU?$char_traits@D@std@@V?$allocator@D@2@@2@H@Z 004c5f00 f i MonsterManager.obj
 0001:000c4f50       ?default_error_condition@_System_error_category@std@@UBE?AVerror_condition@2@H@Z 004c5f50 f i MonsterManager.obj
 0001:000c4fd0       ?_Make_ec@filesystem@std@@YA?AVerror_code@2@W4__std_win_error@@@Z 004c5fd0 f i MonsterManager.obj
 0001:000c4ff0       ?_Throw_system_error_from_std_win_error@filesystem@std@@YAXW4__std_win_error@@@Z 004c5ff0 f i MonsterManager.obj
 0001:000c5020       ??$_Convert_wide_to_narrow_replace_chars@U?$char_traits@D@std@@V?$allocator@D@2@@filesystem@std@@YA?AV?$basic_string@DU?$char_traits@D@std@@V?$allocator@D@2@@1@W4__std_code_page@@V?$basic_string_view@_WU?$char_traits@_W@std@@@1@ABV?$allocator@D@1@@Z 004c6020 f i MonsterManager.obj
 0001:000c5100       ?reserve@?$basic_string@DU?$char_traits@D@std@@V?$allocator@D@2@@std@@QAEXI@Z 004c6100 f i MonsterManager.obj
 0001:000c52a0       ??$?YV?$basic_string_view@DU?$char_traits@D@std@@@std@@$0A@@?$basic_string@DU?$char_traits@D@std@@V?$allocator@D@2@@std@@QAEAAV01@ABV?$basic_string_view@DU?$char_traits@D@std@@@1@@Z 004c62a0 f i MonsterManager.obj
 0001:000c5310       ?_Pretty_message@filesystem_error@filesystem@std@@CA?AV?$basic_string@DU?$char_traits@D@std@@V?$allocator@D@2@@3@V?$basic_string_view@DU?$char_traits@D@std@@@3@ABVpath@23@1@Z 004c6310 f i MonsterManager.obj
 0001:000c5520       ??0filesystem_error@filesystem@std@@QAE@ABV?$basic_string@DU?$char_traits@D@std@@V?$allocator@D@2@@2@ABVpath@12@Verror_code@2@@Z 004c6520 f i MonsterManager.obj
 0001:000c5640       ??1filesystem_error@filesystem@std@@UAE@XZ 004c6640 f i MonsterManager.obj
 0001:000c56b0       ??_Efilesystem_error@filesystem@std@@UAEPAXI@Z 004c66b0 f i * CIL library *:* CIL module *
 0001:000c56b0       ??_Gfilesystem_error@filesystem@std@@UAEPAXI@Z 004c66b0 f i MonsterManager.obj
 0001:000c5740       ?what@filesystem_error@filesystem@std@@UBEPBDXZ 004c6740 f i MonsterManager.obj
 0001:000c5750       ??0path@filesystem@std@@QAE@ABV012@@Z 004c6750 f i MonsterManager.obj
 0001:000c57f0       ??1path@filesystem@std@@QAE@XZ 004c67f0 f i MonsterManager.obj
 0001:000c5800       ??0filesystem_error@filesystem@std@@QAE@ABV012@@Z 004c6800 f i MonsterManager.obj
 0001:000c58b0       ?_Throw_fs_error@filesystem@std@@YAXPBDABVerror_code@2@ABVpath@12@@Z 004c68b0 f i MonsterManager.obj
 0001:000c5940       ??_GCMonsterSetBase@@UAEPAXI@Z 004c6940 f i MonsterSetBase.obj
 0001:000c5940       ??_ECMonsterSetBase@@UAEPAXI@Z 004c6940 f i * CIL library *:* CIL module *
 0001:000c5990       ?Load@CMonsterSetBase@@QAEXPAD@Z 004c6990 f   MonsterSetBase.obj
 0001:000c6450       ?generate_xml@CMonsterSetBase@@QBEXXZ 004c7450 f   MonsterSetBase.obj
 0001:000c7a40       ?add_to_list@CMonsterSetBase@@QAEXUMONSTER_SET_BASE_INFO@@@Z 004c8a40 f   MonsterSetBase.obj
 0001:000c7ec0       ??1?$map@HV?$vector@UMONSTER_SET_BASE_INFO@@V?$allocator@UMONSTER_SET_BASE_INFO@@@std@@@std@@U?$less@H@2@V?$allocator@U?$pair@$$CBHV?$vector@UMONSTER_SET_BASE_INFO@@V?$allocator@UMONSTER_SET_BASE_INFO@@@std@@@std@@@std@@@2@@std@@QAE@XZ 004c8ec0 f i MonsterSetBase.obj
 0001:000c7ee0       ??1?$pair@HV?$map@HV?$vector@UMONSTER_SET_BASE_INFO@@V?$allocator@UMONSTER_SET_BASE_INFO@@@std@@@std@@U?$less@H@2@V?$allocator@U?$pair@$$CBHV?$vector@UMONSTER_SET_BASE_INFO@@V?$allocator@UMONSTER_SET_BASE_INFO@@@std@@@std@@@std@@@2@@std@@@std@@QAE@XZ 004c8ee0 f i MonsterSetBase.obj
 0001:000c7f00       ?LoadTXT@CMonsterSetBase@@QAEXPAD@Z 004c8f00 f   MonsterSetBase.obj
 0001:000c81f0       ?SetInfo@CMonsterSetBase@@QAEXUMONSTER_SET_BASE_INFO@@@Z 004c91f0 f   MonsterSetBase.obj
 0001:000c8280       ?GetPosition@CMonsterSetBase@@QAE_NHFPAF0@Z 004c9280 f   MonsterSetBase.obj
 0001:000c8320       ?GetBoxPosition@CMonsterSetBase@@QAE_NHHHHHPAF0@Z 004c9320 f   MonsterSetBase.obj
 0001:000c8400       ??$insert@U?$pair@HV?$vector@UMONSTER_SET_BASE_INFO@@V?$allocator@UMONSTER_SET_BASE_INFO@@@std@@@std@@@std@@$0A@@?$map@HV?$vector@UMONSTER_SET_BASE_INFO@@V?$allocator@UMONSTER_SET_BASE_INFO@@@std@@@std@@U?$less@H@2@V?$allocator@U?$pair@$$CBHV?$vector@UMONSTER_SET_BASE_INFO@@V?$allocator@UMONSTER_SET_BASE_INFO@@@std@@@std@@@std@@@2@@std@@QAE?AU?$pair@V?$_Tree_iterator@V?$_Tree_val@U?$_Tree_simple_types@U?$pair@$$CBHV?$vector@UMONSTER_SET_BASE_INFO@@V?$allocator@UMONSTER_SET_BASE_INFO@@@std@@@std@@@std@@@std@@@std@@@std@@_N@1@$$QAU?$pair@HV?$vector@UMONSTER_SET_BASE_INFO@@V?$allocator@UMONSTER_SET_BASE_INFO@@@std@@@std@@@1@@Z 004c9400 f i MonsterSetBase.obj
 0001:000c8530       ??$_Emplace_reallocate@ABUMONSTER_SET_BASE_INFO@@@?$vector@UMONSTER_SET_BASE_INFO@@V?$allocator@UMONSTER_SET_BASE_INFO@@@std@@@std@@QAEPAUMONSTER_SET_BASE_INFO@@QAU2@ABU2@@Z 004c9530 f i MonsterSetBase.obj
 0001:000c8690       ??$_Erase_tree@V?$allocator@U?$_Tree_node@U?$pair@$$CBHV?$map@HV?$vector@UMONSTER_SET_BASE_INFO@@V?$allocator@UMONSTER_SET_BASE_INFO@@@std@@@std@@U?$less@H@2@V?$allocator@U?$pair@$$CBHV?$vector@UMONSTER_SET_BASE_INFO@@V?$allocator@UMONSTER_SET_BASE_INFO@@@std@@@std@@@std@@@2@@std@@@std@@PAX@std@@@std@@@?$_Tree_val@U?$_Tree_simple_types@U?$pair@$$CBHV?$map@HV?$vector@UMONSTER_SET_BASE_INFO@@V?$allocator@UMONSTER_SET_BASE_INFO@@@std@@@std@@U?$less@H@2@V?$allocator@U?$pair@$$CBHV?$vector@UMONSTER_SET_BASE_INFO@@V?$allocator@UMONSTER_SET_BASE_INFO@@@std@@@std@@@std@@@2@@std@@@std@@@std@@@std@@QAEXAAV?$allocator@U?$_Tree_node@U?$pair@$$CBHV?$map@HV?$vector@UMONSTER_SET_BASE_INFO@@V?$allocator@UMONSTER_SET_BASE_INFO@@@std@@@std@@U?$less@H@2@V?$allocator@U?$pair@$$CBHV?$vector@UMONSTER_SET_BASE_INFO@@V?$allocator@UMONSTER_SET_BASE_INFO@@@std@@@std@@@std@@@2@@std@@@std@@PAX@std@@@1@PAU?$_Tree_node@U?$pair@$$CBHV?$map@HV?$vector@UMONSTER_SET_BASE_INFO@@V?$allocator@UMONSTER_SET_BASE_INFO@@@std@@@std@@U?$less@H@2@V?$allocator@U?$pair@$$CBHV?$vector@UMONSTER_SET_BASE_INFO@@V?$allocator@UMONSTER_SET_BASE_INFO@@@std@@@std@@@std@@@2@@std@@@std@@PAX@1@@Z 004c9690 f i MonsterSetBase.obj
 0001:000c86f0       ?allocate@?$allocator@UMONSTER_SET_BASE_INFO@@@std@@QAEPAUMONSTER_SET_BASE_INFO@@I@Z 004c96f0 f i MonsterSetBase.obj
 0001:000c8750       ??$_Copy_nodes@U_Copy_tag@?$_Tree@V?$_Tmap_traits@HV?$vector@UMONSTER_SET_BASE_INFO@@V?$allocator@UMONSTER_SET_BASE_INFO@@@std@@@std@@U?$less@H@2@V?$allocator@U?$pair@$$CBHV?$vector@UMONSTER_SET_BASE_INFO@@V?$allocator@UMONSTER_SET_BASE_INFO@@@std@@@std@@@std@@@2@$0A@@std@@@std@@@?$_Tree@V?$_Tmap_traits@HV?$vector@UMONSTER_SET_BASE_INFO@@V?$allocator@UMONSTER_SET_BASE_INFO@@@std@@@std@@U?$less@H@2@V?$allocator@U?$pair@$$CBHV?$vector@UMONSTER_SET_BASE_INFO@@V?$allocator@UMONSTER_SET_BASE_INFO@@@std@@@std@@@std@@@2@$0A@@std@@@std@@IAEPAU?$_Tree_node@U?$pair@$$CBHV?$vector@UMONSTER_SET_BASE_INFO@@V?$allocator@UMONSTER_SET_BASE_INFO@@@std@@@std@@@std@@PAX@1@PAU21@0U_Copy_tag@01@@Z 004c9750 f i MonsterSetBase.obj
 0001:000c88a0       ?LoadData@CMonsterSkillElement@@SAXPAD@Z 004c98a0 f   MonsterSkillElement.obj
 0001:000c8b50       ?DelAllSkillElement@CMonsterSkillElement@@SAXXZ 004c9b50 f   MonsterSkillElement.obj
 0001:000c8bd0       ??0CMonsterSkillElementInfo@@QAE@XZ 004c9bd0 f   MonsterSkillElementInfo.obj
 0001:000c8c30       ??_ECMonsterSkillElementInfo@@UAEPAXI@Z 004c9c30 f i * CIL library *:* CIL module *
 0001:000c8c30       ??_GCMonsterSkillElementInfo@@UAEPAXI@Z 004c9c30 f i MonsterSkillElementInfo.obj
 0001:000c8c60       ??1CMonsterSkillElementInfo@@UAE@XZ 004c9c60 f   MonsterSkillElementInfo.obj
 0001:000c8c70       ?ForceSkillElementInfo@CMonsterSkillElementInfo@@QAEXHH@Z 004c9c70 f   MonsterSkillElementInfo.obj
 0001:000c99d0       ?ApplyElementSummon@CMonsterSkillElementInfo@@QAEXHH@Z 004ca9d0 f   MonsterSkillElementInfo.obj
 0001:000c9c70       ?Reset@CMonsterSkillElementOption@@QAEXXZ 004cac70 f   MonsterSkillElementOption.obj
 0001:000c9d10       ?CheckSkillElementOptionProc@CMonsterSkillElementOption@@SAXPAUOBJECTSTRUCT@@@Z 004cad10 f   MonsterSkillElementOption.obj
 0001:000ca000       ??0CMonsterSkillInfo@@QAE@XZ 004cb000 f   MonsterSkillInfo.obj
 0001:000ca010       ?Reset@CMonsterSkillInfo@@QAEXXZ 004cb010 f   MonsterSkillInfo.obj
 0001:000ca0b0       ?LoadData@CMonsterSkillManager@@SAXPAD@Z 004cb0b0 f   MonsterSkillManager.obj
 0001:000ca2e0       ?FindMonsterSkillUnitInfo@CMonsterSkillManager@@SAPAVCMonsterSkillUnitInfo@@HH@Z 004cb2e0 f   MonsterSkillManager.obj
 0001:000ca420       ?UseMonsterSkill@CMonsterSkillManager@@SAXHHHHPAVCSkill@@@Z 004cb420 f   MonsterSkillManager.obj
 0001:000ca700       ?SpecialMonsterSkillAttack@CMonsterSkillManager@@SAXPAUOBJECTSTRUCT@@0PAVCSkill@@PAVCMonsterSkillUnitInfo@@@Z 004cb700 f   MonsterSkillManager.obj
 0001:000ca7c0       ?LoadData@CMonsterSkillUnit@@SAXPAD@Z 004cb7c0 f   MonsterSkillUnit.obj
 0001:000caaa0       ?DelAllSkillUnit@CMonsterSkillUnit@@SAXXZ 004cbaa0 f   MonsterSkillUnit.obj
 0001:000cab40       ??0CMonsterSkillUnitInfo@@QAE@XZ 004cbb40 f   MonsterSkillUnitInfo.obj
 0001:000cabb0       ??_ECMonsterSkillUnitInfo@@UAEPAXI@Z 004cbbb0 f i * CIL library *:* CIL module *
 0001:000cabb0       ??_GCMonsterSkillUnitInfo@@UAEPAXI@Z 004cbbb0 f i MonsterSkillUnitInfo.obj
 0001:000cabe0       ??1CMonsterSkillUnitInfo@@UAE@XZ 004cbbe0 f   MonsterSkillUnitInfo.obj
 0001:000cabf0       ?Load@cMonsterCall@@QAEXPAD@Z 004cbbf0 f   MonsterCall.obj
 0001:000cade0       ?SetMonster@cMonsterCall@@QAEHPAUOBJECTSTRUCT@@PAVCItem@@@Z 004cbde0 f   MonsterCall.obj
 0001:000cb1b0       ?RespawnMonster@cMonsterCall@@QAEHPAUOBJECTSTRUCT@@@Z 004cc1b0 f   MonsterCall.obj
 0001:000cb430       ??$_Emplace_reallocate@ABUCALL_INFO@@@?$vector@UCALL_INFO@@V?$allocator@UCALL_INFO@@@std@@@std@@QAEPAUCALL_INFO@@QAU2@ABU2@@Z 004cc430 f i MonsterCall.obj
 0001:000cb630       ??_ECMonsterSpawn@@UAEPAXI@Z 004cc630 f i * CIL library *:* CIL module *
 0001:000cb630       ??_GCMonsterSpawn@@UAEPAXI@Z 004cc630 f i MonsterSpawn.obj
 0001:000cb660       ?Load@CMonsterSpawn@@QAEXPAD@Z 004cc660 f   MonsterSpawn.obj
 0001:000cb8a0       ?CreateMonsterCallback@CMonsterSpawn@@SAXPAUOBJECTSTRUCT@@PADKKKK@Z 004cc8a0 f   MonsterSpawn.obj
 0001:000cbcf0       ?CheckReq@CMonsterSpawn@@QAE_NPAUOBJECTSTRUCT@@HKKK@Z 004cccf0 f   MonsterSpawn.obj
 0001:000cbf80       ??_GCMossMerchant@@UAEPAXI@Z 004ccf80 f i MossMerchant.obj
 0001:000cbf80       ??_ECMossMerchant@@UAEPAXI@Z 004ccf80 f i * CIL library *:* CIL module *
 0001:000cbfc0       ?Load@CMossMerchant@@QAEXPAD@Z 004ccfc0 f   MossMerchant.obj
 0001:000cc3c0       ?SetState@CMossMerchant@@QAEXH@Z 004cd3c0 f   MossMerchant.obj
 0001:000cc4e0       ?SetState_EMPTY@CMossMerchant@@QAEXXZ 004cd4e0 f   MossMerchant.obj
 0001:000cc6c0       ?GambleItem@CMossMerchant@@QAE_NPAUOBJECTSTRUCT@@H@Z 004cd6c0 f   MossMerchant.obj
 0001:000cc8f0       ??_GCMove@@UAEPAXI@Z       004cd8f0 f i Move.obj
 0001:000cc8f0       ??_ECMove@@UAEPAXI@Z       004cd8f0 f i * CIL library *:* CIL module *
 0001:000cc920       ?Load@CMove@@QAEXPAD@Z     004cd920 f   Move.obj
 0001:000ccc50       ?GetInfo@CMove@@QAE_NHPAUMOVE_INFO@@@Z 004cdc50 f   Move.obj
 0001:000cccc0       ?Move@CMove@@QAEXPAUOBJECTSTRUCT@@H@Z 004cdcc0 f   Move.obj
 0001:000cd340       ?CGTeleportRecv@CMove@@QAEXPAUPMSG_TELEPORT_RECV@@H@Z 004ce340 f   Move.obj
 0001:000cd9b0       ?clear@?$_Tree@V?$_Tmap_traits@HUMOVE_INFO@@U?$less@H@std@@V?$allocator@U?$pair@$$CBHUMOVE_INFO@@@std@@@3@$0A@@std@@@std@@QAEXXZ 004ce9b0 f i Move.obj
 0001:000cda00       ??1?$_Tree@V?$_Tmap_traits@HUPENTAGRAM_JEWEL_OPTION_INFO@@U?$less@H@std@@V?$allocator@U?$pair@$$CBHUPENTAGRAM_JEWEL_OPTION_INFO@@@std@@@3@$0A@@std@@@std@@QAE@XZ 004cea00 f i PentagramSystem.obj
 0001:000cda00       ??1?$_Tree@V?$_Tmap_traits@HUMOVE_INFO@@U?$less@H@std@@V?$allocator@U?$pair@$$CBHUMOVE_INFO@@@std@@@3@$0A@@std@@@std@@QAE@XZ 004cea00 f i Move.obj
 0001:000cda40       ??$_Erase_tree@V?$allocator@U?$_Tree_node@U?$pair@$$CBHUMOVE_INFO@@@std@@PAX@std@@@std@@@?$_Tree_val@U?$_Tree_simple_types@U?$pair@$$CBHUMOVE_INFO@@@std@@@std@@@std@@QAEXAAV?$allocator@U?$_Tree_node@U?$pair@$$CBHUMOVE_INFO@@@std@@PAX@std@@@1@PAU?$_Tree_node@U?$pair@$$CBHUMOVE_INFO@@@std@@PAX@1@@Z 004cea40 f i Move.obj
 0001:000cda40       ??$_Erase_tree@V?$allocator@U?$_Tree_node@U?$pair@$$CBHUPENTAGRAM_JEWEL_OPTION_INFO@@@std@@PAX@std@@@std@@@?$_Tree_val@U?$_Tree_simple_types@U?$pair@$$CBHUPENTAGRAM_JEWEL_OPTION_INFO@@@std@@@std@@@std@@QAEXAAV?$allocator@U?$_Tree_node@U?$pair@$$CBHUPENTAGRAM_JEWEL_OPTION_INFO@@@std@@PAX@std@@@1@PAU?$_Tree_node@U?$pair@$$CBHUPENTAGRAM_JEWEL_OPTION_INFO@@@std@@PAX@1@@Z 004cea40 f i PentagramSystem.obj
 0001:000cda80       ??1?$_Alloc_construct_ptr@V?$allocator@U?$_Tree_node@U?$pair@$$CBHUMOVE_INFO@@@std@@PAX@std@@@std@@@std@@QAE@XZ 004cea80 f i Move.obj
 0001:000cdaa0       ??_GCMoveSummon@@UAEPAXI@Z 004ceaa0 f i MoveSummon.obj
 0001:000cdaa0       ??_ECMoveSummon@@UAEPAXI@Z 004ceaa0 f i * CIL library *:* CIL module *
 0001:000cdad0       ?Load@CMoveSummon@@QAEXPAD@Z 004cead0 f   MoveSummon.obj
 0001:000cdd10       ?CheckMoveSummon@CMoveSummon@@QAE_NPAUOBJECTSTRUCT@@HHH@Z 004ced10 f   MoveSummon.obj
 0001:000cdf00       ?Generic_Call@MULua@@QAA_NPBD0ZZ 004cef00 f   MuLua.obj
 0001:000ce4c0       ??_ECMuRummyMng@@UAEPAXI@Z 004cf4c0 f i * CIL library *:* CIL module *
 0001:000ce4c0       ??_GCMuRummyMng@@UAEPAXI@Z 004cf4c0 f i MuRummy.obj
 0001:000ce4f0       ??_GCMuunSystem@@UAEPAXI@Z 004cf4f0 f i MuunSystem.obj
 0001:000ce4f0       ??_ECMuunSystem@@UAEPAXI@Z 004cf4f0 f i * CIL library *:* CIL module *
 0001:000ce530       ??1?$map@HUMUUN_SYSTEM_INFO@@U?$less@H@std@@V?$allocator@U?$pair@$$CBHUMUUN_SYSTEM_INFO@@@std@@@3@@std@@QAE@XZ 004cf530 f i MuunSystem.obj
 0001:000ce540       ??1?$_Tree@V?$_Tmap_traits@HUMUUN_SYSTEM_OPTION_INFO@@U?$less@H@std@@V?$allocator@U?$pair@$$CBHUMUUN_SYSTEM_OPTION_INFO@@@std@@@3@$0A@@std@@@std@@QAE@XZ 004cf540 f i MuunSystem.obj
 0001:000ce580       ??$_Erase_tree@V?$allocator@U?$_Tree_node@U?$pair@$$CBHUMUUN_SYSTEM_OPTION_INFO@@@std@@PAX@std@@@std@@@?$_Tree_val@U?$_Tree_simple_types@U?$pair@$$CBHUMUUN_SYSTEM_OPTION_INFO@@@std@@@std@@@std@@QAEXAAV?$allocator@U?$_Tree_node@U?$pair@$$CBHUMUUN_SYSTEM_OPTION_INFO@@@std@@PAX@std@@@1@PAU?$_Tree_node@U?$pair@$$CBHUMUUN_SYSTEM_OPTION_INFO@@@std@@PAX@1@@Z 004cf580 f i MuunSystem.obj
 0001:000ce5c0       ?Init@NewsBoard@@QAEXXZ    004cf5c0 f   NewsBoard.obj
 0001:000ce600       ?ReadListData@NewsBoard@@QAEXPAD@Z 004cf600 f   NewsBoard.obj
 0001:000ce820       ?OpenMain@NewsBoard@@QAEXPAUOBJECTSTRUCT@@@Z 004cf820 f   NewsBoard.obj
 0001:000ce900       ??_GCNotice@@UAEPAXI@Z     004cf900 f i Notice.obj
 0001:000ce900       ??_ECNotice@@UAEPAXI@Z     004cf900 f i * CIL library *:* CIL module *
 0001:000ce930       ?Load@CNotice@@QAEXPAD@Z   004cf930 f   Notice.obj
 0001:000cebb0       ?GCNoticeSend@CNotice@@QAAXHEEEGKEPADZZ 004cfbb0 f   Notice.obj
 0001:000cecb0       ?GCNoticeSendToAll@CNotice@@QAAXEEEGKEPADZZ 004cfcb0 f   Notice.obj
 0001:000cede0       ?GCNoticeSendToMap@CNotice@@QAAXHEEEGKEPADZZ 004cfde0 f   Notice.obj
 0001:000cef20       ??_GCNpcTalk@@UAEPAXI@Z    004cff20 f i NpcTalk.obj
 0001:000cef20       ??_ECNpcTalk@@UAEPAXI@Z    004cff20 f i * CIL library *:* CIL module *
 0001:000cef50       ?NpcTalk@CNpcTalk@@QAE_NPAUOBJECTSTRUCT@@0@Z 004cff50 f   NpcTalk.obj
 0001:000d1760       ?NpcCastleSiegeCrown@CNpcTalk@@QAEXPAUOBJECTSTRUCT@@0@Z 004d2760 f   NpcTalk.obj
 0001:000d1af0       ?NpcCastleSiegeCrownSwitch@CNpcTalk@@QAEXPAUOBJECTSTRUCT@@0@Z 004d2af0 f   NpcTalk.obj
 0001:000d1d50       ?NpcCastleSiegeSenior@CNpcTalk@@QAEXPAUOBJECTSTRUCT@@0@Z 004d2d50 f   NpcTalk.obj
 0001:000d1f90       ?NpcChaosGoblin@CNpcTalk@@QAEXPAUOBJECTSTRUCT@@0@Z 004d2f90 f   NpcTalk.obj
 0001:000d2080       ?NpcChristmas@CNpcTalk@@QAEXPAUOBJECTSTRUCT@@0@Z 004d3080 f   NpcTalk.obj
 0001:000d2200       ?NpcSartiganTheAngel@CNpcTalk@@QAEXPAUOBJECTSTRUCT@@0@Z 004d3200 f   NpcTalk.obj
 0001:000d23c0       ?CGNpcTalkRecv@CNpcTalk@@QAEXPAUPMSG_NPC_TALK_RECV@@H@Z 004d33c0 f   NpcTalk.obj
 0001:000d2870       ?CGNpcTalkCloseRecv@CNpcTalk@@QAEXH@Z 004d3870 f   NpcTalk.obj
 0001:000d2a80       ??_ENPCTeleport@@UAEPAXI@Z 004d3a80 f i * CIL library *:* CIL module *
 0001:000d2a80       ??_GNPCTeleport@@UAEPAXI@Z 004d3a80 f i NPCTeleport.obj
 0001:000d2ac0       ?Load@NPCTeleport@@QAEXPAD@Z 004d3ac0 f   NPCTeleport.obj
 0001:000d2ef0       ?TeleportCallback@NPCTeleport@@SAXPAUOBJECTSTRUCT@@QADKKKK@Z 004d3ef0 f   NPCTeleport.obj
 0001:000d3070       ?TeleportNpcCallback@NPCTeleport@@SAXPAUOBJECTSTRUCT@@0KKKK@Z 004d4070 f   NPCTeleport.obj
 0001:000d31d0       ?Teleport@NPCTeleport@@QAEXPAUOBJECTSTRUCT@@UTELEPORT_DATA@@UWCOINS_STRUCT@@@Z 004d41d0 f   NPCTeleport.obj
 0001:000d3770       ??_GCObjectManager@@UAEPAXI@Z 004d4770 f i ObjectManager.obj
 0001:000d3770       ??_ECObjectManager@@UAEPAXI@Z 004d4770 f i * CIL library *:* CIL module *
 0001:000d37a0       ?ObjectMsgProc@CObjectManager@@QAEXPAUOBJECTSTRUCT@@@Z 004d47a0 f   ObjectManager.obj
 0001:000d3860       ?ObjectSetStateCreate@CObjectManager@@QAEXH@Z 004d4860 f   ObjectManager.obj
 0001:000d3c20       ?ObjectSetStateProc@CObjectManager@@QAEXXZ 004d4c20 f   ObjectManager.obj
 0001:000d4550       ?ObjectStateProc@CObjectManager@@QAEXPAUOBJECTSTRUCT@@HHH@Z 004d5550 f   ObjectManager.obj
 0001:000d4730       ?ObjectStateAttackProc@CObjectManager@@QAEXPAUOBJECTSTRUCT@@HHHH@Z 004d5730 f   ObjectManager.obj
 0001:000d49e0       ?ObjectMoveProc@CObjectManager@@QAEXXZ 004d59e0 f   ObjectManager.obj
 0001:000d4dd0       ?ObjectMonsterAndMsgProc@CObjectManager@@QAEXXZ 004d5dd0 f   ObjectManager.obj
 0001:000d5280       ?CharacterGameClose@CObjectManager@@QAE_NH@Z 004d6280 f   ObjectManager.obj
 0001:000d5c70       ?CharacterGameCloseSet@CObjectManager@@QAEXHH@Z 004d6c70 f   ObjectManager.obj
 0001:000d5e90       ?CharacterUpdateMapEffect@CObjectManager@@QAEXPAUOBJECTSTRUCT@@@Z 004d6e90 f   ObjectManager.obj
 0001:000d5f90       ?CharacterGetRespawnLocation@CObjectManager@@QAE_NPAUOBJECTSTRUCT@@@Z 004d6f90 f   ObjectManager.obj
 0001:000d6660       ?CharacterCalcExperienceSplit@CObjectManager@@QAEXPAUOBJECTSTRUCT@@0HH@Z 004d7660 f   ObjectManager.obj
 0001:000d66f0       ?CharacterCalcExperienceAlone@CObjectManager@@QAEXPAUOBJECTSTRUCT@@0HH_NH@Z 004d76f0 f   ObjectManager.obj
 0001:000d7180       ?CharacterCalcExperienceParty@CObjectManager@@QAEXPAUOBJECTSTRUCT@@0HH@Z 004d8180 f   ObjectManager.obj
 0001:000d81e0       ?CharacterLevelUp@CObjectManager@@QAE_NPAUOBJECTSTRUCT@@KHH@Z 004d91e0 f   ObjectManager.obj
 0001:000d8800       ?CharacterLevelUpPointAdd@CObjectManager@@QAE_NPAUOBJECTSTRUCT@@HH@Z 004d9800 f   ObjectManager.obj
 0001:000d8980       ?CharacterPetLevelUp@CObjectManager@@QAEXPAUOBJECTSTRUCT@@K@Z 004d9980 f   ObjectManager.obj
 0001:000d8b60       ?CharacterMakePreviewCharSet@CObjectManager@@QAEXH@Z 004d9b60 f   ObjectManager.obj
 0001:000d9510       ?CharacterUseScroll@CObjectManager@@QAE_NPAUOBJECTSTRUCT@@PAVCItem@@@Z 004da510 f   ObjectManager.obj
 0001:000d98f0       ?CharacterUsePotion@CObjectManager@@QAE_NPAUOBJECTSTRUCT@@PAVCItem@@@Z 004da8f0 f   ObjectManager.obj
 0001:000d9cf0       ?CharacterUsePortal@CObjectManager@@QAE_NPAUOBJECTSTRUCT@@PAVCItem@@@Z 004dacf0 f   ObjectManager.obj
 0001:000d9fd0       ?CharacterUseJewelOfBles@CObjectManager@@QAE_NPAUOBJECTSTRUCT@@HH@Z 004dafd0 f   ObjectManager.obj
 0001:000da240       ?CharacterUseJewelOfSoul@CObjectManager@@QAE_NPAUOBJECTSTRUCT@@HH@Z 004db240 f   ObjectManager.obj
 0001:000da480       ?CharacterUseJewelOfLife@CObjectManager@@QAE_NPAUOBJECTSTRUCT@@HH@Z 004db480 f   ObjectManager.obj
 0001:000da770       ?CharacterUseCustomJewel@CObjectManager@@QAE_NPAUOBJECTSTRUCT@@HH@Z 004db770 f   ObjectManager.obj
 0001:000dad80       ?CharacterUseTalismanOfResurrection@CObjectManager@@QAE_NPAUOBJECTSTRUCT@@H@Z 004dbd80 f   ObjectManager.obj
 0001:000daeb0       ?CharacterUseCreationCard@CObjectManager@@QAE_NPAUOBJECTSTRUCT@@PAVCItem@@@Z 004dbeb0 f   ObjectManager.obj
 0001:000db020       ?CharacterMonsterDieHunt@CObjectManager@@QAEXPAUOBJECTSTRUCT@@0@Z 004dc020 f   ObjectManager.obj
 0001:000db1b0       ?CharacterAutoRecuperation@CObjectManager@@QAEXPAUOBJECTSTRUCT@@@Z 004dc1b0 f   ObjectManager.obj
 0001:000db5b0       ?CharacterItemDurationDown@CObjectManager@@QAEXPAUOBJECTSTRUCT@@@Z 004dc5b0 f   ObjectManager.obj
 0001:000dbb80       ?CharacterCalcBP@CObjectManager@@QAEXPAUOBJECTSTRUCT@@@Z 004dcb80 f   ObjectManager.obj
 0001:000dbe90       ?CharacterCalcAttribute@CObjectManager@@QAEXH@Z 004dce90 f   ObjectManager.obj
 0001:000dea10       ?CharacterInfoSet@CObjectManager@@QAE_NPAEH@Z 004dfa10 f   ObjectManager.obj
 0001:000dfe50       ?CharacterLifeCheck@CObjectManager@@QAEXPAUOBJECTSTRUCT@@0HHHHHH@Z 004e0e50 f   ObjectManager.obj
 0001:000e0e00       ??_GcOfflineData@@UAEPAXI@Z 004e1e00 f i OfflineData.obj
 0001:000e0e00       ??_EcOfflineData@@UAEPAXI@Z 004e1e00 f i * CIL library *:* CIL module *
 0001:000e0e50       ??$_Erase_tree@V?$allocator@U?$_Tree_node@U?$pair@$$CBV?$basic_string@DU?$char_traits@D@std@@V?$allocator@D@2@@std@@UOFFLINE_DATA@@@std@@PAX@std@@@std@@@?$_Tree_val@U?$_Tree_simple_types@U?$pair@$$CBV?$basic_string@DU?$char_traits@D@std@@V?$allocator@D@2@@std@@UOFFLINE_DATA@@@std@@@std@@@std@@QAEXAAV?$allocator@U?$_Tree_node@U?$pair@$$CBV?$basic_string@DU?$char_traits@D@std@@V?$allocator@D@2@@std@@UOFFLINE_DATA@@@std@@PAX@std@@@1@PAU?$_Tree_node@U?$pair@$$CBV?$basic_string@DU?$char_traits@D@std@@V?$allocator@D@2@@std@@UOFFLINE_DATA@@@std@@PAX@1@@Z 004e1e50 f i OfflineData.obj
 0001:000e0ee0       ?LoadSkillsInfo@cOfflineMode@@QAEXPAD@Z 004e1ee0 f   OfflineMode.obj
 0001:000e1150       ?CheckSkill@cOfflineMode@@QAE_NPAUOBJECTSTRUCT@@H@Z 004e2150 f   OfflineMode.obj
 0001:000e1230       ?GCOfflineModeSend@cOfflineMode@@QAEXH@Z 004e2230 f   OfflineMode.obj
 0001:000e1a90       ?CGOfflineModeStartRecv@cOfflineMode@@QAEXPAUPMSG_OFFLINEMODE_DATA_RECV@@H@Z 004e2a90 f   OfflineMode.obj
 0001:000e1e50       ?PickItems@cOfflineMode@@QAEXPAUOBJECTSTRUCT@@@Z 004e2e50 f   OfflineMode.obj
 0001:000e21d0       ?GetSelectedItems@cOfflineMode@@QAEXPAUOBJECTSTRUCT@@@Z 004e31d0 f   OfflineMode.obj
 0001:000e2420       ?UseBuffs@cOfflineMode@@QAEXPAUOBJECTSTRUCT@@@Z 004e3420 f   OfflineMode.obj
 0001:000e27e0       ??$_Emplace_reallocate@ABUSKILLS_INFO@@@?$vector@USKILLS_INFO@@V?$allocator@USKILLS_INFO@@@std@@@std@@QAEPAUSKILLS_INFO@@QAU2@ABU2@@Z 004e37e0 f i OfflineMode.obj
 0001:000e29b0       ?Check@cOfflineProtection@@QAE_NXZ 004e39b0 f   OfflineProtection.obj
 0001:000e2be0       ?Load@COptionReplace@@QAEXPAD@Z 004e3be0 f   OptionReplace.obj
 0001:000e2df0       ??$_Emplace_reallocate@AAUOPTION_REPLACE_INFO@@@?$vector@UOPTION_REPLACE_INFO@@V?$allocator@UOPTION_REPLACE_INFO@@@std@@@std@@QAEPAUOPTION_REPLACE_INFO@@QAU2@AAU2@@Z 004e3df0 f i OptionReplace.obj
 0001:000e2fc0       ??_GCPacketManager@@UAEPAXI@Z 004e3fc0 f i PacketManager.obj
 0001:000e2fc0       ??_ECPacketManager@@UAEPAXI@Z 004e3fc0 f i * CIL library *:* CIL module *
 0001:000e2ff0       ?LoadKey@CPacketManager@@QAE_NPADG_N@Z 004e3ff0 f   PacketManager.obj
 0001:000e3170       ?Encrypt@CPacketManager@@QAEHPAE0H@Z 004e4170 f   PacketManager.obj
 0001:000e3340       ?Decrypt@CPacketManager@@QAEHPAE0H@Z 004e4340 f   PacketManager.obj
 0001:000e3510       ?AddBits@CPacketManager@@QAEHPAEH0HH@Z 004e4510 f   PacketManager.obj
 0001:000e36b0       ?Shift@CPacketManager@@QAEXPAEHH@Z 004e46b0 f   PacketManager.obj
 0001:000e3740       ?ExtractPacket@CPacketManager@@QAE_NPAE@Z 004e4740 f   PacketManager.obj
 0001:000e37d0       ?Load@CPackSystem@@QAEXPAD@Z 004e47d0 f   PackSystem.obj
 0001:000e3b90       ?CGMixRecv@CPackSystem@@QAEXPAUCG_MIX_RECV@@H@Z 004e4b90 f   PackSystem.obj
 0001:000e3da0       ?CGUnMixRecv@CPackSystem@@QAEXPAUCG_UNMIX_RECV@@H@Z 004e4da0 f   PackSystem.obj
 0001:000e3fa0       ??$_Emplace_reallocate@ABUPackSystemData@@@?$vector@UPackSystemData@@V?$allocator@UPackSystemData@@@std@@@std@@QAEPAUPackSystemData@@QAU2@ABU2@@Z 004e4fa0 f i PackSystem.obj
 0001:000e4120       ??_GCParty@@UAEPAXI@Z      004e5120 f i Party.obj
 0001:000e4120       ??_ECParty@@UAEPAXI@Z      004e5120 f i * CIL library *:* CIL module *
 0001:000e4150       ?Create@CParty@@QAE_NH@Z   004e5150 f   Party.obj
 0001:000e4230       ?Destroy@CParty@@QAE_NH@Z  004e5230 f   Party.obj
 0001:000e4300       ?AddMember@CParty@@QAE_NHH@Z 004e5300 f   Party.obj
 0001:000e43a0       ?DelMember@CParty@@QAE_NHH@Z 004e53a0 f   Party.obj
 0001:000e4480       ?SetLeader@CParty@@QAE_NHH@Z 004e5480 f   Party.obj
 0001:000e4610       ?PartyMoveUser@CParty@@QAEXPAUOBJECTSTRUCT@@H@Z 004e5610 f   Party.obj
 0001:000e47e0       ?SetLeader@CParty@@QAEXPAUOBJECTSTRUCT@@H@Z 004e57e0 f   Party.obj
 0001:000e4990       ?AutoAcceptPartyRequest@CParty@@QAE_NPAUOBJECTSTRUCT@@0@Z 004e5990 f   Party.obj
 0001:000e4bf0       ?CGPartyRequestRecv@CParty@@QAEXPAUPMSG_PARTY_REQUEST_RECV@@H@Z 004e5bf0 f   Party.obj
 0001:000e50f0       ?CGPartyRequestResultRecv@CParty@@QAEXPAUPMSG_PARTY_REQUEST_RESULT_RECV@@H@Z 004e60f0 f   Party.obj
 0001:000e5360       ?CGPartyDelMemberRecv@CParty@@QAEXPAUPMSG_PARTY_DEL_MEMBER_RECV@@H@Z 004e6360 f   Party.obj
 0001:000e54c0       ?GCPartyListSend@CParty@@QAEXH@Z 004e64c0 f   Party.obj
 0001:000e5840       ?GCPartyDelMemberSend@CParty@@QAEXH@Z 004e6840 f   Party.obj
 0001:000e58a0       ??_GCPartyMatching@@UAEPAXI@Z 004e68a0 f i PartyMatching.obj
 0001:000e58a0       ??_ECPartyMatching@@UAEPAXI@Z 004e68a0 f i * CIL library *:* CIL module *
 0001:000e58d0       ?PartySearchAddToList@cPartySearch@@QAEXPAUPMSG_RECV_PARTYSEARCH_ADD@@H@Z 004e68d0 f   PartySearch.obj
 0001:000e5e20       ?GCPartyListSend@cPartySearch@@QAEXH@Z 004e6e20 f   PartySearch.obj
 0001:000e6460       ?RequestParty@cPartySearch@@QAEXPAUPMSG_PARTY_REQ_REQ@@H@Z 004e7460 f   PartySearch.obj
 0001:000e67a0       ?SendPartySettings@cPartySearch@@QAEXPAUOBJECTSTRUCT@@@Z 004e77a0 f   PartySearch.obj
 0001:000e69e0       ??$erase@V?$_Tree_iterator@V?$_Tree_val@U?$_Tree_simple_types@U?$pair@$$CBV?$basic_string@DU?$char_traits@D@std@@V?$allocator@D@2@@std@@UREGISTERED_INFO@@@std@@@std@@@std@@@std@@$0A@@?$_Tree@V?$_Tmap_traits@V?$basic_string@DU?$char_traits@D@std@@V?$allocator@D@2@@std@@UREGISTERED_INFO@@U?$less@V?$basic_string@DU?$char_traits@D@std@@V?$allocator@D@2@@std@@@2@V?$allocator@U?$pair@$$CBV?$basic_string@DU?$char_traits@D@std@@V?$allocator@D@2@@std@@UREGISTERED_INFO@@@std@@@2@$0A@@std@@@std@@QAE?AV?$_Tree_iterator@V?$_Tree_val@U?$_Tree_simple_types@U?$pair@$$CBV?$basic_string@DU?$char_traits@D@std@@V?$allocator@D@2@@std@@UREGISTERED_INFO@@@std@@@std@@@std@@@1@V21@@Z 004e79e0 f i PartySearch.obj
 0001:000e6a70       ??$_Erase_tree@V?$allocator@U?$_Tree_node@U?$pair@$$CBV?$basic_string@DU?$char_traits@D@std@@V?$allocator@D@2@@std@@UREGISTERED_INFO@@@std@@PAX@std@@@std@@@?$_Tree_val@U?$_Tree_simple_types@U?$pair@$$CBV?$basic_string@DU?$char_traits@D@std@@V?$allocator@D@2@@std@@UREGISTERED_INFO@@@std@@@std@@@std@@QAEXAAV?$allocator@U?$_Tree_node@U?$pair@$$CBV?$basic_string@DU?$char_traits@D@std@@V?$allocator@D@2@@std@@UREGISTERED_INFO@@@std@@PAX@std@@@1@PAU?$_Tree_node@U?$pair@$$CBV?$basic_string@DU?$char_traits@D@std@@V?$allocator@D@2@@std@@UREGISTERED_INFO@@@std@@PAX@1@@Z 004e7a70 f i PartySearch.obj
 0001:000e6b00       ??$emplace@U?$pair@V?$basic_string@DU?$char_traits@D@std@@V?$allocator@D@2@@std@@UREGISTERED_INFO@@@std@@@?$_Tree@V?$_Tmap_traits@V?$basic_string@DU?$char_traits@D@std@@V?$allocator@D@2@@std@@UREGISTERED_INFO@@U?$less@V?$basic_string@DU?$char_traits@D@std@@V?$allocator@D@2@@std@@@2@V?$allocator@U?$pair@$$CBV?$basic_string@DU?$char_traits@D@std@@V?$allocator@D@2@@std@@UREGISTERED_INFO@@@std@@@2@$0A@@std@@@std@@QAE?AU?$pair@V?$_Tree_iterator@V?$_Tree_val@U?$_Tree_simple_types@U?$pair@$$CBV?$basic_string@DU?$char_traits@D@std@@V?$allocator@D@2@@std@@UREGISTERED_INFO@@@std@@@std@@@std@@@std@@_N@1@$$QAU?$pair@V?$basic_string@DU?$char_traits@D@std@@V?$allocator@D@2@@std@@UREGISTERED_INFO@@@1@@Z 004e7b00 f i PartySearch.obj
 0001:000e6c50       ??1?$_Alloc_construct_ptr@V?$allocator@U?$_Tree_node@U?$pair@$$CBV?$basic_string@DU?$char_traits@D@std@@V?$allocator@D@2@@std@@UREGISTERED_INFO@@@std@@PAX@std@@@std@@@std@@QAE@XZ 004e7c50 f i PartySearch.obj
 0001:000e6c70       ??_ECPath@@UAEPAXI@Z       004e7c70 f i * CIL library *:* CIL module *
 0001:000e6c70       ??_GCPath@@UAEPAXI@Z       004e7c70 f i Path.obj
 0001:000e6ca0       ??_ECPcPoint@@UAEPAXI@Z    004e7ca0 f i * CIL library *:* CIL module *
 0001:000e6ca0       ??_GCPcPoint@@UAEPAXI@Z    004e7ca0 f i PcPoint.obj
 0001:000e6ca0       ??_ECShop@@UAEPAXI@Z       004e7ca0 f i * CIL library *:* CIL module *
 0001:000e6ca0       ??_GCShop@@UAEPAXI@Z       004e7ca0 f i Shop.obj
 0001:000e6cd0       ??_GCPentagramSystem@@UAEPAXI@Z 004e7cd0 f i PentagramSystem.obj
 0001:000e6cd0       ??_ECPentagramSystem@@UAEPAXI@Z 004e7cd0 f i * CIL library *:* CIL module *
 0001:000e6d30       ??1?$map@HUPENTAGRAM_JEWEL_OPTION_INFO@@U?$less@H@std@@V?$allocator@U?$pair@$$CBHUPENTAGRAM_JEWEL_OPTION_INFO@@@std@@@3@@std@@QAE@XZ 004e7d30 f i PentagramSystem.obj
 0001:000e6d40       ??1?$map@HUPENTAGRAM_JEWEL_REMOVE_INFO@@U?$less@H@std@@V?$allocator@U?$pair@$$CBHUPENTAGRAM_JEWEL_REMOVE_INFO@@@std@@@3@@std@@QAE@XZ 004e7d40 f i PentagramSystem.obj
 0001:000e6d50       ??1?$_Tree@V?$_Tmap_traits@HUPENTAGRAM_JEWEL_REMOVE_INFO@@U?$less@H@std@@V?$allocator@U?$pair@$$CBHUPENTAGRAM_JEWEL_REMOVE_INFO@@@std@@@3@$0A@@std@@@std@@QAE@XZ 004e7d50 f i PentagramSystem.obj
 0001:000e6d90       ??$_Erase_tree@V?$allocator@U?$_Tree_node@U?$pair@$$CBHUPENTAGRAM_JEWEL_REMOVE_INFO@@@std@@PAX@std@@@std@@@?$_Tree_val@U?$_Tree_simple_types@U?$pair@$$CBHUPENTAGRAM_JEWEL_REMOVE_INFO@@@std@@@std@@@std@@QAEXAAV?$allocator@U?$_Tree_node@U?$pair@$$CBHUPENTAGRAM_JEWEL_REMOVE_INFO@@@std@@PAX@std@@@1@PAU?$_Tree_node@U?$pair@$$CBHUPENTAGRAM_JEWEL_REMOVE_INFO@@@std@@PAX@1@@Z 004e7d90 f i PentagramSystem.obj
 0001:000e6dd0       ??_GCPersonalShop@@UAEPAXI@Z 004e7dd0 f i PersonalShop.obj
 0001:000e6dd0       ??_ECPersonalShop@@UAEPAXI@Z 004e7dd0 f i * CIL library *:* CIL module *
 0001:000e6e00       ?CheckPersonalShop@CPersonalShop@@QAE_NH@Z 004e7e00 f   PersonalShop.obj
 0001:000e6e60       ?CheckPersonalShopOpen@CPersonalShop@@QAE_NH@Z 004e7e60 f   PersonalShop.obj
 0001:000e6ec0       ?SetPaymentJewelCount@CPersonalShop@@QAEXPAUOBJECTSTRUCT@@PAHH@Z 004e7ec0 f   PersonalShop.obj
 0001:000e7150       ?CGPShopSetItemPriceRecv@CPersonalShop@@QAEXPAUPMSG_PSHOP_SET_ITEM_PRICE_RECV@@H@Z 004e8150 f   PersonalShop.obj
 0001:000e7270       ?CGPShopSetItemPriceRecvEx@CPersonalShop@@QAEXPAUPMSG_PSHOP_SET_ITEM_PRICE_EX_RECV@@H@Z 004e8270 f   PersonalShop.obj
 0001:000e74e0       ?CGPShopOpenRecv@CPersonalShop@@QAEXPAUPMSG_PSHOP_OPEN_RECV@@H@Z 004e84e0 f   PersonalShop.obj
 0001:000e76c0       ?CGPShopItemListRecv@CPersonalShop@@QAEXPAUPMSG_PSHOP_ITEM_LIST_RECV@@H@Z 004e86c0 f   PersonalShop.obj
 0001:000e78b0       ?CGPShopBuyItemRecv@CPersonalShop@@QAEXPAUPMSG_PSHOP_BUY_ITEM_RECV@@H@Z 004e88b0 f   PersonalShop.obj
 0001:000e7ec0       ?GCPShopViewportSend@CPersonalShop@@QAEXH@Z 004e8ec0 f   PersonalShop.obj
 0001:000e82c0       ?GCPShopItemListSend@CPersonalShop@@QAEXHHEE@Z 004e92c0 f   PersonalShop.obj
 0001:000e84b0       ?Load@Pickup@@QAEXPAD@Z    004e94b0 f   Pickup.obj
 0001:000e8620       ?PickCommand@Pickup@@QAEXPAUOBJECTSTRUCT@@PAD@Z 004e9620 f   Pickup.obj
 0001:000e8940       ??$_Emplace_reallocate@ABUPICKUP@@@?$vector@UPICKUP@@V?$allocator@UPICKUP@@@std@@@std@@QAEPAUPICKUP@@QAU2@ABU2@@Z 004e9940 f i Pickup.obj
 0001:000e8ac0       ??_ECPremiumDrop@@UAEPAXI@Z 004e9ac0 f i * CIL library *:* CIL module *
 0001:000e8ac0       ??_GCPremiumDrop@@UAEPAXI@Z 004e9ac0 f i PremiumDrop.obj
 0001:000e8af0       ?Load@CPremiumDrop@@QAEXPAD@Z 004e9af0 f   PremiumDrop.obj
 0001:000e8e80       ?DropPremium@CPremiumDrop@@QBE_NPAUOBJECTSTRUCT@@0@Z 004e9e80 f   PremiumDrop.obj
 0001:000e9140       ??$sprintf_s@$0DC@@@YAHAAY0DC@DPBDZZ 004ea140 f i PremiumDrop.obj
 0001:000e9160       ??_GCProtect@@UAEPAXI@Z    004ea160 f i Protect.obj
 0001:000e9160       ??_ECProtect@@UAEPAXI@Z    004ea160 f i * CIL library *:* CIL module *
 0001:000e9190       ??_GCProtection@@UAEPAXI@Z 004ea190 f i Protection.obj
 0001:000e9190       ??_ECProtection@@UAEPAXI@Z 004ea190 f i * CIL library *:* CIL module *
 0001:000e91c0       ?Auth@CProtection@@QAEXPAUHINSTANCE__@@PAUHWND__@@@Z 004ea1c0 f   Protection.obj
 0001:000e9210       ?SetCustomState@CProtection@@QAEXH_N@Z 004ea210 f   Protection.obj
 0001:000e9320       ?InitDialog@CProtection@@QAEXPAUHWND__@@@Z 004ea320 f   Protection.obj
 0001:000e9c40       ?ProtocolCore@@YAXEPAEHHHH@Z 004eac40 f   Protocol.obj
 0001:000efe90       ?CGChatRecv@@YAXPAUPMSG_CHAT_RECV@@H@Z 004f0e90 f   Protocol.obj
 0001:000f0ad0       ?CGChatWhisperRecv@@YAXPAUPMSG_CHAT_WHISPER_RECV@@H@Z 004f1ad0 f   Protocol.obj
 0001:000f0ea0       ?CGLiveClientRecv@@YAXPAUPMSG_LIVE_CLIENT_RECV@@H@Z 004f1ea0 f   Protocol.obj
 0001:000f0fd0       ?CGPositionRecv@@YAXPAUPMSG_POSITION_RECV@@H@Z 004f1fd0 f   Protocol.obj
 0001:000f1280       ?CGEventRemainTimeRecv@@YAXPAUPMSG_EVENT_REMAIN_TIME_RECV@@H@Z 004f2280 f   Protocol.obj
 0001:000f15f0       ?CGPetItemInfoRecv@@YAXPAUPMSG_PET_ITEM_INFO_RECV@@H@Z 004f25f0 f   Protocol.obj
 0001:000f1880       ?CGMapServerMoveAuthRecv@@YAXPAUPMSG_MAP_SERVER_MOVE_AUTH_RECV@@H@Z 004f2880 f   Protocol.obj
 0001:000f1ad0       ?CGMoveRecv@@YAXPAUPMSG_MOVE_RECV@@H@Z 004f2ad0 f   Protocol.obj
 0001:000f21d0       ?CGConnectAccountRecv@@YAXPAUPMSG_CONNECT_ACCOUNT_RECV@@H@Z 004f31d0 f   Protocol.obj
 0001:000f2470       ?CGCharacterCreateRecv@@YAXPAUPMSG_CHARACTER_CREATE_RECV@@H@Z 004f3470 f   Protocol.obj
 0001:000f25f0       ?CGLevelUpPointRecv@@YAXPAUPMSG_LEVEL_UP_POINT_RECV@@H@Z 004f35f0 f   Protocol.obj
 0001:000f27e0       ?GCChatTargetSend@@YAXPAUOBJECTSTRUCT@@HPAD@Z 004f37e0 f   Protocol.obj
 0001:000f2870       ?GCMapEventStateSend@@YAXHEE@Z 004f3870 f   Protocol.obj
 0001:000f28e0       ?GCDamageSend@@YAXHHEHHH@Z 004f38e0 f   Protocol.obj
 0001:000f29e0       ?GCUserDieSend@@YAXPAUOBJECTSTRUCT@@HHH@Z 004f39e0 f   Protocol.obj
 0001:000f2a70       ?GCMoneySend@@YAXHK@Z      004f3a70 f   Protocol.obj
 0001:000f2af0       ?GCLifeSend@@YAXHEHH@Z     004f3af0 f   Protocol.obj
 0001:000f2b80       ?GCManaSend@@YAXHEHH@Z     004f3b80 f   Protocol.obj
 0001:000f2c10       ?GCMapAttrSend@@YAXHEEEEPAUPMSG_MAP_ATTR@@@Z 004f3c10 f   Protocol.obj
 0001:000f2cd0       ?GCMonsterSkillSend@@YAXPAUOBJECTSTRUCT@@0H@Z 004f3cd0 f   Protocol.obj
 0001:000f2d50       ?GCMonsterDieSend@@YAXHHHHE@Z 004f3d50 f   Protocol.obj
 0001:000f2de0       ?GCRewardExperienceSend@@YAXHH@Z 004f3de0 f   Protocol.obj
 0001:000f2e40       ?GCConnectAccountSend@@YAXHEI@Z 004f3e40 f   Protocol.obj
 0001:000f2eb0       ?GCCharacterRegenSend@@YAXPAUOBJECTSTRUCT@@@Z 004f3eb0 f   Protocol.obj
 0001:000f3070       ?GCLevelUpSend@@YAXPAUOBJECTSTRUCT@@@Z 004f4070 f   Protocol.obj
 0001:000f32c0       ?GCMonsterDamageSend@@YAXHHH@Z 004f42c0 f   Protocol.obj
 0001:000f3380       ?GCNewCharacterInfoSend@@YAXPAUOBJECTSTRUCT@@@Z 004f4380 f   Protocol.obj
 0001:000f3710       ?GCNewCharacterCalcSend@@YAXPAUOBJECTSTRUCT@@@Z 004f4710 f   Protocol.obj
 0001:000f3d40       ?GCNewHealthBarSend@@YAXPAUOBJECTSTRUCT@@@Z 004f4d40 f   Protocol.obj
 0001:000f4140       ?GCNewGensBattleInfoSend@@YAXPAUOBJECTSTRUCT@@@Z 004f5140 f   Protocol.obj
 0001:000f4360       ?GCAnsCastleSiegeState@@YAXHHPAD0@Z 004f5360 f   Protocol.obj
 0001:000f4570       ?CGReqRegCastleSiege@@YAXPAUPMSG_REQ_REGCASTLESIEGE@@H@Z 004f5570 f   Protocol.obj
 0001:000f4810       ?GCAnsRegCastleSiege@@YAXHHPAD@Z 004f5810 f   Protocol.obj
 0001:000f48b0       ?GCAnsGiveUpCastleSiege@@YAXHHHHPAD@Z 004f58b0 f   Protocol.obj
 0001:000f49b0       ?CGReqRegGuildMark@@YAXPAUPMSG_REQ_REGGUILDMARK@@H@Z 004f59b0 f   Protocol.obj
 0001:000f4ba0       ?GCAnsRegGuildMark@@YAXHHPAUCSP_ANS_GUILDREGMARK@@@Z 004f5ba0 f   Protocol.obj
 0001:000f4d60       ?CGReqNpcBuy@@YAXPAUPMSG_REQ_NPCBUY@@H@Z 004f5d60 f   Protocol.obj
 0001:000f50d0       ?CGReqNpcRepair@@YAXPAUPMSG_REQ_NPCREPAIR@@H@Z 004f60d0 f   Protocol.obj
 0001:000f54a0       ?GCAnsNpcRepair@@YAXHHHHHH@Z 004f64a0 f   Protocol.obj
 0001:000f5500       ?CGReqNpcUpgrade@@YAXPAUPMSG_REQ_NPCUPGRADE@@H@Z 004f6500 f   Protocol.obj
 0001:000f5bc0       ?GCAnsNpcUpgrade@@YAXHHHHHH@Z 004f6bc0 f   Protocol.obj
 0001:000f5c20       ?CGReqTaxRateChange@@YAXPAUPMSG_REQ_TAXRATECHANGE@@H@Z 004f6c20 f   Protocol.obj
 0001:000f5e40       ?CGReqMoneyDrawOut@@YAXPAUPMSG_REQ_MONEYDRAWOUT@@H@Z 004f6e40 f   Protocol.obj
 0001:000f6100       ?CGReqCsGateOperate@@YAXPAUPMSG_REQ_CSGATEOPERATE@@H@Z 004f7100 f   Protocol.obj
 0001:000f64e0       ?GCAnsCsAccessCrownState@@YAXHE@Z 004f74e0 f   Protocol.obj
 0001:000f6680       ?GCAnsCsLeftTimeAlarm@@YAXEE@Z 004f7680 f   Protocol.obj
 0001:000f66e0       ?CGReqCsAttkGuildList@@YAXPAUPMSG_REQ_CSATTKGUILDLIST@@H@Z 004f76e0 f   Protocol.obj
 0001:000f6870       ?CGReqCastleHuntZoneEntrance@@YAXPAUPMSG_REQ_MOVE_TO_CASTLE_HUNTZONE@@H@Z 004f7870 f   Protocol.obj
 0001:000f6a00       ?CGWarehouseOpen@@YAXPAUPMSG_WAREHOUSEINTERFACE_RECV@@H@Z 004f7a00 f   Protocol.obj
 0001:000f6c70       ?CGStatAddRecv@@YAXPAUPMSG_UPDATE_STATS_RECV@@H@Z 004f7c70 f   Protocol.obj
 0001:000f7070       ?CGRecvJBankAct@@YAXPAUPMSG_JBANK_ACT_SEND@@H@Z 004f8070 f   Protocol.obj
 0001:000f7210       ?CGResetStatsRecv@@YAXPAUPMSG_RESET_STATS_RECV@@H@Z 004f8210 f   Protocol.obj
 0001:000f7450       ?ResetStatsCallback@@YAXPAUOBJECTSTRUCT@@HKKKK@Z 004f8450 f   Protocol.obj
 0001:000f76a0       ??_EcPVPZone@@UAEPAXI@Z    004f86a0 f i * CIL library *:* CIL module *
 0001:000f76a0       ??_GcPVPZone@@UAEPAXI@Z    004f86a0 f i PVPZone.obj
 0001:000f76d0       ?Load@cPVPZone@@QAEXPAD@Z  004f86d0 f   PVPZone.obj
 0001:000f7890       ??1?$vector@UPVPZONE_DATA@@V?$allocator@UPVPZONE_DATA@@@std@@@std@@QAE@XZ 004f8890 f i PVPZone.obj
 0001:000f7900       ??$_Emplace_reallocate@ABUPVPZONE_DATA@@@?$vector@UPVPZONE_DATA@@V?$allocator@UPVPZONE_DATA@@@std@@@std@@QAEPAUPVPZONE_DATA@@QAU2@ABU2@@Z 004f8900 f i PVPZone.obj
 0001:000f7aa0       ??_GCQuest@@UAEPAXI@Z      004f8aa0 f i Quest.obj
 0001:000f7aa0       ??_ECQuest@@UAEPAXI@Z      004f8aa0 f i * CIL library *:* CIL module *
 0001:000f7ad0       ?Load@CQuest@@QAEXPAD@Z    004f8ad0 f   Quest.obj
 0001:000f7d30       ?CheckQuestRequisite@CQuest@@QAE_NPAUOBJECTSTRUCT@@PAUQUEST_INFO@@@Z 004f8d30 f   Quest.obj
 0001:000f7e10       ?CGQuestStateRecv@CQuest@@QAEXPAUPMSG_QUEST_STATE_RECV@@H@Z 004f8e10 f   Quest.obj
 0001:000f8130       ?GCQuestInfoSend@CQuest@@QAEXH@Z 004f9130 f   Quest.obj
 0001:000f81c0       ??_GCQuestObjective@@UAEPAXI@Z 004f91c0 f i QuestObjective.obj
 0001:000f81c0       ??_ECQuestObjective@@UAEPAXI@Z 004f91c0 f i * CIL library *:* CIL module *
 0001:000f81f0       ?Load@CQuestObjective@@QAEXPAD@Z 004f91f0 f   QuestObjective.obj
 0001:000f84a0       ?GetQuestObjectiveCount@CQuestObjective@@QAEHPAUOBJECTSTRUCT@@PAUQUEST_OBJECTIVE_INFO@@@Z 004f94a0 f   QuestObjective.obj
 0001:000f8520       ?InitQuestObjectiveKillCount@CQuestObjective@@QAEXPAUOBJECTSTRUCT@@H@Z 004f9520 f   QuestObjective.obj
 0001:000f8600       ?RemoveQuestObjective@CQuestObjective@@QAEXPAUOBJECTSTRUCT@@H@Z 004f9600 f   QuestObjective.obj
 0001:000f8730       ?MonsterItemDrop@CQuestObjective@@QAE_NPAUOBJECTSTRUCT@@@Z 004f9730 f   QuestObjective.obj
 0001:000f88e0       ?MonsterItemDropParty@CQuestObjective@@QAE_NPAUOBJECTSTRUCT@@H@Z 004f98e0 f   QuestObjective.obj
 0001:000f8a90       ?MonsterKill@CQuestObjective@@QAEXPAUOBJECTSTRUCT@@@Z 004f9a90 f   QuestObjective.obj
 0001:000f8c10       ?MonsterKillParty@CQuestObjective@@QAEXPAUOBJECTSTRUCT@@H@Z 004f9c10 f   QuestObjective.obj
 0001:000f8da0       ??_ECQuestReward@@UAEPAXI@Z 004f9da0 f i * CIL library *:* CIL module *
 0001:000f8da0       ??_GCQuestReward@@UAEPAXI@Z 004f9da0 f i QuestReward.obj
 0001:000f8de0       ?Load@CQuestReward@@QAEXPAD@Z 004f9de0 f   QuestReward.obj
 0001:000f9080       ?InsertQuestReward@CQuestReward@@QAEXPAUOBJECTSTRUCT@@H@Z 004fa080 f   QuestReward.obj
 0001:000f94a0       ??_ECQuestSystem@@UAEPAXI@Z 004fa4a0 f i * CIL library *:* CIL module *
 0001:000f94a0       ??_GCQuestSystem@@UAEPAXI@Z 004fa4a0 f i QuestSystemEx.obj
 0001:000f94e0       ?Init@CQuestSystem@@QAEXXZ 004fa4e0 f   QuestSystemEx.obj
 0001:000f9590       ?LoadFile@CQuestSystem@@QAEXPAD@Z 004fa590 f   QuestSystemEx.obj
 0001:000fa0c0       ?NpcTalk@CQuestSystem@@QAEXPAUOBJECTSTRUCT@@@Z 004fb0c0 f   QuestSystemEx.obj
 0001:000fa4a0       ?connect@CQuestSystem@@QAEXPAUOBJECTSTRUCT@@@Z 004fb4a0 f   QuestSystemEx.obj
 0001:000fa6f0       ?make_reward@CQuestSystem@@QAEXPAUOBJECTSTRUCT@@@Z 004fb6f0 f   QuestSystemEx.obj
 0001:000fab20       ?MonsterKill@CQuestSystem@@QAEXPAUOBJECTSTRUCT@@0@Z 004fbb20 f   QuestSystemEx.obj
 0001:000facf0       ?send_message@CQuestSystem@@SAXHHPADZZ 004fbcf0 f   QuestSystemEx.obj
 0001:000fadc0       ?MakeItem@CQuestSystem@@QAE_NPAUOBJECTSTRUCT@@H@Z 004fbdc0 f   QuestSystemEx.obj
 0001:000fafe0       ?gc_send_quest_info@CQuestSystem@@QAEXH_N@Z 004fbfe0 f   QuestSystemEx.obj
 0001:000fb0c0       ??1?$_Tree@V?$_Tmap_traits@HUQUEST_DATA@@U?$less@H@std@@V?$allocator@U?$pair@$$CBHUQUEST_DATA@@@std@@@3@$0A@@std@@@std@@QAE@XZ 004fc0c0 f i QuestSystemEx.obj
 0001:000fb110       ??1?$vector@UQUEST_DATA@@V?$allocator@UQUEST_DATA@@@std@@@std@@QAE@XZ 004fc110 f i QuestSystemEx.obj
 0001:000fb180       ??$_Erase_tree@V?$allocator@U?$_Tree_node@U?$pair@$$CBHUQUEST_DATA@@@std@@PAX@std@@@std@@@?$_Tree_val@U?$_Tree_simple_types@U?$pair@$$CBHUQUEST_DATA@@@std@@@std@@@std@@QAEXAAV?$allocator@U?$_Tree_node@U?$pair@$$CBHUQUEST_DATA@@@std@@PAX@std@@@1@PAU?$_Tree_node@U?$pair@$$CBHUQUEST_DATA@@@std@@PAX@1@@Z 004fc180 f i QuestSystemEx.obj
 0001:000fb1c0       ??_ECQuestWorld@@UAEPAXI@Z 004fc1c0 f i * CIL library *:* CIL module *
 0001:000fb1c0       ??_GCQuestWorld@@UAEPAXI@Z 004fc1c0 f i QuestWorld.obj
 0001:000fb1f0       ?Load@CQuestWorld@@QAEXPAD@Z 004fc1f0 f   QuestWorld.obj
 0001:000fb530       ?GetInfoByIndex@CQuestWorld@@QAEPAUQUEST_WORLD_INFO@@PAUOBJECTSTRUCT@@HH@Z 004fc530 f   QuestWorld.obj
 0001:000fb5a0       ?AddQuestWorldList@CQuestWorld@@QAE_NPAUOBJECTSTRUCT@@HHHH@Z 004fc5a0 f   QuestWorld.obj
 0001:000fb6a0       ?CheckQuestWorldRequisite@CQuestWorld@@QAE_NPAUOBJECTSTRUCT@@PAUQUEST_WORLD_INFO@@@Z 004fc6a0 f   QuestWorld.obj
 0001:000fb8f0       ?CGQuestWorldDialogRecv@CQuestWorld@@QAEXPAUPMSG_QUEST_WORLD_DIALOG_RECV@@H@Z 004fc8f0 f   QuestWorld.obj
 0001:000fbc50       ?CGQuestWorldAcceptRecv@CQuestWorld@@QAEXPAUPMSG_QUEST_WORLD_ACCEPT_RECV@@H@Z 004fcc50 f   QuestWorld.obj
 0001:000fc1d0       ?CGQuestWorldFinishRecv@CQuestWorld@@QAEXPAUPMSG_QUEST_WORLD_FINISH_RECV@@H@Z 004fd1d0 f   QuestWorld.obj
 0001:000fc4e0       ?CGQuestWorldCancelRecv@CQuestWorld@@QAEXPAUPMSG_QUEST_WORLD_CANCEL_RECV@@H@Z 004fd4e0 f   QuestWorld.obj
 0001:000fc800       ?CGQuestWorldButtonRecv@CQuestWorld@@QAEXPAUPMSG_QUEST_WORLD_BUTTON_RECV@@H@Z 004fd800 f   QuestWorld.obj
 0001:000fc970       ?CGQuestWorldDetailRecv@CQuestWorld@@QAEXPAUPMSG_QUEST_WORLD_DETAIL_RECV@@H@Z 004fd970 f   QuestWorld.obj
 0001:000fcb00       ?GCQuestWorldButtonSend@CQuestWorld@@QAEXPAUOBJECTSTRUCT@@HHH@Z 004fdb00 f   QuestWorld.obj
 0001:000fcbe0       ?GCQuestWorldDetailSend@CQuestWorld@@QAEXPAUOBJECTSTRUCT@@HHH@Z 004fdbe0 f   QuestWorld.obj
 0001:000fcce0       ??_GCQuestWorldObjective@@UAEPAXI@Z 004fdce0 f i QuestWorldObjective.obj
 0001:000fcce0       ??_ECQuestWorldObjective@@UAEPAXI@Z 004fdce0 f i * CIL library *:* CIL module *
 0001:000fcd10       ?Load@CQuestWorldObjective@@QAEXPAD@Z 004fdd10 f   QuestWorldObjective.obj
 0001:000fcfb0       ?GetQuestWorldObjectiveCount@CQuestWorldObjective@@QAEHPAUOBJECTSTRUCT@@PAUQUEST_WORLD_OBJECTIVE_INFO@@@Z 004fdfb0 f   QuestWorldObjective.obj
 0001:000fd040       ?GetQuestWorldObjective@CQuestWorldObjective@@QAE_NPAUOBJECTSTRUCT@@HHPAUQUEST_WORLD_OBJECTIVE@@H@Z 004fe040 f   QuestWorldObjective.obj
 0001:000fd1c0       ?MonsterKill@CQuestWorldObjective@@QAEXPAUOBJECTSTRUCT@@@Z 004fe1c0 f   QuestWorldObjective.obj
 0001:000fd330       ?MonsterKillParty@CQuestWorldObjective@@QAEXPAUOBJECTSTRUCT@@H@Z 004fe330 f   QuestWorldObjective.obj
 0001:000fd4c0       ??_GCQuestWorldReward@@UAEPAXI@Z 004fe4c0 f i QuestWorldReward.obj
 0001:000fd4c0       ??_ECQuestWorldReward@@UAEPAXI@Z 004fe4c0 f i * CIL library *:* CIL module *
 0001:000fd4f0       ?Load@CQuestWorldReward@@QAEXPAD@Z 004fe4f0 f   QuestWorldReward.obj
 0001:000fd790       ?GetQuestWorldReward@CQuestWorldReward@@QAE_NPAUOBJECTSTRUCT@@HHPAUQUEST_WORLD_REWARD@@H@Z 004fe790 f   QuestWorldReward.obj
 0001:000fd8f0       ?InsertQuestWorldReward@CQuestWorldReward@@QAEXPAUOBJECTSTRUCT@@HH@Z 004fe8f0 f   QuestWorldReward.obj
 0001:000fdbb0       ??0CQueue@@QAE@XZ          004febb0 f   Queue.obj
 0001:000fdc50       ??_GCQueue@@UAEPAXI@Z      004fec50 f i Queue.obj
 0001:000fdc50       ??_ECQueue@@UAEPAXI@Z      004fec50 f i * CIL library *:* CIL module *
 0001:000fdcd0       ?ClearQueue@CQueue@@QAEXXZ 004fecd0 f   Queue.obj
 0001:000fdd70       ?AddToQueue@CQueue@@QAE_NPAUQUEUE_INFO@@@Z 004fed70 f   Queue.obj
 0001:000fde20       ??1?$deque@UQUEUE_INFO@@V?$allocator@UQUEUE_INFO@@@std@@@std@@QAE@XZ 004fee20 f i Queue.obj
 0001:000fded0       ?_Growmap@?$deque@UQUEUE_INFO@@V?$allocator@UQUEUE_INFO@@@std@@@std@@AAEXI@Z 004feed0 f i Queue.obj
 0001:000fe080       ?_Xlen@?$deque@UQUEUE_INFO@@V?$allocator@UQUEUE_INFO@@@std@@@std@@ABEXXZ 004ff080 f i Queue.obj
 0001:000fe090       ??_GCQueueTimer@@UAEPAXI@Z 004ff090 f i QueueTimer.obj
 0001:000fe090       ??_ECQueueTimer@@UAEPAXI@Z 004ff090 f i * CIL library *:* CIL module *
 0001:000fe0d0       ?CreateTimer@CQueueTimer@@QAEXHHP6GXPAXE@Z@Z 004ff0d0 f   QueueTimer.obj
 0001:000fe1d0       ?clear@?$_Tree@V?$_Tmap_traits@HUQUEUE_TIMER_INFO@@U?$less@H@std@@V?$allocator@U?$pair@$$CBHUQUEUE_TIMER_INFO@@@std@@@3@$0A@@std@@@std@@QAEXXZ 004ff1d0 f i QueueTimer.obj
 0001:000fe1d0       ?clear@?$_Tree@V?$_Tmap_traits@HUSOCKET_ITEM_TYPE_INFO@@U?$less@H@std@@V?$allocator@U?$pair@$$CBHUSOCKET_ITEM_TYPE_INFO@@@std@@@3@$0A@@std@@@std@@QAEXXZ 004ff1d0 f i SocketItemType.obj
 0001:000fe220       ??_ECRaklion@@UAEPAXI@Z    004ff220 f i * CIL library *:* CIL module *
 0001:000fe220       ??_GCRaklion@@UAEPAXI@Z    004ff220 f i Raklion.obj
 0001:000fe260       ?Load@CRaklion@@QAEXPAD@Z  004ff260 f   Raklion.obj
 0001:000fe620       ?MainProc@CRaklion@@QAEXXZ 004ff620 f   Raklion.obj
 0001:000fe9d0       ?ProcState_READY@CRaklion@@QAEXXZ 004ff9d0 f   Raklion.obj
 0001:000fea10       ?ProcState_START_BATTLE@CRaklion@@QAEXXZ 004ffa10 f   Raklion.obj
 0001:000feaf0       ?ProcState_NOTIFY3@CRaklion@@QAEXXZ 004ffaf0 f   Raklion.obj
 0001:000feb40       ?ProcState_CLOSE_DOOR@CRaklion@@QAEXXZ 004ffb40 f   Raklion.obj
 0001:000fecd0       ?ProcState_ALL_USER_DIE@CRaklion@@QAEXXZ 004ffcd0 f   Raklion.obj
 0001:000fedc0       ?ProcState_NOTIFY4@CRaklion@@QAEXXZ 004ffdc0 f   Raklion.obj
 0001:000fee00       ?ProcState_END@CRaklion@@QAEXXZ 004ffe00 f   Raklion.obj
 0001:000fee30       ?SetState_END@CRaklion@@QAEXXZ 004ffe30 f   Raklion.obj
 0001:000ff090       ?GetBossEggCount@CRaklion@@QAEHXZ 00500090 f   Raklion.obj
 0001:000ff0e0       ??_ECRaklionBattleOfSelupan@@UAEPAXI@Z 005000e0 f i * CIL library *:* CIL module *
 0001:000ff0e0       ??_GCRaklionBattleOfSelupan@@UAEPAXI@Z 005000e0 f i RaklionBattleOfSelupan.obj
 0001:000ff110       ?ResetAllData@CRaklionBattleOfSelupan@@QAEXXZ 00500110 f   RaklionBattleOfSelupan.obj
 0001:000ff330       ?Run@CRaklionBattleOfSelupan@@QAEXXZ 00500330 f   RaklionBattleOfSelupan.obj
 0001:000ff590       ?PatternStateSkillUseProc@CRaklionBattleOfSelupan@@QAEXH@Z 00500590 f   RaklionBattleOfSelupan.obj
 0001:000ffa00       ?SelupanLifeCheck@CRaklionBattleOfSelupan@@QAEXXZ 00500a00 f   RaklionBattleOfSelupan.obj
 0001:000ffdd0       ?DeleteSummonMonster@CRaklionBattleOfSelupan@@QAEXXZ 00500dd0 f   RaklionBattleOfSelupan.obj
 0001:000ffe30       ??_ECRaklionBattleUserMng@@UAEPAXI@Z 00500e30 f i * CIL library *:* CIL module *
 0001:000ffe30       ??_GCRaklionBattleUserMng@@UAEPAXI@Z 00500e30 f i RaklionBattleUserMng.obj
 0001:000ffe60       ?DelUserData@CRaklionBattleUserMng@@QAEXH@Z 00500e60 f   RaklionBattleUserMng.obj
 0001:000fff20       ??_GCRaklionSelupan@@UAEPAXI@Z 00500f20 f i RaklionSelupan.obj
 0001:000fff20       ??_ECRaklionSelupan@@UAEPAXI@Z 00500f20 f i * CIL library *:* CIL module *
 0001:000fff50       ?SelupanAct_BerserkCansel@CRaklionSelupan@@QAEXXZ 00500f50 f   RaklionSelupan.obj
 0001:000fffb0       ?SelupanAct_Berserk2@CRaklionSelupan@@QAEXXZ 00500fb0 f   RaklionSelupan.obj
 0001:00100040       ?SelupanAct_Berserk4@CRaklionSelupan@@QAEXXZ 00501040 f   RaklionSelupan.obj
 0001:001000d0       ?CreateSelupan@CRaklionSelupan@@QAE_NXZ 005010d0 f   RaklionSelupan.obj
 0001:00100190       ??_ECRaklionUtil@@UAEPAXI@Z 00501190 f i * CIL library *:* CIL module *
 0001:00100190       ??_GCRaklionUtil@@UAEPAXI@Z 00501190 f i RaklionUtil.obj
 0001:001001c0       ?NotifyRaklionChangeState@CRaklionUtil@@QAEXHH@Z 005011c0 f   RaklionUtil.obj
 0001:00100250       ?SendDataRaklionBossMapUser@CRaklionUtil@@QAEXPAEH@Z 00501250 f   RaklionUtil.obj
 0001:001002b0       ??_ECRandomManager@@UAEPAXI@Z 005012b0 f i * CIL library *:* CIL module *
 0001:001002b0       ??_GCRandomManager@@UAEPAXI@Z 005012b0 f i RandomManager.obj
 0001:001002e0       ??1CRandomManager@@UAE@XZ  005012e0 f   RandomManager.obj
 0001:001002f0       ?GetRandomElement@CRandomManager@@QAE_NPAE@Z 005012f0 f   RandomManager.obj
 0001:00100340       ?Load@CRandomMonsterCall@@QAEXPAD@Z 00501340 f   RandomMonsterCall.obj
 0001:00100770       ??1RAND_MONSTERCALL_DATA@@QAE@XZ 00501770 f i RandomMonsterCall.obj
 0001:00100780       ?CreateMonster@CRandomMonsterCall@@QAE_NPAUOBJECTSTRUCT@@H@Z 00501780 f   RandomMonsterCall.obj
 0001:00100cc0       ??1?$vector@URAND_MONSTERCALL_DATA@@V?$allocator@URAND_MONSTERCALL_DATA@@@std@@@std@@QAE@XZ 00501cc0 f i RandomMonsterCall.obj
 0001:00100d30       ?_Destroy@?$vector@URAND_MONSTERCALL_DATA@@V?$allocator@URAND_MONSTERCALL_DATA@@@std@@@std@@AAEXPAURAND_MONSTERCALL_DATA@@0@Z 00501d30 f i RandomMonsterCall.obj
 0001:00100d60       ?deallocate@?$allocator@URAND_MONSTERCALL_DATA@@@std@@QAEXQAURAND_MONSTERCALL_DATA@@I@Z 00501d60 f i RandomMonsterCall.obj
 0001:00100da0       ??$_Emplace_reallocate@AAURAND_MONSTERCALL_INFO@@@?$vector@URAND_MONSTERCALL_INFO@@V?$allocator@URAND_MONSTERCALL_INFO@@@std@@@std@@QAEPAURAND_MONSTERCALL_INFO@@QAU2@AAU2@@Z 00501da0 f i RandomMonsterCall.obj
 0001:00100f30       ??$construct@URAND_MONSTERCALL_DATA@@AAU1@@?$_Default_allocator_traits@V?$allocator@URAND_MONSTERCALL_DATA@@@std@@@std@@SAXAAV?$allocator@URAND_MONSTERCALL_DATA@@@1@QAURAND_MONSTERCALL_DATA@@AAU3@@Z 00501f30 f i RandomMonsterCall.obj
 0001:00100fc0       ??$_Emplace_reallocate@AAURAND_MONSTERCALL_DATA@@@?$vector@URAND_MONSTERCALL_DATA@@V?$allocator@URAND_MONSTERCALL_DATA@@@std@@@std@@QAEPAURAND_MONSTERCALL_DATA@@QAU2@AAU2@@Z 00501fc0 f i RandomMonsterCall.obj
 0001:001011c0       ?allocate@?$allocator@URAND_MONSTERCALL_INFO@@@std@@QAEPAURAND_MONSTERCALL_INFO@@I@Z 005021c0 f i RandomMonsterCall.obj
 0001:00101230       ??$_Uninitialized_move@PAURAND_MONSTERCALL_DATA@@V?$allocator@URAND_MONSTERCALL_DATA@@@std@@@std@@YAPAURAND_MONSTERCALL_DATA@@QAU1@0PAU1@AAV?$allocator@URAND_MONSTERCALL_DATA@@@0@@Z 00502230 f i RandomMonsterCall.obj
 0001:001012a0       ?GCSendRankings@CRankings@@QAEXH@Z 005022a0 f   Rankings.obj
 0001:00101460       ??$_Emplace_reallocate@AAUSDHP_RANKINGS_INFO@@@?$vector@USDHP_RANKINGS_INFO@@V?$allocator@USDHP_RANKINGS_INFO@@@std@@@std@@QAEPAUSDHP_RANKINGS_INFO@@QAU2@AAU2@@Z 00502460 f i Rankings.obj
 0001:001015e0       ??_ECReconnect@@UAEPAXI@Z  005025e0 f i * CIL library *:* CIL module *
 0001:001015e0       ??_GCReconnect@@UAEPAXI@Z  005025e0 f i Reconnect.obj
 0001:00101630       ?SetReconnectInfo@CReconnect@@QAEXPAUOBJECTSTRUCT@@@Z 00502630 f   Reconnect.obj
 0001:001019f0       ?GetReconnectInfo@CReconnect@@QAEXPAUOBJECTSTRUCT@@@Z 005029f0 f   Reconnect.obj
 0001:00101ca0       ??$erase@V?$_Tree_iterator@V?$_Tree_val@U?$_Tree_simple_types@U?$pair@$$CBV?$basic_string@DU?$char_traits@D@std@@V?$allocator@D@2@@std@@URECONNECT_INFO@@@std@@@std@@@std@@@std@@$0A@@?$_Tree@V?$_Tmap_traits@V?$basic_string@DU?$char_traits@D@std@@V?$allocator@D@2@@std@@URECONNECT_INFO@@U?$less@V?$basic_string@DU?$char_traits@D@std@@V?$allocator@D@2@@std@@@2@V?$allocator@U?$pair@$$CBV?$basic_string@DU?$char_traits@D@std@@V?$allocator@D@2@@std@@URECONNECT_INFO@@@std@@@2@$0A@@std@@@std@@QAE?AV?$_Tree_iterator@V?$_Tree_val@U?$_Tree_simple_types@U?$pair@$$CBV?$basic_string@DU?$char_traits@D@std@@V?$allocator@D@2@@std@@URECONNECT_INFO@@@std@@@std@@@std@@@1@V21@@Z 00502ca0 f i Reconnect.obj
 0001:00101d60       ??$_Erase_tree@V?$allocator@U?$_Tree_node@U?$pair@$$CBV?$basic_string@DU?$char_traits@D@std@@V?$allocator@D@2@@std@@URECONNECT_INFO@@@std@@PAX@std@@@std@@@?$_Tree_val@U?$_Tree_simple_types@U?$pair@$$CBV?$basic_string@DU?$char_traits@D@std@@V?$allocator@D@2@@std@@URECONNECT_INFO@@@std@@@std@@@std@@QAEXAAV?$allocator@U?$_Tree_node@U?$pair@$$CBV?$basic_string@DU?$char_traits@D@std@@V?$allocator@D@2@@std@@URECONNECT_INFO@@@std@@PAX@std@@@1@PAU?$_Tree_node@U?$pair@$$CBV?$basic_string@DU?$char_traits@D@std@@V?$allocator@D@2@@std@@URECONNECT_INFO@@@std@@PAX@1@@Z 00502d60 f i Reconnect.obj
 0001:00101e00       ??1?$_Alloc_construct_ptr@V?$allocator@U?$_Tree_node@U?$pair@$$CBV?$basic_string@DU?$char_traits@D@std@@V?$allocator@D@2@@std@@URECONNECT_INFO@@@std@@PAX@std@@@std@@@std@@QAE@XZ 00502e00 f i Reconnect.obj
 0001:00101e20       ?load@CRegionSystem@@QAEXPAD@Z 00502e20 f   RegionSystem.obj
 0001:00102280       ??1REGION_DATA@@QAE@XZ     00503280 f i RegionSystem.obj
 0001:001022d0       ??1?$pair@V?$basic_string@DU?$char_traits@D@std@@V?$allocator@D@2@@std@@UREGION_DATA@@@std@@QAE@XZ 005032d0 f i RegionSystem.obj
 0001:00102360       ?clear@?$_Tree@V?$_Tmap_traits@V?$basic_string@DU?$char_traits@D@std@@V?$allocator@D@2@@std@@UREGION_DATA@@U?$less@V?$basic_string@DU?$char_traits@D@std@@V?$allocator@D@2@@std@@@2@V?$allocator@U?$pair@$$CBV?$basic_string@DU?$char_traits@D@std@@V?$allocator@D@2@@std@@UREGION_DATA@@@std@@@2@$0A@@std@@@std@@QAEXXZ 00503360 f i RegionSystem.obj
 0001:001023d0       ??1?$_Tree@V?$_Tmap_traits@V?$basic_string@DU?$char_traits@D@std@@V?$allocator@D@2@@std@@UREGION_DATA@@U?$less@V?$basic_string@DU?$char_traits@D@std@@V?$allocator@D@2@@std@@@2@V?$allocator@U?$pair@$$CBV?$basic_string@DU?$char_traits@D@std@@V?$allocator@D@2@@std@@UREGION_DATA@@@std@@@2@$0A@@std@@@std@@QAE@XZ 005033d0 f i RegionSystem.obj
 0001:00102420       ??$_Erase_tree@V?$allocator@U?$_Tree_node@U?$pair@$$CBV?$basic_string@DU?$char_traits@D@std@@V?$allocator@D@2@@std@@UREGION_DATA@@@std@@PAX@std@@@std@@@?$_Tree_val@U?$_Tree_simple_types@U?$pair@$$CBV?$basic_string@DU?$char_traits@D@std@@V?$allocator@D@2@@std@@UREGION_DATA@@@std@@@std@@@std@@QAEXAAV?$allocator@U?$_Tree_node@U?$pair@$$CBV?$basic_string@DU?$char_traits@D@std@@V?$allocator@D@2@@std@@UREGION_DATA@@@std@@PAX@std@@@1@PAU?$_Tree_node@U?$pair@$$CBV?$basic_string@DU?$char_traits@D@std@@V?$allocator@D@2@@std@@UREGION_DATA@@@std@@PAX@1@@Z 00503420 f i RegionSystem.obj
 0001:00102470       ??$destroy@U?$pair@$$CBV?$basic_string@DU?$char_traits@D@std@@V?$allocator@D@2@@std@@UREGION_DATA@@@std@@@?$_Default_allocator_traits@V?$allocator@U?$_Tree_node@U?$pair@$$CBV?$basic_string@DU?$char_traits@D@std@@V?$allocator@D@2@@std@@UREGION_DATA@@@std@@PAX@std@@@std@@@std@@SAXAAV?$allocator@U?$_Tree_node@U?$pair@$$CBV?$basic_string@DU?$char_traits@D@std@@V?$allocator@D@2@@std@@UREGION_DATA@@@std@@PAX@std@@@1@QAU?$pair@$$CBV?$basic_string@DU?$char_traits@D@std@@V?$allocator@D@2@@std@@UREGION_DATA@@@1@@Z 00503470 f i RegionSystem.obj
 0001:00102500       ??_EResetSystem@@UAEPAXI@Z 00503500 f i * CIL library *:* CIL module *
 0001:00102500       ??_GResetSystem@@UAEPAXI@Z 00503500 f i ResetSystem.obj
 0001:00102540       ?Init@ResetSystem@@QAEXXZ  00503540 f   ResetSystem.obj
 0001:001025c0       ?ReadGroupData@ResetSystem@@QAEXPAD@Z 005035c0 f   ResetSystem.obj
 0001:001029c0       ?ReadItemRewardData@ResetSystem@@QAEXPAD@Z 005039c0 f   ResetSystem.obj
 0001:00103180       ?ReadMainData@ResetSystem@@QAEXPAD@Z 00504180 f   ResetSystem.obj
 0001:00103360       ?GetResetMoney@ResetSystem@@QAEHPAUOBJECTSTRUCT@@@Z 00504360 f   ResetSystem.obj
 0001:001033f0       ?GetResetGroup@ResetSystem@@QAEHPAUOBJECTSTRUCT@@@Z 005043f0 f   ResetSystem.obj
 0001:00103460       ?GetResetReward@ResetSystem@@QAEPAURESET_ITEM_REWARD@@PAUOBJECTSTRUCT@@@Z 00504460 f   ResetSystem.obj
 0001:001034c0       ?SearchQuestItem@ResetSystem@@QAE_NPAUOBJECTSTRUCT@@E@Z 005044c0 f   ResetSystem.obj
 0001:00103760       ?DeleteQuestItem@ResetSystem@@QAE_NPAUOBJECTSTRUCT@@E@Z 00504760 f   ResetSystem.obj
 0001:00103a70       ?CheckAllReq@ResetSystem@@QAE_NPAUOBJECTSTRUCT@@@Z 00504a70 f   ResetSystem.obj
 0001:00103c10       ?FinishResetReq@ResetSystem@@QAEXPAUOBJECTSTRUCT@@@Z 00504c10 f   ResetSystem.obj
 0001:00104800       ?SendResetData@ResetSystem@@QAEXPAUOBJECTSTRUCT@@_N@Z 00505800 f   ResetSystem.obj
 0001:00104a70       ??1?$vector@URESET_ITEM_REWARD_DATA@@V?$allocator@URESET_ITEM_REWARD_DATA@@@std@@@std@@QAE@XZ 00505a70 f i ResetSystem.obj
 0001:00104ae0       ??$_Emplace_reallocate@ABURESET_ITEM_REWARD_DATA@@@?$vector@URESET_ITEM_REWARD_DATA@@V?$allocator@URESET_ITEM_REWARD_DATA@@@std@@@std@@QAEPAURESET_ITEM_REWARD_DATA@@QAU2@ABU2@@Z 00505ae0 f i ResetSystem.obj
 0001:00104ca0       ??_GCResetTable@@UAEPAXI@Z 00505ca0 f i ResetTable.obj
 0001:00104ca0       ??_ECResetTable@@UAEPAXI@Z 00505ca0 f i * CIL library *:* CIL module *
 0001:00104cd0       ?Load@CResetTable@@QAEXPAD@Z 00505cd0 f   ResetTable.obj
 0001:001051e0       ?GetResetLevel@CResetTable@@QAEHPAUOBJECTSTRUCT@@@Z 005061e0 f   ResetTable.obj
 0001:00105250       ?GetResetMoney@CResetTable@@QAEHPAUOBJECTSTRUCT@@@Z 00506250 f   ResetTable.obj
 0001:001052d0       ??_EcRespawnLocation@@UAEPAXI@Z 005062d0 f i * CIL library *:* CIL module *
 0001:001052d0       ??_GcRespawnLocation@@UAEPAXI@Z 005062d0 f i RespawnLocation.obj
 0001:00105300       ?Load@cRespawnLocation@@QAEXPAD@Z 00506300 f   RespawnLocation.obj
 0001:00105490       ?load@CRoulette@@QAEXPAD@Z 00506490 f   Roulette.obj
 0001:00105920       ?send_roulette_data@CRoulette@@QAEXH@Z 00506920 f   Roulette.obj
 0001:001059e0       ?size@?$vector@UROULETTE_INFO@@V?$allocator@UROULETTE_INFO@@@std@@@std@@QBEIXZ 005069e0 f i Roulette.obj
 0001:001059f0       ??$_Emplace_reallocate@AAUROULETTE_INFO@@@?$vector@UROULETTE_INFO@@V?$allocator@UROULETTE_INFO@@@std@@@std@@QAEPAUROULETTE_INFO@@QAU2@AAU2@@Z 005069f0 f i Roulette.obj
 0001:00105b70       ??_ECScheduleManager@@UAEPAXI@Z 00506b70 f i * CIL library *:* CIL module *
 0001:00105b70       ??_GCScheduleManager@@UAEPAXI@Z 00506b70 f i ScheduleManager.obj
 0001:00105bf0       ??1CScheduleManager@@UAE@XZ 00506bf0 f   ScheduleManager.obj
 0001:00105c50       ?AddSchedule@CScheduleManager@@QAE_NHHHHHHH@Z 00506c50 f   ScheduleManager.obj
 0001:001063b0       ?AdjustSchedule@CScheduleManager@@QAE_NPAVCTime@ATL@@_N11111@Z 005073b0 f   ScheduleManager.obj
 0001:00106cc0       ??$_Emplace_reallocate@ABVCTime@ATL@@@?$vector@VCTime@ATL@@V?$allocator@VCTime@ATL@@@std@@@std@@QAEPAVCTime@ATL@@QAV23@ABV23@@Z 00507cc0 f i ScheduleManager.obj
 0001:00106e60       ??0CSerialCheck@@QAE@XZ    00507e60 f   SerialCheck.obj
 0001:00106e70       ??_ECSerialCheck@@UAEPAXI@Z 00507e70 f i * CIL library *:* CIL module *
 0001:00106e70       ??_GCSerialCheck@@UAEPAXI@Z 00507e70 f i SerialCheck.obj
 0001:00106ea0       ??1CSerialCheck@@UAE@XZ    00507ea0 f   SerialCheck.obj
 0001:00106eb0       ??_ECServerDisplayer@@UAEPAXI@Z 00507eb0 f i * CIL library *:* CIL module *
 0001:00106eb0       ??_GCServerDisplayer@@UAEPAXI@Z 00507eb0 f i ServerDisplayer.obj
 0001:00106f00       ?Init@CServerDisplayer@@QAEXPAUHWND__@@0@Z 00507f00 f   ServerDisplayer.obj
 0001:00107040       ?UpdateInfoBar@CServerDisplayer@@QAEXXZ 00508040 f   ServerDisplayer.obj
 0001:001071c0       ?PaintAllInfo@CServerDisplayer@@QAEXXZ 005081c0 f   ServerDisplayer.obj
 0001:00107430       ?LogAddText@CServerDisplayer@@QAEXW4eLogColor@@PADH@Z 00508430 f   ServerDisplayer.obj
 0001:001074f0       ?Interface@CServerDisplayer@@QAEXPAUHWND__@@@Z 005084f0 f   ServerDisplayer.obj
 0001:00107560       ??_GCServerInfo@@UAEPAXI@Z 00508560 f i ServerInfo.obj
 0001:00107560       ??_ECServerInfo@@UAEPAXI@Z 00508560 f i * CIL library *:* CIL module *
 0001:00107590       ?SendServerInfo@CServerInfo@@QAEXH@Z 00508590 f   ServerInfo.obj
 0001:00107d50       ?ReadLTPData@CServerInfo@@QAEXXZ 00508d50 f   ServerInfo.obj
 0001:001090f0       ?ReadCashShopInfo@CServerInfo@@QAEXXZ 0050a0f0 f   ServerInfo.obj
 0001:00109230       ?ReadCharacterInfo@CServerInfo@@QAEXXZ 0050a230 f   ServerInfo.obj
 0001:00109290       ?ReadCommonInfo@CServerInfo@@QAEXXZ 0050a290 f   ServerInfo.obj
 0001:00109380       ?ReadCustomInfo@CServerInfo@@QAEXXZ 0050a380 f   ServerInfo.obj
 0001:00109540       ?ReadEventInfo@CServerInfo@@QAEXXZ 0050a540 f   ServerInfo.obj
 0001:00109880       ?ReadHackInfo@CServerInfo@@QAEXXZ 0050a880 f   ServerInfo.obj
 0001:00109ab0       ?ReadItemInfo@CServerInfo@@QAEXXZ 0050aab0 f   ServerInfo.obj
 0001:00109df0       ?ReadMapInfo@CServerInfo@@QAEXXZ 0050adf0 f   ServerInfo.obj
 0001:0010a020       ?ReadMonsterInfo@CServerInfo@@QAEXXZ 0050b020 f   ServerInfo.obj
 0001:0010a260       ?ReadMoveInfo@CServerInfo@@QAEXXZ 0050b260 f   ServerInfo.obj
 0001:0010a340       ?ReadQuestInfo@CServerInfo@@QAEXXZ 0050b340 f   ServerInfo.obj
 0001:0010a480       ?ReadShopInfo@CServerInfo@@QAEXXZ 0050b480 f   ServerInfo.obj
 0001:0010a610       ?ReadSkillInfo@CServerInfo@@QAEXXZ 0050b610 f   ServerInfo.obj
 0001:0010a7a0       ?ReadUtilInfo@CServerInfo@@QAEXXZ 0050b7a0 f   ServerInfo.obj
 0001:0010a8e0       ?ReadStartupInfo@CServerInfo@@QAEXPAD0@Z 0050b8e0 f   ServerInfo.obj
 0001:0010ac80       ?ReadChaosMixInfo@CServerInfo@@QAEXPAD0@Z 0050bc80 f   ServerInfo.obj
 0001:0010c200       ?ReadCharacterInfo@CServerInfo@@QAEXPAD0@Z 0050d200 f   ServerInfo.obj
 0001:0010e350       ?ReadCommandInfo@CServerInfo@@QAEXPAD0@Z 0050f350 f   ServerInfo.obj
 0001:0010f480       ?ReadCommonInfo@CServerInfo@@QAEXPAD0@Z 00510480 f   ServerInfo.obj
 0001:001111e0       ?ReadCustomInfo@CServerInfo@@QAEXPAD0@Z 005121e0 f   ServerInfo.obj
 0001:00111600       ?ReadEventInfo@CServerInfo@@QAEXPAD0@Z 00512600 f   ServerInfo.obj
 0001:00111c20       ?ReadSkillInfo@CServerInfo@@QAEXPAD0@Z 00512c20 f   ServerInfo.obj
 0001:00112950       ??_GCSetItemOption@@UAEPAXI@Z 00513950 f i SetItemOption.obj
 0001:00112950       ??_ECSetItemOption@@UAEPAXI@Z 00513950 f i * CIL library *:* CIL module *
 0001:00112980       ?Load@CSetItemOption@@QAEXPAD@Z 00513980 f   SetItemOption.obj
 0001:00112bd0       ?CalcSetItemOption@CSetItemOption@@QAEXPAUOBJECTSTRUCT@@_N@Z 00513bd0 f   SetItemOption.obj
 0001:00112e80       ?InsertOption@CSetItemOption@@QAEXPAUOBJECTSTRUCT@@HH_N@Z 00513e80 f   SetItemOption.obj
 0001:00113450       ??_GCSetItemType@@UAEPAXI@Z 00514450 f i SetItemType.obj
 0001:00113450       ??_ECSetItemType@@UAEPAXI@Z 00514450 f i * CIL library *:* CIL module *
 0001:00113480       ?Load@CSetItemType@@QAEXPAD@Z 00514480 f   SetItemType.obj
 0001:00113690       ?GetInfo@CSetItemType@@QAEPAUSET_ITEM_TYPE_INFO@@H@Z 00514690 f   SetItemType.obj
 0001:001136e0       ?GetSetOption@CSetItemType@@QAEHH@Z 005146e0 f   SetItemType.obj
 0001:00113770       ?MakeRandomSetItem@CSetItemType@@QAEXHHHH@Z 00514770 f   SetItemType.obj
 0001:00113960       ?Load@CShop@@QAEXPAD@Z     00514960 f   Shop.obj
 0001:00113c90       ?LoadDonateShop@CShop@@QAEXPADH@Z 00514c90 f   Shop.obj
 0001:00114150       ?ShopItemSet@CShop@@QAEXHE@Z 00515150 f   Shop.obj
 0001:00114220       ?ShopRectCheck@CShop@@QAEEHHHH@Z 00515220 f   Shop.obj
 0001:00114290       ?InsertDonateItem@CShop@@QAEXPAUDONATE_SHOP_ITEMS@@@Z 00515290 f   Shop.obj
 0001:001144a0       ?GCShopItemListSend@CShop@@QAE_NH@Z 005154a0 f   Shop.obj
 0001:001145b0       ??_ECShopManager@@UAEPAXI@Z 005155b0 f i * CIL library *:* CIL module *
 0001:001145b0       ??_GCShopManager@@UAEPAXI@Z 005155b0 f i ShopManager.obj
 0001:00114610       ?Load@CShopManager@@QAEXPAD@Z 00515610 f   ShopManager.obj
 0001:00114a30       ??1SHOP_MANAGER_INFO@@QAE@XZ 00515a30 f i ShopManager.obj
 0001:00114a40       ??1?$pair@HUSHOP_MANAGER_INFO@@@std@@QAE@XZ 00515a40 f i ShopManager.obj
 0001:00114a50       ?LoadShop@CShopManager@@QAEXXZ 00515a50 f   ShopManager.obj
 0001:00114cf0       ?LoadDonateShop@CShopManager@@QAEXXZ 00515cf0 f   ShopManager.obj
 0001:00114fa0       ?GetShopNumber@CShopManager@@QAEJH@Z 00515fa0 f   ShopManager.obj
 0001:00115020       ?GetClassByShopNumber@CShopManager@@QAEJH@Z 00516020 f   ShopManager.obj
 0001:001150a0       ?GetShopNumberByDonateShopIndex@CShopManager@@QAEJHH@Z 005160a0 f   ShopManager.obj
 0001:00115120       ?GetDonateShopCount@CShopManager@@QAEJH@Z 00516120 f   ShopManager.obj
 0001:00115190       ??$_Erase_tree@V?$allocator@U?$_Tree_node@U?$pair@$$CBHUSHOP_MANAGER_INFO@@@std@@PAX@std@@@std@@@?$_Tree_val@U?$_Tree_simple_types@U?$pair@$$CBHUSHOP_MANAGER_INFO@@@std@@@std@@@std@@QAEXAAV?$allocator@U?$_Tree_node@U?$pair@$$CBHUSHOP_MANAGER_INFO@@@std@@PAX@std@@@1@PAU?$_Tree_node@U?$pair@$$CBHUSHOP_MANAGER_INFO@@@std@@PAX@1@@Z 00516190 f i ShopManager.obj
 0001:001151f0       ??1?$_Alloc_construct_ptr@V?$allocator@U?$_Tree_node@U?$pair@$$CBHUSHOP_MANAGER_INFO@@@std@@PAX@std@@@std@@@std@@QAE@XZ 005161f0 f i ShopManager.obj
 0001:00115220       ?Init@ShopPointEx@@QAEXXZ  00516220 f   ShopPointEx.obj
 0001:00115370       ?Load@ShopPointEx@@QAEXPAD@Z 00516370 f   ShopPointEx.obj
 0001:001156e0       ?AddEventBonus@ShopPointEx@@QAEXHW4T@ShopPointExEvent@@@Z 005166e0 f   ShopPointEx.obj
 0001:00115770       ?AddMonsterBonus@ShopPointEx@@QAEXPAUOBJECTSTRUCT@@0@Z 00516770 f   ShopPointEx.obj
 0001:00115930       ?SendNotify@ShopPointEx@@QAEXHHHHHPAD@Z 00516930 f   ShopPointEx.obj
 0001:00115b40       ??$_Emplace_reallocate@ABUSHOPPOINTEX_MONSTER@@@?$vector@USHOPPOINTEX_MONSTER@@V?$allocator@USHOPPOINTEX_MONSTER@@@std@@@std@@QAEPAUSHOPPOINTEX_MONSTER@@QAU2@ABU2@@Z 00516b40 f i ShopPointEx.obj
 0001:00115d70       ??0CSkill@@QAE@XZ          00516d70 f   Skill.obj
 0001:00115da0       ??1CSkill@@UAE@XZ          00516da0 f   Skill.obj
 0001:00115db0       ?Set@CSkill@@QAE_NHH@Z     00516db0 f   Skill.obj
 0001:00115e70       ??_GCSkillHitBox@@UAEPAXI@Z 00516e70 f i SkillHitBox.obj
 0001:00115e70       ??_ECSkillHitBox@@UAEPAXI@Z 00516e70 f i * CIL library *:* CIL module *
 0001:00115ea0       ??_GCSkillManager@@UAEPAXI@Z 00516ea0 f i SkillManager.obj
 0001:00115ea0       ??_ECSkillManager@@UAEPAXI@Z 00516ea0 f i * CIL library *:* CIL module *
 0001:00115ed0       ?Load@CSkillManager@@QAEXPAD@Z 00516ed0 f   SkillManager.obj
 0001:00116240       ?GetSkillAngle@CSkillManager@@QAEHHHHH@Z 00517240 f   SkillManager.obj
 0001:001162a0       ?GetSkillFrustrum@CSkillManager@@QAEHPAH0EHHMMMM@Z 005172a0 f   SkillManager.obj
 0001:00116410       ?CheckSkillMana@CSkillManager@@QAE_NPAUOBJECTSTRUCT@@H@Z 00517410 f   SkillManager.obj
 0001:001164a0       ?CheckSkillBP@CSkillManager@@QAE_NPAUOBJECTSTRUCT@@H@Z 005174a0 f   SkillManager.obj
 0001:00116520       ?CheckSkillRange@CSkillManager@@QAE_NHHHHH@Z 00517520 f   SkillManager.obj
 0001:00116610       ?CheckSkillRadio@CSkillManager@@QAE_NHHHHH@Z 00517610 f   SkillManager.obj
 0001:00116700       ?CheckSkillFrustrum@CSkillManager@@QAE_NPAH0HH@Z 00517700 f   SkillManager.obj
 0001:00116770       ?CheckSkillDelay@CSkillManager@@QAE_NPAUOBJECTSTRUCT@@H@Z 00517770 f   SkillManager.obj
 0001:00116810       ?CheckSkillTarget@CSkillManager@@QAE_NPAUOBJECTSTRUCT@@HHH@Z 00517810 f   SkillManager.obj
 0001:00116980       ?CheckSkillRequireLevel@CSkillManager@@QAE_NPAUOBJECTSTRUCT@@H@Z 00517980 f   SkillManager.obj
 0001:001169f0       ?CheckSkillRequireEnergy@CSkillManager@@QAE_NPAUOBJECTSTRUCT@@H@Z 005179f0 f   SkillManager.obj
 0001:00116a60       ?CheckSkillRequireLeadership@CSkillManager@@QAE_NPAUOBJECTSTRUCT@@H@Z 00517a60 f   SkillManager.obj
 0001:00116ad0       ?CheckSkillRequireKillPoint@CSkillManager@@QAE_NPAUOBJECTSTRUCT@@H@Z 00517ad0 f   SkillManager.obj
 0001:00116b40       ?CheckSkillRequireGuildStatus@CSkillManager@@QAE_NPAUOBJECTSTRUCT@@H@Z 00517b40 f   SkillManager.obj
 0001:00116bd0       ?CheckSkillRequireClass@CSkillManager@@QAE_NPAUOBJECTSTRUCT@@H@Z 00517bd0 f   SkillManager.obj
 0001:00116c70       ?CheckSkillRequireWeapon@CSkillManager@@QAE_NPAUOBJECTSTRUCT@@H@Z 00517c70 f   SkillManager.obj
 0001:00116d40       ?AddSkill@CSkillManager@@QAEHPAUOBJECTSTRUCT@@HH@Z 00517d40 f   SkillManager.obj
 0001:00116de0       ?GetSkill@CSkillManager@@QAEPAVCSkill@@PAUOBJECTSTRUCT@@H@Z 00517de0 f   SkillManager.obj
 0001:00116e40       ?AddMasterSkill@CSkillManager@@QAEHPAUOBJECTSTRUCT@@HH@Z 00517e40 f   SkillManager.obj
 0001:00116ee0       ?GetMasterSkill@CSkillManager@@QAEPAVCSkill@@PAUOBJECTSTRUCT@@H@Z 00517ee0 f   SkillManager.obj
 0001:00116f50       ?UseAttackSkill@CSkillManager@@QAEXHHPAVCSkill@@@Z 00517f50 f   SkillManager.obj
 0001:00117290       ?UseDurationSkillAttack@CSkillManager@@QAEXHHPAVCSkill@@EEEE@Z 00518290 f   SkillManager.obj
 0001:00117540       ?RunningSkill@CSkillManager@@QAE_NHHPAVCSkill@@EEE_N@Z 00518540 f   SkillManager.obj
 0001:0011a1d0       ?BasicSkillAttack@CSkillManager@@QAE_NHHPAVCSkill@@_N@Z 0051b1d0 f   SkillManager.obj
 0001:0011a280       ?MultiSkillAttack@CSkillManager@@QAE_NHHPAVCSkill@@_N@Z 0051b280 f   SkillManager.obj
 0001:0011a410       ?SkillChangeUse@CSkillManager@@QAE_NH@Z 0051b410 f   SkillManager.obj
 0001:0011a6d0       ?SkillManaShield@CSkillManager@@QAE_NHHPAVCSkill@@@Z 0051b6d0 f   SkillManager.obj
 0001:0011a8b0       ?SkillHeal@CSkillManager@@QAE_NHHPAVCSkill@@@Z 0051b8b0 f   SkillManager.obj
 0001:0011aad0       ?SkillGreaterDefense@CSkillManager@@QAE_NHHPAVCSkill@@@Z 0051bad0 f   SkillManager.obj
 0001:0011ad20       ?SkillGreaterDamage@CSkillManager@@QAE_NHHPAVCSkill@@@Z 0051bd20 f   SkillManager.obj
 0001:0011afb0       ?SkillSummon@CSkillManager@@QAE_NHHPAVCSkill@@@Z 0051bfb0 f   SkillManager.obj
 0001:0011b320       ?SkillDeathStab@CSkillManager@@QAE_NHHPAVCSkill@@_N@Z 0051c320 f   SkillManager.obj
 0001:0011b4b0       ?SkillGreaterLife@CSkillManager@@QAE_NHHPAVCSkill@@@Z 0051c4b0 f   SkillManager.obj
 0001:0011b760       ?SkillForce@CSkillManager@@QAE_NHHPAVCSkill@@_N@Z 0051c760 f   SkillManager.obj
 0001:0011b9a0       ?SkillFireBurst@CSkillManager@@QAE_NHHPAVCSkill@@_N@Z 0051c9a0 f   SkillManager.obj
 0001:0011bb30       ?SkillSummonParty@CSkillManager@@QAE_NHHPAVCSkill@@@Z 0051cb30 f   SkillManager.obj
 0001:0011be80       ?SkillGreaterCriticalDamage@CSkillManager@@QAE_NHHPAVCSkill@@@Z 0051ce80 f   SkillManager.obj
 0001:0011c0c0       ?SkillCastleSiege@CSkillManager@@QAE_NHHPAVCSkill@@@Z 0051d0c0 f   SkillManager.obj
 0001:0011c1a0       ?SkillStern@CSkillManager@@QAE_NHHPAVCSkill@@E@Z 0051d1a0 f   SkillManager.obj
 0001:0011c400       ?SkillGreaterMana@CSkillManager@@QAE_NHHPAVCSkill@@@Z 0051d400 f   SkillManager.obj
 0001:0011c5d0       ?SkillChainLightning@CSkillManager@@QAE_NHHPAVCSkill@@@Z 0051d5d0 f   SkillManager.obj
 0001:0011c820       ?SkillDamageReflect@CSkillManager@@QAE_NHHPAVCSkill@@@Z 0051d820 f   SkillManager.obj
 0001:0011c9b0       ?SkillSwordPowerGetDefense@CSkillManager@@QAE_NHPAH@Z 0051d9b0 f   SkillManager.obj
 0001:0011ca80       ?SkillSwordPowerGetPhysiDamage@CSkillManager@@QAE_NHPAH0@Z 0051da80 f   SkillManager.obj
 0001:0011cbd0       ?SkillSwordPowerGetMagicDamage@CSkillManager@@QAE_NHPAH0@Z 0051dbd0 f   SkillManager.obj
 0001:0011cd10       ?SkillSwordPowerGetCurseDamage@CSkillManager@@QAE_NHPAH0@Z 0051dd10 f   SkillManager.obj
 0001:0011ce50       ?SkillSleep@CSkillManager@@QAE_NHHPAVCSkill@@@Z 0051de50 f   SkillManager.obj
 0001:0011d0a0       ?SkillLesserDefense@CSkillManager@@QAE_NHHPAVCSkill@@@Z 0051e0a0 f   SkillManager.obj
 0001:0011d2a0       ?SkillLesserDamage@CSkillManager@@QAE_NHHPAVCSkill@@@Z 0051e2a0 f   SkillManager.obj
 0001:0011d4a0       ?SkillShieldRecover@CSkillManager@@QAE_NHHPAVCSkill@@_N@Z 0051e4a0 f   SkillManager.obj
 0001:0011d630       ?SkillFiveShot@CSkillManager@@QAE_NHHPAVCSkill@@E_N@Z 0051e630 f   SkillManager.obj
 0001:0011dc30       ?SkillBirds@CSkillManager@@QAE_NHHPAVCSkill@@E_N@Z 0051ec30 f   SkillManager.obj
 0001:0011dde0       ?SkillPhoenixShot@CSkillManager@@QAE_NHHPAVCSkill@@_N@Z 0051ede0 f   SkillManager.obj
 0001:0011dde0       ?SkillDragonLore@CSkillManager@@QAE_NHHPAVCSkill@@_N@Z 0051ede0 f   SkillManager.obj
 0001:0011dfa0       ?SkillFitness@CSkillManager@@QAE_NHHPAVCSkill@@@Z 0051efa0 f   SkillManager.obj
 0001:0011e1a0       ?SkillGreaterDefenseSuccessRate@CSkillManager@@QAE_NHHPAVCSkill@@@Z 0051f1a0 f   SkillManager.obj
 0001:0011e3b0       ?SkillCure@CSkillManager@@QAE_NHHPAVCSkill@@@Z 0051f3b0 f   SkillManager.obj
 0001:0011e500       ?SkillPartyHeal@CSkillManager@@QAE_NHHPAVCSkill@@@Z 0051f500 f   SkillManager.obj
 0001:0011e820       ?SkillBlind@CSkillManager@@QAE_NHHPAVCSkill@@@Z 0051f820 f   SkillManager.obj
 0001:0011ea60       ?CGMultiSkillAttackRecv@CSkillManager@@QAEXPAUPMSG_MULTI_SKILL_ATTACK_RECV@@H_N@Z 0051fa60 f   SkillManager.obj
 0001:0011ed60       ?CGSkillAttackRecv@CSkillManager@@QAEXPAUPMSG_SKILL_ATTACK_RECV@@H@Z 0051fd60 f   SkillManager.obj
 0001:0011efb0       ?CGDurationSkillAttackRecv@CSkillManager@@QAEXPAUPMSG_DURATION_SKILL_ATTACK_RECV@@H@Z 0051ffb0 f   SkillManager.obj
 0001:0011f120       ?CGRageFighterSkillAttackRecv@CSkillManager@@QAEXPAUPMSG_RAGE_FIGHTER_SKILL_ATTACK_RECV@@H@Z 00520120 f   SkillManager.obj
 0001:0011f230       ?CGSkillDarkSideRecv@CSkillManager@@QAEXPAUPMSG_SKILL_DARK_SIDE_RECV@@H@Z 00520230 f   SkillManager.obj
 0001:0011f440       ?CGSkillTeleportAllyRecv@CSkillManager@@QAEXPAUPMSG_SKILL_TELEPORT_ALLY_RECV@@H@Z 00520440 f   SkillManager.obj
 0001:0011f780       ?GCSkillAttackSend@CSkillManager@@QAEXPAUOBJECTSTRUCT@@HHE@Z 00520780 f   SkillManager.obj
 0001:0011f820       ?GCDurationSkillAttackSend@CSkillManager@@QAEXPAUOBJECTSTRUCT@@HEEE@Z 00520820 f   SkillManager.obj
 0001:0011f8c0       ?GCRageFighterSkillAttackSend@CSkillManager@@QAEXPAUOBJECTSTRUCT@@HHE@Z 005208c0 f   SkillManager.obj
 0001:0011f960       ?GCSkillAddSend@CSkillManager@@QAEXHEHEE@Z 00520960 f   SkillManager.obj
 0001:0011f9f0       ?GCSkillListSend@CSkillManager@@QAEXPAUOBJECTSTRUCT@@E@Z 005209f0 f   SkillManager.obj
 0001:0011fac0       ?clear@?$_Tree@V?$_Tmap_traits@HUSKILL_INFO@@U?$less@H@std@@V?$allocator@U?$pair@$$CBHUSKILL_INFO@@@std@@@3@$0A@@std@@@std@@QAEXXZ 00520ac0 f i SkillManager.obj
 0001:0011fb10       ??1?$_Tree@V?$_Tmap_traits@HUSKILL_INFO@@U?$less@H@std@@V?$allocator@U?$pair@$$CBHUSKILL_INFO@@@std@@@3@$0A@@std@@@std@@QAE@XZ 00520b10 f i SkillManager.obj
 0001:0011fb60       ??$_Erase_tree@V?$allocator@U?$_Tree_node@U?$pair@$$CBHUSKILL_INFO@@@std@@PAX@std@@@std@@@?$_Tree_val@U?$_Tree_simple_types@U?$pair@$$CBHUSKILL_INFO@@@std@@@std@@@std@@QAEXAAV?$allocator@U?$_Tree_node@U?$pair@$$CBHUSKILL_INFO@@@std@@PAX@std@@@1@PAU?$_Tree_node@U?$pair@$$CBHUSKILL_INFO@@@std@@PAX@1@@Z 00520b60 f i SkillManager.obj
 0001:0011fba0       ??1?$_Alloc_construct_ptr@V?$allocator@U?$_Tree_node@U?$pair@$$CBHUSKILL_INFO@@@std@@PAX@std@@@std@@@std@@QAE@XZ 00520ba0 f i SkillManager.obj
 0001:0011fbc0       _atan2f                    00520bc0 f i SkillManager.obj
 0001:0011fc00       ?Read@CSmithy@@QAEXPAD@Z   00520c00 f   Smithy.obj
 0001:001203f0       ?GCItemSend@CSmithy@@QAEXH@Z 005213f0 f   Smithy.obj
 0001:00120750       ?CGCreateItem@CSmithy@@QAEXPAUCG_SmithyCreateItem@@H@Z 00521750 f   Smithy.obj
 0001:00120e30       ??_GCSocketItemOption@@UAEPAXI@Z 00521e30 f i SocketItemOption.obj
 0001:00120e30       ??_ECSocketItemOption@@UAEPAXI@Z 00521e30 f i * CIL library *:* CIL module *
 0001:00120e60       ?Init@CSocketItemOption@@QAEXXZ 00521e60 f   SocketItemOption.obj
 0001:00120ea0       ?Load@CSocketItemOption@@QAEXPAD@Z 00521ea0 f   SocketItemOption.obj
 0001:00121340       ?GetSocketItemBonusOption@CSocketItemOption@@QAEEPAVCItem@@@Z 00522340 f   SocketItemOption.obj
 0001:00121440       ?CalcSocketItemOption@CSocketItemOption@@QAEXPAUOBJECTSTRUCT@@_N@Z 00522440 f   SocketItemOption.obj
 0001:001216a0       ?InsertOption@CSocketItemOption@@QAEXPAUOBJECTSTRUCT@@HH_N@Z 005226a0 f   SocketItemOption.obj
 0001:00121ab0       ??_ECSocketItemType@@UAEPAXI@Z 00522ab0 f i * CIL library *:* CIL module *
 0001:00121ab0       ??_GCSocketItemType@@UAEPAXI@Z 00522ab0 f i SocketItemType.obj
 0001:00121ae0       ?Load@CSocketItemType@@QAEXPAD@Z 00522ae0 f   SocketItemType.obj
 0001:00121d00       ??_ECSocketManager@@UAEPAXI@Z 00522d00 f i * CIL library *:* CIL module *
 0001:00121d00       ??_GCSocketManager@@UAEPAXI@Z 00522d00 f i SocketManager.obj
 0001:00121dd0       ?Start@CSocketManager@@QAE_NG@Z 00522dd0 f   SocketManager.obj
 0001:001220b0       ?Clean@CSocketManager@@QAEXXZ 005230b0 f   SocketManager.obj
 0001:001220b0       ?Clean@CSocketManagerSimple@@QAEXXZ 005230b0 f   SocketManagerSimple.obj
 0001:00122180       ?DataRecv@CSocketManager@@QAE_NHPAUIO_MAIN_BUFFER@@@Z 00523180 f   SocketManager.obj
 0001:001224f0       ?DataRecvDefault@CSocketManager@@QAE_NHPAUIO_MAIN_BUFFER@@@Z 005234f0 f   SocketManager.obj
 0001:00122810       ?DataSend@CSocketManager@@QAE_NHPAEH@Z 00523810 f   SocketManager.obj
 0001:00122a50       ?Disconnect@CSocketManager@@QAEXH@Z 00523a50 f   SocketManager.obj
 0001:00122af0       ?OnSend@CSocketManager@@QAEXHKPAUIO_SEND_CONTEXT@@@Z 00523af0 f   SocketManager.obj
 0001:00122ca0       ?ServerAcceptCondition@CSocketManager@@SGHPAU_WSABUF@@0PAU_QualityOfService@@100PAIPAV1@@Z 00523ca0 f   SocketManager.obj
 0001:00122cb0       ?ServerAcceptThread@CSocketManager@@SGKPAV1@@Z 00523cb0 f   SocketManager.obj
 0001:00123140       ?ServerWorkerThread@CSocketManager@@SGKPAV1@@Z 00524140 f   SocketManager.obj
 0001:00123340       ?ServerQueueThread@CSocketManager@@SGKPAV1@@Z 00524340 f   SocketManager.obj
 0001:00123430       ??_GCSocketManagerSimple@@UAEPAXI@Z 00524430 f i SocketManagerSimple.obj
 0001:00123430       ??_ECSocketManagerSimple@@UAEPAXI@Z 00524430 f i * CIL library *:* CIL module *
 0001:001234e0       ??_GCSocketManagerUdp@@UAEPAXI@Z 005244e0 f i SocketManagerUdp.obj
 0001:001234e0       ??_ECSocketManagerUdp@@UAEPAXI@Z 005244e0 f i * CIL library *:* CIL module *
 0001:00123540       ?_AtlRaiseException@ATL@@YAXKK@Z 00524540 f i stdafx.obj
 0001:00123560       ?Init@CComCriticalSection@ATL@@QAEJXZ 00524560 f i stdafx.obj
 0001:00123590       ??_ECSummonScroll@@UAEPAXI@Z 00524590 f i * CIL library *:* CIL module *
 0001:00123590       ??_GCSummonScroll@@UAEPAXI@Z 00524590 f i SummonScroll.obj
 0001:001235d0       ??_EcSuperPoints@@UAEPAXI@Z 005245d0 f i * CIL library *:* CIL module *
 0001:001235d0       ??_GcSuperPoints@@UAEPAXI@Z 005245d0 f i SuperPoints.obj
 0001:00123600       ?Load@cSuperPoints@@QAEXPAD@Z 00524600 f   SuperPoints.obj
 0001:00123850       ??_GCTeleportPanel@@UAEPAXI@Z 00524850 f i TeleportPanel.obj
 0001:00123850       ??_ECTeleportPanel@@UAEPAXI@Z 00524850 f i * CIL library *:* CIL module *
 0001:00123880       ?load@CTeleportPanel@@QAEXPAD@Z 00524880 f   TeleportPanel.obj
 0001:00123e40       ?send_open_window@CTeleportPanel@@QAEXH@Z 00524e40 f   TeleportPanel.obj
 0001:00123f60       ?TeleportCallback@CTeleportPanel@@SAXPAUOBJECTSTRUCT@@HKKKK@Z 00524f60 f   TeleportPanel.obj
 0001:00124270       ?check_req@CTeleportPanel@@QAE_NPAUOBJECTSTRUCT@@HKKK@Z 00525270 f   TeleportPanel.obj
 0001:001244e0       ?clear_pk@CTeleportPanel@@QAEXPAUOBJECTSTRUCT@@KKK@Z 005254e0 f   TeleportPanel.obj
 0001:00124860       ?find@?$_Tree@V?$_Tmap_traits@GUTELEPORT_PANEL_INFO@@U?$less@G@std@@V?$allocator@U?$pair@$$CBGUTELEPORT_PANEL_INFO@@@std@@@3@$0A@@std@@@std@@QAE?AV?$_Tree_iterator@V?$_Tree_val@U?$_Tree_simple_types@U?$pair@$$CBGUTELEPORT_PANEL_INFO@@@std@@@std@@@std@@@2@ABG@Z 00525860 f i TeleportPanel.obj
 0001:001248c0       ??1?$_Tree@V?$_Tmap_traits@GUTELEPORT_PANEL_INFO@@U?$less@G@std@@V?$allocator@U?$pair@$$CBGUTELEPORT_PANEL_INFO@@@std@@@3@$0A@@std@@@std@@QAE@XZ 005258c0 f i TeleportPanel.obj
 0001:00124900       ??$_Erase_tree@V?$allocator@U?$_Tree_node@U?$pair@$$CBGUTELEPORT_PANEL_INFO@@@std@@PAX@std@@@std@@@?$_Tree_val@U?$_Tree_simple_types@U?$pair@$$CBGUTELEPORT_PANEL_INFO@@@std@@@std@@@std@@QAEXAAV?$allocator@U?$_Tree_node@U?$pair@$$CBGUTELEPORT_PANEL_INFO@@@std@@PAX@std@@@1@PAU?$_Tree_node@U?$pair@$$CBGUTELEPORT_PANEL_INFO@@@std@@PAX@1@@Z 00525900 f i TeleportPanel.obj
 0001:00124940       ??_GCTrade@@UAEPAXI@Z      00525940 f i Trade.obj
 0001:00124940       ??_ECTrade@@UAEPAXI@Z      00525940 f i * CIL library *:* CIL module *
 0001:00124970       ?ClearTrade@CTrade@@QAEXPAUOBJECTSTRUCT@@@Z 00525970 f   Trade.obj
 0001:001249c0       ?ResetTrade@CTrade@@QAEXH@Z 005259c0 f   Trade.obj
 0001:00124ac0       ?ExchangeTradeItem@CTrade@@QAE_NPAUOBJECTSTRUCT@@0@Z 00525ac0 f   Trade.obj
 0001:00124b40       ?ExchangeTradeItemLog@CTrade@@QAEXPAUOBJECTSTRUCT@@0@Z 00525b40 f   Trade.obj
 0001:00124c30       ?CGTradeRequestRecv@CTrade@@QAEXPAUPMSG_TRADE_REQUEST_RECV@@H@Z 00525c30 f   Trade.obj
 0001:00125050       ?CGTradeResponseRecv@CTrade@@QAEXPAUPMSG_TRADE_RESPONSE_RECV@@H@Z 00526050 f   Trade.obj
 0001:00125450       ?CGTradeMoneyRecv@CTrade@@QAEXPAUPMSG_TRADE_MONEY_RECV@@H@Z 00526450 f   Trade.obj
 0001:00125630       ?CGTradeOkButtonRecv@CTrade@@QAEXPAUPMSG_TRADE_OK_BUTTON_RECV@@H@Z 00526630 f   Trade.obj
 0001:00125ab0       ?CGTradeCancelButtonRecv@CTrade@@QAEXH@Z 00526ab0 f   Trade.obj
 0001:00125bf0       ??0TVT_EVENT_INFO@@QAE@XZ  00526bf0 f i TvTEvent.obj
 0001:00125c20       ??_GCTvTEvent@@UAEPAXI@Z   00526c20 f i TvTEvent.obj
 0001:00125c20       ??_ECTvTEvent@@UAEPAXI@Z   00526c20 f i * CIL library *:* CIL module *
 0001:00125ca0       ??1TVT_EVENT_INFO@@QAE@XZ  00526ca0 f i TvTEvent.obj
 0001:00125cb0       ?ReadTvTEventInfo@CTvTEvent@@QAEXPAD0@Z 00526cb0 f   TvTEvent.obj
 0001:00125e90       ?Load@CTvTEvent@@QAEXPAD@Z 00526e90 f   TvTEvent.obj
 0001:00126360       ?MainProc@CTvTEvent@@QAEXXZ 00527360 f   TvTEvent.obj
 0001:001266d0       ?ProcState_EMPTY@CTvTEvent@@QAEXPAUTVT_EVENT_INFO@@@Z 005276d0 f   TvTEvent.obj
 0001:00126820       ?SetState@CTvTEvent@@QAEXPAUTVT_EVENT_INFO@@H@Z 00527820 f   TvTEvent.obj
 0001:001269d0       ?SetState_CLEAN@CTvTEvent@@QAEXPAUTVT_EVENT_INFO@@@Z 005279d0 f   TvTEvent.obj
 0001:00126bc0       ?CheckSync@CTvTEvent@@QAEXPAUTVT_EVENT_INFO@@@Z 00527bc0 f   TvTEvent.obj
 0001:00126db0       ?CheckEnterEnabled@CTvTEvent@@QAE_NPAUOBJECTSTRUCT@@@Z 00527db0 f   TvTEvent.obj
 0001:00126fa0       ?CheckEnteredUser@CTvTEvent@@QAE_NHH@Z 00527fa0 f   TvTEvent.obj
 0001:00127040       ?CheckPlayerTarget@CTvTEvent@@QAE_NPAUOBJECTSTRUCT@@@Z 00528040 f   TvTEvent.obj
 0001:001270e0       ?CheckPlayerJoined@CTvTEvent@@QAE_NPAUOBJECTSTRUCT@@0@Z 005280e0 f   TvTEvent.obj
 0001:00127180       ?AddUser@CTvTEvent@@QAE_NPAUTVT_EVENT_INFO@@H@Z 00528180 f   TvTEvent.obj
 0001:001273c0       ?CheckUser@CTvTEvent@@QAEXPAUTVT_EVENT_INFO@@@Z 005283c0 f   TvTEvent.obj
 0001:00127470       ?DivisionTeam@CTvTEvent@@QAEXPAUTVT_EVENT_INFO@@@Z 00528470 f   TvTEvent.obj
 0001:00127600       ?UserDieProc@CTvTEvent@@QAEXPAUOBJECTSTRUCT@@0@Z 00528600 f   TvTEvent.obj
 0001:001277f0       ?NoticeSendToAll@CTvTEvent@@QAAXPAUTVT_EVENT_INFO@@HPADZZ 005287f0 f   TvTEvent.obj
 0001:00127880       ??_GCUnion@@UAEPAXI@Z      00528880 f i Union.obj
 0001:00127880       ??_ECUnion@@UAEPAXI@Z      00528880 f i * CIL library *:* CIL module *
 0001:001278c0       ?GetGuildRelationShip@CUnion@@QAEHHH@Z 005288c0 f   Union.obj
 0001:00127970       ?SearchUnion@CUnion@@QAEPAVCUnionInfo@@H@Z 00528970 f   Union.obj
 0001:001279f0       ?AddUnion@CUnion@@QAEHHPAD@Z 005289f0 f   Union.obj
 0001:00127bf0       ?erase@?$_Tree@V?$_Tmap_traits@HPAVCUnionInfo@@U?$less@H@std@@V?$allocator@U?$pair@$$CBHPAVCUnionInfo@@@std@@@3@$0A@@std@@@std@@QAEIABH@Z 00528bf0 f i Union.obj
 0001:00127d90       ??_GCUnionInfo@@UAEPAXI@Z  00528d90 f i UnionInfo.obj
 0001:00127d90       ??_ECUnionInfo@@UAEPAXI@Z  00528d90 f i * CIL library *:* CIL module *
 0001:00127e00       ??0MESSAGE_STATE_MACHINE_COMMON@@QAE@XZ 00528e00 f i User.obj
 0001:00127e60       ??0MESSAGE_STATE_ATTACK_MACHINE_COMMON@@QAE@XZ 00528e60 f i User.obj
 0001:00127ec0       ??0OBJECTSTRUCT@@QAE@XZ    00528ec0 f i User.obj
 0001:00127f30       ?gObjEventRunProc@@YAXXZ   00528f30 f   User.obj
 0001:00128650       ?gObjFirstProc@@YAXXZ      00529650 f   User.obj
 0001:00128dc0       ?gObjCloseProc@@YAXXZ      00529dc0 f   User.obj
 0001:00129010       ?gObjAllLogOut@@YAXXZ      0052a010 f   User.obj
 0001:001290c0       ?gObjAllDisconnect@@YAXXZ  0052a0c0 f   User.obj
 0001:00129170       ?gObjCharZeroSet@@YAXH@Z   0052a170 f   User.obj
 0001:00129ea0       ?gObjClearPlayerOption@@YAXPAUOBJECTSTRUCT@@@Z 0052aea0 f   User.obj
 0001:0012a1e0       ?gObjClearSpecialOption@@YAXPAUOBJECTSTRUCT@@@Z 0052b1e0 f   User.obj
 0001:0012a450       ?gObjCalcExperience@@YAXPAUOBJECTSTRUCT@@@Z 0052b450 f   User.obj
 0001:0012a500       ?gObjGetRandomFreeLocation@@YA_NHPAH0HHH@Z 0052b500 f   User.obj
 0001:0012a600       ?gObjAllocData@@YA_NH@Z    0052b600 f   User.obj
 0001:0012a7f0       ?gObjDelOffExp@@YAFH@Z     0052b7f0 f   User.obj
 0001:0012a860       ?gObjDel@@YAFH@Z           0052b860 f   User.obj
 0001:0012ab20       ?gObjFind@@YAPAUOBJECTSTRUCT@@PAD@Z 0052bb20 f   User.obj
 0001:0012aba0       ?gObjFindByAcc@@YAPAUOBJECTSTRUCT@@PAD@Z 0052bba0 f   User.obj
 0001:0012ac20       ?gObjCalcDistance@@YAHPAUOBJECTSTRUCT@@0@Z 0052bc20 f   User.obj
 0001:0012acd0       ?gObjIsNameValid@@YA_NHPAD@Z 0052bcd0 f   User.obj
 0001:0012ad60       ?gObjIsAccountValid@@YA_NHPAD@Z 0052bd60 f   User.obj
 0001:0012adf0       ?gObjIsChangeSkin@@YA_NH@Z 0052bdf0 f   User.obj
 0001:0012aea0       ?gObjCheckResistance@@YA_NPAUOBJECTSTRUCT@@H@Z 0052bea0 f   User.obj
 0001:0012af80       ?gObjCheckTeleportArea@@YA_NHHH@Z 0052bf80 f   User.obj
 0001:0012b050       ?gObjCheckMapTile@@YA_NPAUOBJECTSTRUCT@@H@Z 0052c050 f   User.obj
 0001:0012b170       ?gObjFixInventoryPointer@@YA_NH@Z 0052c170 f   User.obj
 0001:0012b1f0       ?gObjInventoryTransaction@@YA_NH@Z 0052c1f0 f   User.obj
 0001:0012b330       ?gObjInventoryCommit@@YA_NH@Z 0052c330 f   User.obj
 0001:0012b430       ?gObjInventoryRollback@@YA_NH@Z 0052c430 f   User.obj
 0001:0012b4f0       ?gObjClearViewport@@YAXPAUOBJECTSTRUCT@@@Z 0052c4f0 f   User.obj
 0001:0012b570       ?gObjViewportListProtocolCreate@@YAXPAUOBJECTSTRUCT@@@Z 0052c570 f   User.obj
 0001:0012b930       ?gObjViewportListProtocol@@YAXH@Z 0052c930 f   User.obj
 0001:0012bef0       ?gObjViewportListDestroy@@YAXH@Z 0052cef0 f   User.obj
 0001:0012c490       ?gObjViewportListCreate@@YAXH@Z 0052d490 f   User.obj
 0001:0012c730       ?gObjTeleportMagicUse@@YAXHHH@Z 0052d730 f   User.obj
 0001:0012c940       ?gObjInterfaceCheckTime@@YAXPAUOBJECTSTRUCT@@@Z 0052d940 f   User.obj
 0001:0012cb60       ?gObjPKDownCheckTime@@YAXPAUOBJECTSTRUCT@@H@Z 0052db60 f   User.obj
 0001:0012cc70       ?gObjKillReward@@YAXPAUOBJECTSTRUCT@@0@Z 0052dc70 f   User.obj
 0001:0012cd30       ?gObjUserDie@@YAXPAUOBJECTSTRUCT@@0@Z 0052dd30 f   User.obj
 0001:0012d5b0       ?gObjPlayerKiller@@YAXPAUOBJECTSTRUCT@@0@Z 0052e5b0 f   User.obj
 0001:0012d900       ?gObjMoveGate@@YAHHH@Z     0052e900 f   User.obj
 0001:0012e2e0       ?gObjTeleport@@YAXHHHH@Z   0052f2e0 f   User.obj
 0001:0012e4e0       ?gObjSkillUseProc@@YAXPAUOBJECTSTRUCT@@@Z 0052f4e0 f   User.obj
 0001:0012e7d0       ?gObjInventorySearchSerialNumber@@YA_NPAUOBJECTSTRUCT@@K@Z 0052f7d0 f   User.obj
 0001:0012e8a0       ?gObjWarehouseSearchSerialNumber@@YA_NPAUOBJECTSTRUCT@@K@Z 0052f8a0 f   User.obj
 0001:0012e970       ?gObjGuildWarehouseSearchSerialNumber@@YA_NPAUOBJECTSTRUCT@@K@Z 0052f970 f   User.obj
 0001:0012ea50       ?gObjAddMsgSendDelay@@YAXPAUOBJECTSTRUCT@@HHHH@Z 0052fa50 f   User.obj
 0001:0012eb90       ?gObjAddAttackProcMsgSendDelay@@YAXPAUOBJECTSTRUCT@@HHHHH@Z 0052fb90 f   User.obj
 0001:0012ed00       ?gObjSecondProc@@YAXXZ     0052fd00 f   User.obj
 0001:0012f9f0       ?gObjBackSpring@@YAHPAUOBJECTSTRUCT@@0@Z 005309f0 f   User.obj
 0001:0012fd60       ?BackSpringCheck@@YAHAAH00E@Z 00530d60 f   User.obj
 0001:0012fe00       ?gObjBackSpring2@@YAHPAUOBJECTSTRUCT@@0H@Z 00530e00 f   User.obj
 0001:001301f0       ?gObjCheckSelfDefense@@YAXPAUOBJECTSTRUCT@@H@Z 005311f0 f   User.obj
 0001:00130440       ?gObjTimeCheckSelfDefense@@YAXPAUOBJECTSTRUCT@@@Z 00531440 f   User.obj
 0001:001305a0       ?gObjTargetGuildWarCheck@@YAHPAUOBJECTSTRUCT@@0@Z 005315a0 f   User.obj
 0001:00130630       ?gObjGuildWarEndSend@@YAXPAUOBJECTSTRUCT@@EE@Z 00531630 f   User.obj
 0001:001307a0       ?gObjGuildWarEndSend@@YAXPAUGUILD_INFO_STRUCT@@0EE@Z 005317a0 f   User.obj
 0001:001308c0       ?gObjGuildWarProc@@YAHPAUGUILD_INFO_STRUCT@@0H@Z 005318c0 f   User.obj
 0001:00130c70       ?gObjGuildWarMasterClose@@YAHPAUOBJECTSTRUCT@@@Z 00531c70 f   User.obj
 0001:00130d40       ?gObjSetPosition@@YAXHHH@Z 00531d40 f   User.obj
 0001:00130e30       ?gObjNotifyUpdateUnionV1@@YAXPAUOBJECTSTRUCT@@@Z 00531e30 f   User.obj
 0001:00131010       ?gObjNotifyUpdateUnionV2@@YAXPAUOBJECTSTRUCT@@@Z 00532010 f   User.obj
 0001:00131160       ?gObjRebuildMasterSkillTree@@YA_NPAUOBJECTSTRUCT@@@Z 00532160 f   User.obj
 0001:001313a0       ?gObjUseDrink@@YAXPAUOBJECTSTRUCT@@H@Z 005323a0 f   User.obj
 0001:00131440       ?ReadData@UserPanel@@QAEXPAD@Z 00532440 f   UserPanel.obj
 0001:00131590       ?ErrorMessageBox@@YAXPADZZ 00532590 f   Util.obj
 0001:00131620       ?MsgBox@@YAXPADZZ          00532620 f   Util.obj
 0001:001316c0       ?LogAdd@@YAXW4eLogColor@@PADZZ 005326c0 f   Util.obj
 0001:001317e0       ?DataSend@@YA_NHPAEK@Z     005327e0 f   Util.obj
 0001:00131800       ?MsgSendV2@@YAXPAUOBJECTSTRUCT@@PAEH@Z 00532800 f   Util.obj
 0001:00131850       ?PostMessage1@@YAXPAD00@Z  00532850 f   Util.obj
 0001:00131970       ?PostMessage2@@YAXPAD00@Z  00532970 f   Util.obj
 0001:00131a90       ?PostMessage3@@YAXPAD00@Z  00532a90 f   Util.obj
 0001:00131bb0       ?PostMessage4@@YAXPAD00@Z  00532bb0 f   Util.obj
 0001:00131cd0       ?GetLargeRand@@YAJXZ       00532cd0 f   Util.obj
 0001:00131d90       ??0?$mersenne_twister@I$0CA@$0CHA@$0BIN@$0BP@$0JJAILANP@$0L@$06$0JNCMFGIA@$0P@$0OPMGAAAA@$0BC@@std@@QAE@III@Z 00532d90 f i Util.obj
 0001:00131de0       ??R?$mersenne_twister@I$0CA@$0CHA@$0BIN@$0BP@$0JJAILANP@$0L@$06$0JNCMFGIA@$0P@$0OPMGAAAA@$0BC@@std@@QAEIXZ 00532de0 f i Util.obj
 0001:00131f70       _modff                     00532f70 f i Util.obj
 0001:00131fc0       ??_GCViewport@@UAEPAXI@Z   00532fc0 f i Viewport.obj
 0001:00131fc0       ??_ECViewport@@UAEPAXI@Z   00532fc0 f i * CIL library *:* CIL module *
 0001:00131ff0       ?AddViewportObject1@CViewport@@QAE_NHHH@Z 00532ff0 f   Viewport.obj
 0001:001320f0       ?AddViewportObject2@CViewport@@QAE_NHHH@Z 005330f0 f   Viewport.obj
 0001:00132180       ?DestroyViewportMonster1@CViewport@@QAEXH@Z 00533180 f   Viewport.obj
 0001:00132450       ?CreateViewportItem@CViewport@@QAEXH@Z 00533450 f   Viewport.obj
 0001:001325f0       ?GCViewportNewPetSend@CViewport@@QAEXH@Z 005335f0 f   Viewport.obj
 0001:001327f0       ?GCViewportPlayerSend@CViewport@@QAEXH@Z 005337f0 f   Viewport.obj
 0001:00132a70       ?GCViewportMonsterSend@CViewport@@QAEXH@Z 00533a70 f   Viewport.obj
 0001:00132d40       ?GCViewportSummonSend@CViewport@@QAEXH@Z 00533d40 f   Viewport.obj
 0001:00132f50       ?GCViewportChangeSend@CViewport@@QAEXH@Z 00533f50 f   Viewport.obj
 0001:00133200       ?GCViewportGuildSend@CViewport@@QAEXH@Z 00534200 f   Viewport.obj
 0001:00133450       ?GCViewportCastleSiegeWeaponSend@CViewport@@QAEXHHH@Z 00534450 f   Viewport.obj
 0001:00133680       ?GCViewportSimplePlayerSend@CViewport@@QAEXPAUOBJECTSTRUCT@@@Z 00534680 f   Viewport.obj
 0001:00133880       ?GCViewportSimpleChangeSend@CViewport@@QAEXPAUOBJECTSTRUCT@@@Z 00534880 f   Viewport.obj
 0001:00133a90       ?GCViewportSimpleGuildSend@CViewport@@QAEXPAUOBJECTSTRUCT@@@Z 00534a90 f   Viewport.obj
 0001:00133c00       ?GCViewportSimpleGensSystemSend@CViewport@@QAEXPAUOBJECTSTRUCT@@@Z 00534c00 f   Viewport.obj
 0001:00133d10       ??0CUSTOM_VIP_LOTTERY_INFO@@QAE@XZ 00534d10 f i VipLotteryEvent.obj
 0001:00133d40       ??_GcVipLottery@@UAEPAXI@Z 00534d40 f i VipLotteryEvent.obj
 0001:00133d40       ??_EcVipLottery@@UAEPAXI@Z 00534d40 f i * CIL library *:* CIL module *
 0001:00133dc0       ??1CUSTOM_VIP_LOTTERY_INFO@@QAE@XZ 00534dc0 f i VipLotteryEvent.obj
 0001:00133de0       ?ProcState_EMPTY@cVipLottery@@QAEXPAUCUSTOM_VIP_LOTTERY_INFO@@@Z 00534de0 f   VipLotteryEvent.obj
 0001:00133f50       ?SetState@cVipLottery@@QAEXPAUCUSTOM_VIP_LOTTERY_INFO@@H@Z 00534f50 f   VipLotteryEvent.obj
 0001:00133fb0       ?SetState_EMPTY@cVipLottery@@QAEXPAUCUSTOM_VIP_LOTTERY_INFO@@@Z 00534fb0 f   VipLotteryEvent.obj
 0001:00134170       ??_GCVoteParcer@@UAEPAXI@Z 00535170 f i VoteParcer.obj
 0001:00134170       ??_ECVoteParcer@@UAEPAXI@Z 00535170 f i * CIL library *:* CIL module *
 0001:001341b0       ??_GCWarehouse@@UAEPAXI@Z  005351b0 f i Warehouse.obj
 0001:001341b0       ??_ECWarehouse@@UAEPAXI@Z  005351b0 f i * CIL library *:* CIL module *
 0001:001341e0       ?GetWarehouseTaxMoney@CWarehouse@@QAEHHH@Z 005351e0 f   Warehouse.obj
 0001:00134270       ?CGWarehouseMoneyRecv@CWarehouse@@QAEXPAUPMSG_WAREHOUSE_MONEY_RECV@@H@Z 00535270 f   Warehouse.obj
 0001:00134480       ?CGWarehouseClose@CWarehouse@@QAEXHH@Z 00535480 f   Warehouse.obj
 0001:00134730       ?CGWarehousePasswordRecv@CWarehouse@@QAEXPAUPMSG_WAREHOUSE_PASSWORD_RECV@@H@Z 00535730 f   Warehouse.obj
 0001:00134900       ?DGWarehouseItemRecv@CWarehouse@@QAEXPAUSDHP_WAREHOUSE_ITEM_RECV@@@Z 00535900 f   Warehouse.obj
 0001:00134c20       ?GDWarehouseItemSaveSend@CWarehouse@@QAEXH@Z 00535c20 f   Warehouse.obj
 0001:00134d20       ??_EcZenDrop@@UAEPAXI@Z    00535d20 f i * CIL library *:* CIL module *
 0001:00134d20       ??_GcZenDrop@@UAEPAXI@Z    00535d20 f i ZenDrop.obj
 0001:00134d60       ?Load@cZenDrop@@QAEXPAD@Z  00535d60 f   ZenDrop.obj
 0001:00135150       ?GetZenAmount@cZenDrop@@QAEKEG@Z 00536150 f   ZenDrop.obj
 0001:00135260       _lua_checkstack            00536260 f   liblua:lapi.obj
 0001:00135310       _lua_xmove                 00536310 f   liblua:lapi.obj
 0001:00135370       _lua_settop                00536370 f   liblua:lapi.obj
 0001:00135440       _lua_rotate                00536440 f   liblua:lapi.obj
 0001:001354b0       _lua_copy                  005364b0 f   liblua:lapi.obj
 0001:00135550       _lua_pushvalue             00536550 f   liblua:lapi.obj
 0001:00135580       _lua_type                  00536580 f   liblua:lapi.obj
 0001:001355b0       _lua_typename              005365b0 f   liblua:lapi.obj
 0001:001355c0       _lua_isstring              005365c0 f   liblua:lapi.obj
 0001:001355e0       _lua_compare               005365e0 f   liblua:lapi.obj
 0001:00135730       _lua_tolstring             00536730 f   liblua:lapi.obj
 0001:001357f0       _lua_rawlen                005367f0 f   liblua:lapi.obj
 0001:00135870       _lua_touserdata            00536870 f   liblua:lapi.obj
 0001:001358b0       _lua_pushstring            005368b0 f   liblua:lapi.obj
 0001:00135900       _lua_pushvfstring          00536900 f   liblua:lapi.obj
 0001:00135930       _lua_pushfstring           00536930 f   liblua:lapi.obj
 0001:00135970       _lua_pushcclosure          00536970 f   liblua:lapi.obj
 0001:00135af0       _lua_geti                  00536af0 f   liblua:lapi.obj
 0001:00135cf0       _lua_seti                  00536cf0 f   liblua:lapi.obj
 0001:00135ec0       _lua_rawseti               00536ec0 f   liblua:lapi.obj
 0001:00135fa0       _lua_setmetatable          00536fa0 f   liblua:lapi.obj
 0001:001360a0       _lua_load                  005370a0 f   liblua:lapi.obj
 0001:00136280       _lua_status                00537280 f   liblua:lapi.obj
 0001:00136290       _lua_gc                    00537290 f   liblua:lapi.obj
 0001:00136500       _lua_error                 00537500 f   liblua:lapi.obj
 0001:00136530       _lua_concat                00537530 f   liblua:lapi.obj
 0001:00136550       _lua_newuserdatauv         00537550 f   liblua:lapi.obj
 0001:001365f0       _lua_setupvalue            005375f0 f   liblua:lapi.obj
 0001:00136a20       _luaL_traceback            00537a20 f   liblua:lauxlib.obj
 0001:00136f30       _luaL_argerror             00537f30 f   liblua:lauxlib.obj
 0001:00137000       _luaL_typeerror            00538000 f   liblua:lauxlib.obj
 0001:00137090       _luaL_where                00538090 f   liblua:lauxlib.obj
 0001:00137110       _luaL_error                00538110 f   liblua:lauxlib.obj
 0001:00137150       _luaL_fileresult           00538150 f   liblua:lauxlib.obj
 0001:00137200       _luaL_execresult           00538200 f   liblua:lauxlib.obj
 0001:00137300       _luaL_newmetatable         00538300 f   liblua:lauxlib.obj
 0001:00137420       _luaL_testudata            00538420 f   liblua:lauxlib.obj
 0001:00137560       _luaL_checkoption          00538560 f   liblua:lauxlib.obj
 0001:00137630       _luaL_checkany             00538630 f   liblua:lauxlib.obj
 0001:001376a0       _luaL_checkinteger         005386a0 f   liblua:lauxlib.obj
 0001:00137760       _luaL_optinteger           00538760 f   liblua:lauxlib.obj
 0001:00137aa0       _luaL_pushresult           00538aa0 f   liblua:lauxlib.obj
 0001:00137d20       _luaL_loadfilex            00538d20 f   liblua:lauxlib.obj
 0001:00137fa0       _luaL_getmetafield         00538fa0 f   liblua:lauxlib.obj
 0001:001380e0       _luaL_len                  005390e0 f   liblua:lauxlib.obj
 0001:001381d0       _luaL_tolstring            005391d0 f   liblua:lauxlib.obj
 0001:001385c0       _luaL_setfuncs             005395c0 f   liblua:lauxlib.obj
 0001:001386a0       _luaL_getsubtable          005396a0 f   liblua:lauxlib.obj
 0001:00138760       _luaL_requiref             00539760 f   liblua:lauxlib.obj
 0001:001388f0       _luaL_addgsub              005398f0 f   liblua:lauxlib.obj
 0001:00139010       _luaE_resetthread          0053a010 f   liblua:lstate.obj
 0001:00139090       _lua_resetthread           0053a090 f   liblua:lstate.obj
 0001:001390a0       _lua_newstate              0053a0a0 f   liblua:lstate.obj
 0001:001392b0       _luaV_tonumber_            0053a2b0 f   liblua:lvm.obj
 0001:00139370       _luaV_tointegerns          0053a370 f   liblua:lvm.obj
 0001:00139700       _luaV_finishget            0053a700 f   liblua:lvm.obj
 0001:00139850       _luaV_finishset            0053a850 f   liblua:lvm.obj
 0001:00139f70       _luaV_equalobj             0053af70 f   liblua:lvm.obj
 0001:0013a330       _luaV_concat               0053b330 f   liblua:lvm.obj
 0001:0013a5c0       _luaV_objlen               0053b5c0 f   liblua:lvm.obj
 0001:0013a6f0       _luaV_idiv                 0053b6f0 f   liblua:lvm.obj
 0001:0013a930       _luaV_execute              0053b930 f   liblua:lvm.obj
 0001:0013ee30       _luaH_next                 0053fe30 f   liblua:ltable.obj
 0001:0013f140       _luaH_resize               00540140 f   liblua:ltable.obj
 0001:0013f770       _luaH_new                  00540770 f   liblua:ltable.obj
 0001:0013f7d0       _luaH_newkey               005407d0 f   liblua:ltable.obj
 0001:0013fab0       _luaH_getint               00540ab0 f   liblua:ltable.obj
 0001:0013fbb0       _luaH_getshortstr          00540bb0 f   liblua:ltable.obj
 0001:0013fbf0       _luaH_get                  00540bf0 f   liblua:ltable.obj
 0001:0013fcf0       _luaH_getn                 00540cf0 f   liblua:ltable.obj
 0001:00140310       _luaO_rawarith             00541310 f   liblua:lobject.obj
 0001:001409b0       _luaO_str2num              005419b0 f   liblua:lobject.obj
 0001:00140ca0       _luaO_pushvfstring         00541ca0 f   liblua:lobject.obj
 0001:00141220       _luaO_pushfstring          00542220 f   liblua:lobject.obj
 0001:00141240       _luaO_chunkid              00542240 f   liblua:lobject.obj
 0001:00141390       _luaD_seterrorobj          00542390 f   liblua:ldo.obj
 0001:00141430       _luaD_throw                00542430 f   liblua:ldo.obj
 0001:001414d0       _luaD_rawrunprotected      005424d0 f   liblua:ldo.obj
 0001:00141550       _luaD_reallocstack         00542550 f   liblua:ldo.obj
 0001:001416d0       _luaD_shrinkstack          005426d0 f   liblua:ldo.obj
 0001:001417a0       _luaD_inctop               005427a0 f   liblua:ldo.obj
 0001:00141820       _luaD_hook                 00542820 f   liblua:ldo.obj
 0001:00141a10       _luaD_tryfuncTM            00542a10 f   liblua:ldo.obj
 0001:00141ed0       _luaD_pretailcall          00542ed0 f   liblua:ldo.obj
 0001:001420a0       _luaD_precall              005430a0 f   liblua:ldo.obj
 0001:00142290       _luaD_callnoyield          00543290 f   liblua:ldo.obj
 0001:00142610       _lua_resume                00543610 f   liblua:ldo.obj
 0001:001427a0       _luaD_closeprotected       005437a0 f   liblua:ldo.obj
 0001:00142840       _luaD_pcall                00543840 f   liblua:ldo.obj
 0001:00143d40       _luaC_checkfinalizer       00544d40 f   liblua:lgc.obj
 0001:00144590       _luaC_freeallobjects       00545590 f   liblua:lgc.obj
 0001:00144b20       _luaC_step                 00545b20 f   liblua:lgc.obj
 0001:00144bf0       _luaC_fullgc               00545bf0 f   liblua:lgc.obj
 0001:00144cc0       _luaG_getfuncline          00545cc0 f   liblua:ldebug.obj
 0001:00144e30       _lua_getstack              00545e30 f   liblua:ldebug.obj
 0001:00144e80       _luaG_findlocal            00545e80 f   liblua:ldebug.obj
 0001:001451d0       _lua_getinfo               005461d0 f   liblua:ldebug.obj
 0001:00145b90       _luaG_typeerror            00546b90 f   liblua:ldebug.obj
 0001:00145bb0       _luaG_callerror            00546bb0 f   liblua:ldebug.obj
 0001:00145c00       _luaG_forerror             00546c00 f   liblua:ldebug.obj
 0001:00145c20       _luaG_concaterror          00546c20 f   liblua:ldebug.obj
 0001:00145c40       _luaG_opinterror           00546c40 f   liblua:ldebug.obj
 0001:00145c60       _luaG_tointerror           00546c60 f   liblua:ldebug.obj
 0001:00145ca0       _luaG_ordererror           00546ca0 f   liblua:ldebug.obj
 0001:00145d10       _luaG_addinfo              00546d10 f   liblua:ldebug.obj
 0001:00145d90       _luaG_errormsg             00546d90 f   liblua:ldebug.obj
 0001:00145df0       _luaG_runerror             00546df0 f   liblua:ldebug.obj
 0001:00145e50       _luaG_traceexec            00546e50 f   liblua:ldebug.obj
 0001:00145ff0       _luaF_newtbcupval          00546ff0 f   liblua:lfunc.obj
 0001:001460c0       _luaF_closeupval           005470c0 f   liblua:lfunc.obj
 0001:00146190       _luaF_close                00547190 f   liblua:lfunc.obj
 0001:001462d0       _luaF_newproto             005472d0 f   liblua:lfunc.obj
 0001:00146380       _luaF_getlocalname         00547380 f   liblua:lfunc.obj
 0001:001463d0       _luaZ_fill                 005473d0 f   liblua:lzio.obj
 0001:00146430       _luaS_eqlngstr             00547430 f   liblua:lstring.obj
 0001:00146520       _luaS_resize               00547520 f   liblua:lstring.obj
 0001:001467a0       _luaS_newlstr              005477a0 f   liblua:lstring.obj
 0001:00146830       _luaS_new                  00547830 f   liblua:lstring.obj
 0001:001470b0       _luaU_dump                 005480b0 f   liblua:ldump.obj
 0001:00147240       _luaT_objtypename          00548240 f   liblua:ltm.obj
 0001:001472a0       _luaT_callTMres            005482a0 f   liblua:ltm.obj
 0001:00147410       _luaT_trybinTM             00548410 f   liblua:ltm.obj
 0001:001487f0       _luaopen_table             005497f0 f   liblua:ltablib.obj
 0001:0014a580       _luaopen_base              0054b580 f   liblua:lbaselib.obj
 0001:0014b250       _luaopen_utf8              0054c250 f   liblua:lutf8lib.obj
 0001:0014ca40       _luaopen_package           0054da40 f   liblua:loadlib.obj
 0001:0014da90       _luaopen_os                0054ea90 f   liblua:loslib.obj
 0001:00152600       _luaopen_string            00553600 f   liblua:lstrlib.obj
 0001:00153dd0       _luaopen_math              00554dd0 f   liblua:lmathlib.obj
 0001:00155e80       _luaopen_io                00556e80 f   liblua:liolib.obj
 0001:00157ce0       _luaopen_debug             00558ce0 f   liblua:ldblib.obj
 0001:00158480       _luaopen_coroutine         00559480 f   liblua:lcorolib.obj
 0001:001584e0       _luaM_toobig               005594e0 f   liblua:lmem.obj
 0001:00158540       _luaM_saferealloc_         00559540 f   liblua:lmem.obj
 0001:001585b0       _luaM_malloc_              005595b0 f   liblua:lmem.obj
 0001:001586a0       _luaX_token2str            005596a0 f   liblua:llex.obj
 0001:001587a0       _luaX_syntaxerror          005597a0 f   liblua:llex.obj
 0001:001587b0       _luaX_newstring            005597b0 f   liblua:llex.obj
 0001:0015b720       _luaU_undump               0055c720 f   liblua:lundump.obj
 0001:001604d0       _luaY_parser               005614d0 f   liblua:lparser.obj
 0001:00160850       _luaK_semerror             00561850 f   liblua:lcode.obj
 0001:00160860       _luaK_nil                  00561860 f   liblua:lcode.obj
 0001:00160920       _luaK_concat               00561920 f   liblua:lcode.obj
 0001:00160990       _luaK_ret                  00561990 f   liblua:lcode.obj
 0001:00160d30       _luaK_code                 00561d30 f   liblua:lcode.obj
 0001:001611c0       _luaK_int                  005621c0 f   liblua:lcode.obj
 0001:00161270       _luaK_setreturns           00562270 f   liblua:lcode.obj
 0001:001612f0       _luaK_dischargevars        005622f0 f   liblua:lcode.obj
 0001:00161940       _luaK_exp2nextreg          00562940 f   liblua:lcode.obj
 0001:001619e0       _luaK_exp2anyreg           005629e0 f   liblua:lcode.obj
 0001:00161b90       _luaK_storevar             00562b90 f   liblua:lcode.obj
 0001:00161da0       _luaK_self                 00562da0 f   liblua:lcode.obj
 0001:00162000       _luaK_goiftrue             00563000 f   liblua:lcode.obj
 0001:001622f0       _luaK_indexed              005632f0 f   liblua:lcode.obj
 0001:00162b60       _luaK_posfix               00563b60 f   liblua:lcode.obj
 0001:001630a0       ??_Gxml_writer@pugi@@UAEPAXI@Z 005640a0 f i libpugixml:pugixml.obj
 0001:001630a0       ??_Exml_writer@pugi@@UAEPAXI@Z 005640a0 f i * CIL library *:* CIL module *
 0001:001630e0       ??3@YAXPAX@Z               005640e0 f   LIBCMT:delete_scalar.obj
 0001:00165490       ??1xml_writer_file@pugi@@UAE@XZ 00566490 f i libpugixml:pugixml.obj
 0001:001654a0       ??_Gxml_writer_file@pugi@@UAEPAXI@Z 005664a0 f i libpugixml:pugixml.obj
 0001:001654a0       ??_Exml_writer_file@pugi@@UAEPAXI@Z 005664a0 f i * CIL library *:* CIL module *
 0001:001654d0       ?write@xml_writer_file@pugi@@UAEXPBXI@Z 005664d0 f   libpugixml:pugixml.obj
 0001:001654f0       ?child@xml_node@pugi@@QBE?AV12@PBD@Z 005664f0 f   libpugixml:pugixml.obj
 0001:00165560       ?attribute@xml_node@pugi@@QBE?AVxml_attribute@2@PBD@Z 00566560 f   libpugixml:pugixml.obj
 0001:001655d0       ?append_child@xml_node@pugi@@QAE?AV12@W4xml_node_type@2@@Z 005665d0 f   libpugixml:pugixml.obj
 0001:00165670       ?insert_child_after@xml_node@pugi@@QAE?AV12@W4xml_node_type@2@ABV12@@Z 00566670 f   libpugixml:pugixml.obj
 0001:00165770       ?description@xml_parse_result@pugi@@QBEPBDXZ 00566770 f   libpugixml:pugixml.obj
 0001:00165820       ??1xml_document@pugi@@QAE@XZ 00566820 f   libpugixml:pugixml.obj
 0001:00165830       ?create@xml_document@pugi@@AAEXXZ 00566830 f   libpugixml:pugixml.obj
 0001:001658c0       ?destroy@xml_document@pugi@@AAEXXZ 005668c0 f   libpugixml:pugixml.obj
 0001:00165930       ?load_buffer_impl@xml_document@pugi@@AAE?AUxml_parse_result@2@PAXIIW4xml_encoding@2@_N2@Z 00566930 f   libpugixml:pugixml.obj
 0001:00165b10       ?save@xml_document@pugi@@QBEXAAVxml_writer@2@PBDIW4xml_encoding@2@@Z 00566b10 f   libpugixml:pugixml.obj
 0001:00165c50       ?save_file@xml_document@pugi@@QBE_NPBD0IW4xml_encoding@2@@Z 00566c50 f   libpugixml:pugixml.obj
 0001:00166a76       ??0bad_alloc@std@@QAE@XZ   00567a76 f i libcpmt:xthrow.obj
 0001:00166a8e       ??0length_error@std@@QAE@ABV01@@Z 00567a8e f i libcpmt:xthrow.obj
 0001:00166aa9       ??0length_error@std@@QAE@PBD@Z 00567aa9 f i libcpmt:xthrow.obj
 0001:00166ac8       ??0logic_error@std@@QAE@ABV01@@Z 00567ac8 f i libcpmt:xthrow.obj
 0001:00166ae3       ??0out_of_range@std@@QAE@ABV01@@Z 00567ae3 f i libcpmt:xthrow.obj
 0001:00166afe       ??0out_of_range@std@@QAE@PBD@Z 00567afe f i libcpmt:xthrow.obj
 0001:00166b1d       ??0runtime_error@std@@QAE@PBD@Z 00567b1d f i libcpmt:xthrow.obj
 0001:00166b3c       ??_Gout_of_range@std@@UAEPAXI@Z 00567b3c f i libcpmt:xthrow.obj
 0001:00166b3c       ??_Ebad_exception@std@@UAEPAXI@Z 00567b3c f i libvcruntime:frame.obj
 0001:00166b3c       ??_Eout_of_range@std@@UAEPAXI@Z 00567b3c f i libcpmt:xthrow.obj
 0001:00166b3c       ??_Elength_error@std@@UAEPAXI@Z 00567b3c f i libcpmt:xthrow.obj
 0001:00166b3c       ??_Glength_error@std@@UAEPAXI@Z 00567b3c f i libcpmt:xthrow.obj
 0001:00166b3c       ??_Elogic_error@std@@UAEPAXI@Z 00567b3c f i libcpmt:xthrow.obj
 0001:00166b3c       ??_Gbad_exception@std@@UAEPAXI@Z 00567b3c f i libvcruntime:frame.obj
 0001:00166b3c       ??_Glogic_error@std@@UAEPAXI@Z 00567b3c f i libcpmt:xthrow.obj
 0001:00166b69       ?__scrt_throw_std_bad_alloc@@YAXXZ 00567b69 f   LIBCMT:throw_bad_alloc.obj
 0001:00166b69       ?_Xbad_alloc@std@@YAXXZ    00567b69 f   libcpmt:xthrow.obj
 0001:00166b86       ?_Xlength_error@std@@YAXPBD@Z 00567b86 f   libcpmt:xthrow.obj
 0001:00166ba6       ?_Xout_of_range@std@@YAXPBD@Z 00567ba6 f   libcpmt:xthrow.obj
 0001:00166bc6       ?_Xruntime_error@std@@YAXPBD@Z 00567bc6 f   libcpmt:xthrow.obj
 0001:00166be6       ?_Callfns@ios_base@std@@AAEXW4event@12@@Z 00567be6 f i libcpmt:ios.obj
 0001:00166c19       ?_Ios_base_dtor@ios_base@std@@CAXPAV12@@Z 00567c19 f   libcpmt:ios.obj
 0001:00166c59       ?_Tidy@ios_base@std@@AAEXXZ 00567c59 f i libcpmt:ios.obj
 0001:00166cd4       ?uncaught_exception@std@@YA_NXZ 00567cd4 f   libcpmt:uncaught_exception.obj
 0001:00166cd9       ??0_Locimp@locale@std@@AAE@_N@Z 00567cd9 f i libcpmt:locale0.obj
 0001:00166d1a       ??1_Fac_node@std@@QAE@XZ   00567d1a f i libcpmt:locale0.obj
 0001:00166d4b       ??1_Fac_tidy_reg_t@std@@QAE@XZ 00567d4b f i libcpmt:locale0.obj
 0001:00166d72       ??1_Locimp@locale@std@@MAE@XZ 00567d72 f i libcpmt:locale0.obj
 0001:00166d9d       ??4?$_Yarn@D@std@@QAEAAV01@PBD@Z 00567d9d f i libcpmt:locale0.obj
 0001:00166df1       ??_E_Locimp@locale@std@@MAEPAXI@Z 00567df1 f i libcpmt:locale0.obj
 0001:00166df1       ??_G_Locimp@locale@std@@MAEPAXI@Z 00567df1 f i libcpmt:locale0.obj
 0001:00166e13       ?_Facet_Register@std@@YAXPAV_Facet_base@1@@Z 00567e13 f   libcpmt:locale0.obj
 0001:00166e3f       ?_Getgloballocale@locale@std@@CAPAV_Locimp@12@XZ 00567e3f f   libcpmt:locale0.obj
 0001:00166e45       ?_Init@locale@std@@CAPAV_Locimp@12@_N@Z 00567e45 f   libcpmt:locale0.obj
 0001:00166ed5       ?_Locimp_dtor@_Locimp@locale@std@@CAXPAV123@@Z 00567ed5 f   libcpmt:locale0.obj
 0001:00166f45       ?_Locinfo_ctor@_Locinfo@std@@SAXPAV12@PBD@Z 00567f45 f   libcpmt:locale0.obj
 0001:00166f90       ?_Locinfo_dtor@_Locinfo@std@@SAXPAV12@@Z 00567f90 f   libcpmt:locale0.obj
 0001:00166faa       ?_New_Locimp@_Locimp@locale@std@@CAPAV123@_N@Z 00567faa f   libcpmt:locale0.obj
 0001:00166fcd       ?_Setgloballocale@locale@std@@CAXPAX@Z 00567fcd f   libcpmt:locale0.obj
 0001:00166ff5       __Deletegloballocale       00567ff5 f   libcpmt:locale0.obj
 0001:0016705a       ??0_Init_locks@std@@QAE@XZ 0056805a f   libcpmt:xlock.obj
 0001:00167087       ??0_Lockit@std@@QAE@H@Z    00568087 f   libcpmt:xlock.obj
 0001:001670b8       ??1_Init_locks@std@@QAE@XZ 005680b8 f   libcpmt:xlock.obj
 0001:001670df       ??1_Lockit@std@@QAE@XZ     005680df f   libcpmt:xlock.obj
 0001:001670fe       __Getctype                 005680fe f   libcpmt:_tolower.obj
 0001:00167169       __Tolower                  00568169 f   libcpmt:_tolower.obj
 0001:00167267       __Toupper                  00568267 f   libcpmt:_toupper.obj
 0001:00167365       ?_Syserror_map@std@@YAPBDH@Z 00568365 f   libcpmt:syserror.obj
 0001:0016738a       ?_Winerror_map@std@@YAHH@Z 0056838a f   libcpmt:syserror.obj
 0001:001673ac       __Getcvt                   005683ac f   libcpmt:xwctomb.obj
 0001:0016741f       ??$_Xfiopen@D@std@@YAPAU_iobuf@@PBDHH@Z 0056841f f i libcpmt:fiopen.obj
 0001:001674c5       ?_Fiopen@std@@YAPAU_iobuf@@PBDHH@Z 005684c5 f   libcpmt:fiopen.obj
 0001:001674ce       ?_Xfsopen@std@@YAPAU_iobuf@@PBDHH@Z 005684ce f   libcpmt:fiopen.obj
 0001:001674eb       ___std_fs_close_handle@4   005684eb f   libcpmt:filesystem.obj
 0001:0016750b       ___std_fs_code_page@0      0056850b f   libcpmt:filesystem.obj
 0001:00167528       ___std_fs_convert_narrow_to_wide@20 00568528 f   libcpmt:filesystem.obj
 0001:0016755c       ___std_fs_convert_wide_to_narrow_replace_chars@20 0056855c f   libcpmt:filesystem.obj
 0001:001675cb       ___std_fs_create_directory@4 005685cb f   libcpmt:filesystem.obj
 0001:0016762a       ___std_fs_get_stats@16     0056862a f   libcpmt:filesystem.obj
 0001:00167819       ___std_fs_open_handle@16   00568819 f   libcpmt:filesystem.obj
 0001:0016784d       ___std_fs_rename@8         0056884d f   libcpmt:filesystem.obj
 0001:00167870       ___std_get_string_size_without_trailing_whitespace@8 00568870 f   libcpmt:syserror_import_lib.obj
 0001:00167894       ___std_system_error_allocate_message@8 00568894 f   libcpmt:syserror_import_lib.obj
 0001:001678bd       ___std_system_error_deallocate_message@4 005688bd f   libcpmt:syserror_import_lib.obj
 0001:001678c3       ?_Random_device@std@@YAIXZ 005688c3 f   libcpmt:xrngdev.obj
 0001:001678e5       ??1_Init_atexit@@QAE@XZ    005688e5 f i libcpmt:iosptrs.obj
 0001:0016794d       ?_Atexit@@YAXP6AXXZ@Z      0056894d f   libcpmt:iosptrs.obj
 0001:0016797c       __Mtxdst                   0056897c f   libcpmt:xmtx.obj
 0001:0016798a       __Mtxinit                  0056898a f   libcpmt:xmtx.obj
 0001:0016799f       __Mtxlock                  0056899f f   libcpmt:xmtx.obj
 0001:001679ad       __Mtxunlock                005689ad f   libcpmt:xmtx.obj
 0001:001679bb       ??1?$__crt_scoped_stack_ptr@_W@@QAE@XZ 005689bb f i libcpmt:StlLCMapStringA.obj
 0001:001679d4       ___crtLCMapStringA         005689d4 f   libcpmt:StlLCMapStringA.obj
 0001:00167ba0       __freea_crt                00568ba0 f i libcpmt:StlLCMapStringA.obj
 0001:00167bbe       ??0CAtlBaseModule@ATL@@QAE@XZ 00568bbe f   atls:atlbase.obj
 0001:00167c11       ??0_ATL_BASE_MODULE70@ATL@@QAE@XZ 00568c11 f i atls:atlbase.obj
 0001:00167c34       ??1CAtlBaseModule@ATL@@QAE@XZ 00568c34 f   atls:atlbase.obj
 0001:00167c4a       ??A?$CSimpleArray@PAUHINSTANCE__@@V?$CSimpleArrayEqualHelper@PAUHINSTANCE__@@@ATL@@@ATL@@QAEAAPAUHINSTANCE__@@H@Z 00568c4a f i atls:atlbase.obj
 0001:00167c6f       ?GetHInstanceAt@CAtlBaseModule@ATL@@QAEPAUHINSTANCE__@@H@Z 00568c6f f   atls:atlbase.obj
 0001:00167cb4       ?RemoveAll@?$CSimpleArray@PAUHINSTANCE__@@V?$CSimpleArrayEqualHelper@PAUHINSTANCE__@@@ATL@@@ATL@@QAEXXZ 00568cb4 f i atls:atlbase.obj
 0001:00167cd1       @__security_check_cookie@4 00568cd1 f   LIBCMT:secchk.obj
 0001:00167cdf       ??2@YAPAXI@Z               00568cdf f   LIBCMT:new_scalar.obj
 0001:00167d0f       ??3@YAXPAXI@Z              00568d0f f   LIBCMT:delete_scalar_size.obj
 0001:00167d61       ___scrt_acquire_startup_lock 00568d61 f   LIBCMT:utility.obj
 0001:00167d93       ___scrt_initialize_crt     00568d93 f   LIBCMT:utility.obj
 0001:00167dcc       ___scrt_initialize_onexit_tables 00568dcc f   LIBCMT:utility.obj
 0001:00167e53       ___scrt_is_nonwritable_in_current_image 00568e53 f   LIBCMT:utility.obj
 0001:00167ee7       ___scrt_release_startup_lock 00568ee7 f   LIBCMT:utility.obj
 0001:00167f04       ___scrt_uninitialize_crt   00568f04 f   LIBCMT:utility.obj
 0001:00167f2c       __onexit                   00568f2c f   LIBCMT:utility.obj
 0001:00167f59       _atexit                    00568f59 f   LIBCMT:utility.obj
 0001:00167f6e       ??_Gtype_info@@UAEPAXI@Z   00568f6e f i LIBCMT:std_type_info_static.obj
 0001:00167f6e       ??_Etype_info@@UAEPAXI@Z   00568f6e f i LIBCMT:std_type_info_static.obj
 0001:00167f91       ??_U@YAPAXI@Z              00568f91 f   LIBCMT:new_array.obj
 0001:00167f9a       ??_V@YAXPAX@Z              00568f9a f   LIBCMT:delete_array.obj
 0001:00168064       __Init_thread_footer       00569064 f   LIBCMT:thread_safe_statics.obj
 0001:001680ae       __Init_thread_header       005690ae f   LIBCMT:thread_safe_statics.obj
 0001:00168100       __Init_thread_notify       00569100 f   LIBCMT:thread_safe_statics.obj
 0001:00168136       __Init_thread_wait         00569136 f   LIBCMT:thread_safe_statics.obj
 0001:00168184       ??_L@YGXPAXIIP6EX0@Z1@Z    00569184 f   LIBCMT:ehvecctr.obj
 0001:001681f8       ??_M@YGXPAXIIP6EX0@Z@Z     005691f8 f   LIBCMT:ehvecdtr.obj
 0001:0016827d       ?__ArrayUnwind@@YGXPAXIIP6EX0@Z@Z 0056927d f   LIBCMT:ehvecdtr.obj
 0001:0016830d       ??_V@YAXPAXI@Z             0056930d f   LIBCMT:delete_array_size.obj
 0001:0016831b       ___raise_securityfailure   0056931b f   LIBCMT:gs_report.obj
 0001:00168343       ___report_gsfailure        00569343 f   LIBCMT:gs_report.obj
 0001:0016843d       ___report_rangecheckfailure 0056943d f   LIBCMT:gs_report.obj
 0001:00168449       ___report_securityfailure  00569449 f   LIBCMT:gs_report.obj
 0001:00168759       _WinMainCRTStartup         00569759 f   LIBCMT:exe_winmain.obj
 0001:00168763       __EH_epilog3               00569763 f   LIBCMT:ehprolg3.obj
 0001:00168777       __EH_epilog3_GS            00569777 f   LIBCMT:ehprolg3.obj
 0001:00168786       __EH_prolog3               00569786 f   LIBCMT:ehprolg3.obj
 0001:001687b9       __EH_prolog3_GS            005697b9 f   LIBCMT:ehprolg3.obj
 0001:001687ef       __EH_prolog3_catch         005697ef f   LIBCMT:ehprolg3.obj
 0001:00168830       __alloca_probe_16          00569830 f   LIBCMT:alloca16.obj
 0001:00168846       __alloca_probe_8           00569846     LIBCMT:alloca16.obj
 0001:00168860       __allmul                   00569860 f   LIBCMT:llmul.obj
 0001:001688a0       __aulldiv                  005698a0 f   LIBCMT:ulldiv.obj
 0001:00168908       ___isa_available_init      00569908 f   LIBCMT:cpu_disp.obj
 0001:00168ad9       __get_startup_argv_mode    00569ad9 f   LIBCMT:argv_mode.obj
 0001:00168add       ___scrt_is_ucrt_dll_in_use 00569add f   LIBCMT:ucrt_detection.obj
 0001:00168ae9       ___scrt_fastfail           00569ae9 f   LIBCMT:utility_desktop.obj
 0001:00168c04       ___scrt_get_show_window_mode 00569c04 f   LIBCMT:utility_desktop.obj
 0001:00168c35       ___scrt_initialize_mta     00569c35 f   LIBCMT:utility_desktop.obj
 0001:00168c3a       ___scrt_is_managed_app     00569c3a f   LIBCMT:utility_desktop.obj
 0001:00168c7d       ___scrt_set_unhandled_exception_filter 00569c7d f   LIBCMT:utility_desktop.obj
 0001:00168c89       ___scrt_unhandled_exception_filter@4 00569c89 f   LIBCMT:utility_desktop.obj
 0001:00168cdf       __crt_debugger_hook        00569cdf f   LIBCMT:utility_desktop.obj
 0001:00168cf0       __SEH_prolog4              00569cf0 f   LIBCMT:sehprolg4.obj
 0001:00168d82       ___security_init_cookie    00569d82 f   LIBCMT:gs_support.obj
 0001:00168dcd       __get_startup_file_mode    00569dcd f   LIBCMT:file_mode.obj
 0001:00168dd3       ?__scrt_initialize_type_info@@YAXXZ 00569dd3 f   LIBCMT:tncleanup.obj
 0001:00168ddf       __initialize_default_precision 00569ddf f   LIBCMT:default_precision.obj
 0001:00168e00       ___scrt_initialize_default_local_stdio_options 00569e00 f   LIBCMT:default_local_stdio_options.obj
 0001:00168e1d       ___scrt_is_user_matherr_present 00569e1d f   LIBCMT:matherr_detection.obj
 0001:00168e29       ___scrt_get_dyn_tls_init_callback 00569e29 f   LIBCMT:dyn_tls_init.obj
 0001:00168e2f       ___scrt_get_dyn_tls_dtor_callback 00569e2f f   LIBCMT:dyn_tls_dtor.obj
 0001:00168e35       __RTC_Initialize           00569e35 f   LIBCMT:initsect.obj
 0001:00168e61       __RTC_Terminate            00569e61 f   LIBCMT:initsect.obj
 0001:00168e90       __alloca_probe             00569e90 f   LIBCMT:chkstk.obj
 0001:00168e90       __chkstk                   00569e90 f   LIBCMT:chkstk.obj
 0001:00168ebb       ?GetRangeOfTrysToCheck@__FrameHandler3@@SA?AU?$pair@Viterator@TryBlockMap@__FrameHandler3@@V123@@std@@AAVTryBlockMap@1@HPAXPBU_s_FuncInfo@@H@Z 00569ebb f   libvcruntime:trnsctrl.obj
 0001:00168f2b       ?_CallCatchBlock2@@YAPAXPAUEHRegistrationNode@@PBU_s_FuncInfo@@PAXHK@Z 00569f2b f   libvcruntime:trnsctrl.obj
 0001:00168f88       ?_CallSETranslator@@YAHPAUEHExceptionRecord@@PAUEHRegistrationNode@@PAX2PBU_s_FuncInfo@@H1@Z 00569f88 f   libvcruntime:trnsctrl.obj
 0001:0016907e       ?_JumpToContinuation@@YGXPAXPAUEHRegistrationNode@@@Z 0056a07e f   libvcruntime:trnsctrl.obj
 0001:001690ae       ?_UnwindNestedFrames@@YGXPAUEHRegistrationNode@@PAUEHExceptionRecord@@@Z 0056a0ae f   libvcruntime:trnsctrl.obj
 0001:00169101       __CatchGuardHandler        0056a101 f   libvcruntime:trnsctrl.obj
 0001:00169132       __CreateFrameInfo          0056a132 f   libvcruntime:trnsctrl.obj
 0001:00169156       __FindAndUnlinkFrame       0056a156 f   libvcruntime:trnsctrl.obj
 0001:0016919e       __TranslatorGuardHandler   0056a19e f   libvcruntime:trnsctrl.obj
 0001:0016923b       ___CxxFrameHandler3        0056a23b f   libvcruntime:trnsctrl.obj
 0001:00169271       ___DestructExceptionObject 0056a271 f   libvcruntime:ehhelpers.obj
 0001:00169312       ?_CallMemberFunction0@@YGXQAX0@Z 0056a312 f i libvcruntime:ehhelpers.obj
 0001:00169377       __IsExceptionObjectToBeDestroyed 0056a377 f   libvcruntime:ehhelpers.obj
 0001:0016939d       ___AdjustPointer           0056a39d f   libvcruntime:ehhelpers.obj
 0001:001693c2       ___FrameUnwindFilter       0056a3c2 f   libvcruntime:ehhelpers.obj
 0001:00169418       ___current_exception       0056a418 f   libvcruntime:ehhelpers.obj
 0001:00169421       ___current_exception_context 0056a421 f   libvcruntime:ehhelpers.obj
 0001:0016942a       ___std_terminate           0056a42a f   libvcruntime:ehhelpers.obj
 0001:0016942f       ___std_exception_copy      0056a42f f   libvcruntime:std_exception.obj
 0001:00169492       ___std_exception_destroy   0056a492 f   libvcruntime:std_exception.obj
 0001:001694b1       __get_purecall_handler     0056a4b1 f   libvcruntime:purevirt.obj
 0001:001694b7       __purecall                 0056a4b7 f   libvcruntime:purevirt.obj
 0001:001694e0       _strstr                    0056a4e0 f   libvcruntime:strstr.obj
 0001:00169790       __except_handler4          0056a790 f   libvcruntime:chandler4.obj
 0001:001698ee       __CxxThrowException@8      0056a8ee f   libvcruntime:throw.obj
 0001:0016995a       ___uncaught_exception      0056a95a f   libvcruntime:uncaught_exception.obj
 0001:00169970       _memcpy                    0056a970 f   libvcruntime:memcpy.obj
 0001:00169970       _memmove                   0056a970 f   libvcruntime:memmove.obj
 0001:00169ef0       _memset                    0056aef0 f   libvcruntime:memset.obj
 0001:0016a050       _memchr                    0056b050 f   libvcruntime:memchr.obj
 0001:0016a100       _memcmp                    0056b100 f   libvcruntime:memcmp.obj
 0001:0016b010       _strchr                    0056c010 f   libvcruntime:strchr.obj
 0001:0016b07e       ___from_strstr_to_strchr   0056c07e     libvcruntime:strchr.obj
 0001:0016b13b       _longjmp                   0056c13b f   libvcruntime:longjmpc.obj
 0001:0016b150       _strrchr                   0056c150 f   libvcruntime:strrchr.obj
 0001:0016b287       ___vcrt_initialize         0056c287 f   libvcruntime:initialization.obj
 0001:0016b2a6       ___vcrt_uninitialize       0056c2a6 f   libvcruntime:initialization.obj
 0001:0016b2bd       ___std_type_info_compare   0056c2bd f   libvcruntime:std_type_info.obj
 0001:0016b2f9       ___vcrt_freefls@4          0056c2f9 f   libvcruntime:per_thread_data.obj
 0001:0016b315       ___vcrt_getptd             0056c315 f   libvcruntime:per_thread_data.obj
 0001:0016b323       ___vcrt_getptd_noexit      0056c323 f   libvcruntime:per_thread_data.obj
 0001:0016b3b5       ___vcrt_getptd_noinit      0056c3b5 f   libvcruntime:per_thread_data.obj
 0001:0016b3ec       ___vcrt_initialize_ptd     0056c3ec f   libvcruntime:per_thread_data.obj
 0001:0016b41f       ___vcrt_uninitialize_ptd   0056c41f f   libvcruntime:per_thread_data.obj
 0001:0016bb71       ??$TypeMatchHelper@V__FrameHandler3@@@@YAHPBU_s_HandlerType@@PBU_s_CatchableType@@PBU_s_ThrowInfo@@@Z 0056cb71 f i libvcruntime:frame.obj
 0001:0016bbff       ??$__InternalCxxFrameHandler@V__FrameHandler3@@@@YA?AW4_EXCEPTION_DISPOSITION@@PAUEHExceptionRecord@@PAUEHRegistrationNode@@PAU_CONTEXT@@PAXPBU_s_FuncInfo@@H1E@Z 0056cbff f i libvcruntime:frame.obj
 0001:0016bd01       ??0bad_exception@std@@QAE@ABV01@@Z 0056cd01 f i libvcruntime:frame.obj
 0001:0016bd1c       ??0bad_exception@std@@QAE@XZ 0056cd1c f i libvcruntime:frame.obj
 0001:0016bd34       ??8type_info@@QBE_NABV0@@Z 0056cd34 f i libvcruntime:frame.obj
 0001:0016bfa0       ?FrameUnwindToEmptyState@__FrameHandler3@@SAXPAUEHRegistrationNode@@PAXPBU_s_FuncInfo@@@Z 0056cfa0 f   libvcruntime:frame.obj
 0001:0016bfb8       ?FrameUnwindToState@__FrameHandler3@@SAXPAUEHRegistrationNode@@PAXPBU_s_FuncInfo@@H@Z 0056cfb8 f   libvcruntime:frame.obj
 0001:0016c13a       ?_CallMemberFunction1@@YGXQAX00@Z 0056d13a f i libvcruntime:frame.obj
 0001:0016c14a       ?_CallMemberFunction2@@YGXQAX00H@Z 0056d14a f i libvcruntime:frame.obj
 0001:0016c15d       ?getESTypes@__FrameHandler3@@SAPBU_s_ESTypeList@@PBU_s_FuncInfo@@@Z 0056d15d f i libvcruntime:frame.obj
 0001:0016c170       __CallSettingFrame@12      0056d170 f   libvcruntime:lowhelpr.obj
 0001:0016c197       __NLG_Return               0056d197     libvcruntime:lowhelpr.obj
 0001:0016c1bc       ___except_validate_context_record 0056d1bc f   libvcruntime:jbcxrval.obj
 0001:0016c1ec       ___except_validate_jump_buffer 0056d1ec f   libvcruntime:jbcxrval.obj
 0001:0016c220       __local_unwind4            0056d220 f   libvcruntime:exsup4.obj
 0001:0016c310       @_EH4_CallFilterFunc@8     0056d310 f   libvcruntime:exsup4.obj
 0001:0016c330       @_EH4_TransferToHandler@8  0056d330 f   libvcruntime:exsup4.obj
 0001:0016c350       @_EH4_GlobalUnwind2@8      0056d350 f   libvcruntime:exsup4.obj
 0001:0016c370       @_EH4_LocalUnwind@16       0056d370 f   libvcruntime:exsup4.obj
 0001:0016c390       ___longjmp_internal        0056d390 f   libvcruntime:longjmp.obj
 0001:0016c458       ___vcrt_initialize_locks   0056d458 f   libvcruntime:locks.obj
 0001:0016c494       ___vcrt_uninitialize_locks 0056d494 f   libvcruntime:locks.obj
 0001:0016c5a6       ___vcrt_FlsAlloc           0056d5a6 f   libvcruntime:winapi_downlevel.obj
 0001:0016c5e1       ___vcrt_FlsFree            0056d5e1 f   libvcruntime:winapi_downlevel.obj
 0001:0016c61c       ___vcrt_FlsGetValue        0056d61c f   libvcruntime:winapi_downlevel.obj
 0001:0016c657       ___vcrt_FlsSetValue        0056d657 f   libvcruntime:winapi_downlevel.obj
 0001:0016c695       ___vcrt_InitializeCriticalSectionEx 0056d695 f   libvcruntime:winapi_downlevel.obj
 0001:0016c6dc       _unexpected                0056d6dc f   libvcruntime:unexpected.obj
 0001:0016c6f9       ?GetCurrentState@__FrameHandler3@@SAHPAUEHRegistrationNode@@PAXPBU_s_FuncInfo@@@Z 0056d6f9 f   libvcruntime:ehstate.obj
 0001:0016c716       ?SetState@__FrameHandler3@@SAXPAUEHRegistrationNode@@PBU_s_FuncInfo@@H@Z 0056d716 f   libvcruntime:ehstate.obj
 0001:0016c780       __local_unwind2            0056d780 f   libvcruntime:exsup.obj
 0001:0016c820       __NLG_Notify1              0056d820 f   libvcruntime:exsup.obj
 0001:0016c830       __NLG_Notify               0056d830 f   libvcruntime:exsup.obj
 0001:0016c847       __NLG_Dispatch             0056d847     libvcruntime:exsup.obj
 0001:0016c847       __NLG_Dispatch2            0056d847     libvcruntime:exsup.obj
 0001:0016c850       __NLG_Call                 0056d850 f   libvcruntime:exsup.obj
 0001:0016c852       __NLG_Return2              0056d852     libvcruntime:exsup.obj
 0001:0016c853       __rt_probe_read4@4         0056d853 f   libvcruntime:sehsupp.obj
 0001:0016c958       __fsopen                   0056d958 f   libucrt:fopen.obj
 0001:0016c963       _fopen                     0056d963 f   libucrt:fopen.obj
 0001:0016c97a       _fopen_s                   0056d97a f   libucrt:fopen.obj
 0001:0016c9c1       _malloc                    0056d9c1 f   libucrt:malloc.obj
 0001:0016c9cc       __fclose_nolock            0056d9cc f   libucrt:fclose.obj
 0001:0016ca43       _fclose                    0056da43 f   libucrt:fclose.obj
 0001:0016cac7       __fread_nolock_s           0056dac7 f   libucrt:fread.obj
 0001:0016ccad       _fread                     0056dcad f   libucrt:fread.obj
 0001:0016ccca       _fread_s                   0056dcca f   libucrt:fread.obj
 0001:0016cde8       _free                      0056dde8 f   libucrt:free.obj
 0001:0016ce03       _strcpy_s                  0056de03 f   libucrt:strcpy_s.obj
 0001:0016ce5d       ___acrt_call_reportfault   0056de5d f   libucrt:invalid_parameter.obj
 0001:0016cf96       ___acrt_initialize_invalid_parameter_handler 0056df96 f   libucrt:invalid_parameter.obj
 0001:0016cfa5       __invalid_parameter        0056dfa5 f   libucrt:invalid_parameter.obj
 0001:0016d009       __invalid_parameter_noinfo 0056e009 f   libucrt:invalid_parameter.obj
 0001:0016d019       __invalid_parameter_noinfo_noreturn 0056e019 f   libucrt:invalid_parameter.obj
 0001:0016d036       __invoke_watson            0056e036 f   libucrt:invalid_parameter.obj
 0001:0016d06a       ___acrt_errno_from_os_error 0056e06a f   libucrt:errno.obj
 0001:0016d0ad       ___acrt_errno_map_os_error 0056e0ad f   libucrt:errno.obj
 0001:0016d0d0       ___doserrno                0056e0d0 f   libucrt:errno.obj
 0001:0016d0e3       __errno                    0056e0e3 f   libucrt:errno.obj
 0001:0016d74f       ??$count@D@formatting_buffer@__crt_stdio_output@@QBEIXZ 0056e74f f i libucrt:output.obj
 0001:0016d767       ??$count@_W@formatting_buffer@__crt_stdio_output@@QBEIXZ 0056e767 f i libucrt:output.obj
 0001:0016d780       ??$ensure_buffer_is_big_enough@D@formatting_buffer@__crt_stdio_output@@QAE_NI@Z 0056e780 f i libucrt:output.obj
 0001:0016d7fd       ??$ensure_buffer_is_big_enough@_W@formatting_buffer@__crt_stdio_output@@QAE_NI@Z 0056e7fd f i libucrt:output.obj
 0001:0016d87b       ??$is_wide_character_specifier@D@__crt_stdio_output@@YA_N_KDW4length_modifier@0@@Z 0056e87b f i libucrt:output.obj
 0001:0016d8ac       ??$is_wide_character_specifier@_W@__crt_stdio_output@@YA_N_K_WW4length_modifier@0@@Z 0056e8ac f i libucrt:output.obj
 0001:0016d8fa       ??$scratch_data@D@formatting_buffer@__crt_stdio_output@@QAEPADXZ 0056e8fa f i libucrt:output.obj
 0001:0016d918       ??$type_case_integer_parse_into_buffer@I@?$output_processor@DV?$string_output_adapter@D@__crt_stdio_output@@V?$standard_base@DV?$string_output_adapter@D@__crt_stdio_output@@@2@@__crt_stdio_output@@AAEXII_N@Z 0056e918 f i libucrt:output.obj
 0001:0016d918       ??$type_case_integer_parse_into_buffer@I@?$output_processor@DV?$stream_output_adapter@D@__crt_stdio_output@@V?$standard_base@DV?$stream_output_adapter@D@__crt_stdio_output@@@2@@__crt_stdio_output@@AAEXII_N@Z 0056e918 f i libucrt:output.obj
 0001:0016d918       ??$type_case_integer_parse_into_buffer@I@?$output_processor@DV?$string_output_adapter@D@__crt_stdio_output@@V?$format_validation_base@DV?$string_output_adapter@D@__crt_stdio_output@@@2@@__crt_stdio_output@@AAEXII_N@Z 0056e918 f i libucrt:output.obj
 0001:0016d98b       ??$type_case_integer_parse_into_buffer@I@?$output_processor@_WV?$string_output_adapter@_W@__crt_stdio_output@@V?$format_validation_base@_WV?$string_output_adapter@_W@__crt_stdio_output@@@2@@__crt_stdio_output@@AAEXII_N@Z 0056e98b f i libucrt:output.obj
 0001:0016da12       ??$type_case_integer_parse_into_buffer@_K@?$output_processor@DV?$stream_output_adapter@D@__crt_stdio_output@@V?$standard_base@DV?$stream_output_adapter@D@__crt_stdio_output@@@2@@__crt_stdio_output@@AAEX_KI_N@Z 0056ea12 f i libucrt:output.obj
 0001:0016da12       ??$type_case_integer_parse_into_buffer@_K@?$output_processor@DV?$string_output_adapter@D@__crt_stdio_output@@V?$standard_base@DV?$string_output_adapter@D@__crt_stdio_output@@@2@@__crt_stdio_output@@AAEX_KI_N@Z 0056ea12 f i libucrt:output.obj
 0001:0016da12       ??$type_case_integer_parse_into_buffer@_K@?$output_processor@DV?$string_output_adapter@D@__crt_stdio_output@@V?$format_validation_base@DV?$string_output_adapter@D@__crt_stdio_output@@@2@@__crt_stdio_output@@AAEX_KI_N@Z 0056ea12 f i libucrt:output.obj
 0001:0016daa0       ??$type_case_integer_parse_into_buffer@_K@?$output_processor@_WV?$string_output_adapter@_W@__crt_stdio_output@@V?$format_validation_base@_WV?$string_output_adapter@_W@__crt_stdio_output@@@2@@__crt_stdio_output@@AAEX_KI_N@Z 0056eaa0 f i libucrt:output.obj
 0001:0016db42       ??$write_multiple_characters@V?$stream_output_adapter@D@__crt_stdio_output@@D@__crt_stdio_output@@YAXABV?$stream_output_adapter@D@0@DHQAH@Z 0056eb42 f i libucrt:output.obj
 0001:0016db7d       ??$write_multiple_characters@V?$string_output_adapter@D@__crt_stdio_output@@D@__crt_stdio_output@@YAXABV?$string_output_adapter@D@0@DHQAH@Z 0056eb7d f i libucrt:output.obj
 0001:0016dba9       ??$write_multiple_characters@V?$string_output_adapter@_W@__crt_stdio_output@@D@__crt_stdio_output@@YAXABV?$string_output_adapter@_W@0@DHQAH@Z 0056eba9 f i libucrt:output.obj
 0001:0016dbda       ??0?$common_data@D@__crt_stdio_output@@IAE@XZ 0056ebda f i libucrt:output.obj
 0001:0016dc1f       ??0?$common_data@_W@__crt_stdio_output@@IAE@XZ 0056ec1f f i libucrt:output.obj
 0001:0016dc69       ??0?$output_adapter_data@DV?$string_output_adapter@D@__crt_stdio_output@@@__crt_stdio_output@@IAE@ABV?$string_output_adapter@D@1@_KQBDQAU__crt_locale_pointers@@QAD@Z 0056ec69 f i libucrt:output.obj
 0001:0016dc69       ??0?$output_adapter_data@DV?$stream_output_adapter@D@__crt_stdio_output@@@__crt_stdio_output@@IAE@ABV?$stream_output_adapter@D@1@_KQBDQAU__crt_locale_pointers@@QAD@Z 0056ec69 f i libucrt:output.obj
 0001:0016dca5       ??0?$output_adapter_data@_WV?$string_output_adapter@_W@__crt_stdio_output@@@__crt_stdio_output@@IAE@ABV?$string_output_adapter@_W@1@_KQB_WQAU__crt_locale_pointers@@QAD@Z 0056eca5 f i libucrt:output.obj
 0001:0016dce1       ??0_LocaleUpdate@@QAE@QAU__crt_locale_pointers@@@Z 0056ece1 f i libucrt:output.obj
 0001:0016dd64       ??1_LocaleUpdate@@QAE@XZ   0056ed64 f i libucrt:output.obj
 0001:0016dd74       ??1formatting_buffer@__crt_stdio_output@@QAE@XZ 0056ed74 f i libucrt:output.obj
 0001:0016dd8e       ??4?$__crt_unique_heap_ptr@DU__crt_internal_free_policy@@@@QAEAAV0@$$QAV0@@Z 0056ed8e f i libucrt:output.obj
 0001:0016de80       ?crop_zeroes@__crt_stdio_output@@YAXPADQAU__crt_locale_pointers@@@Z 0056ee80 f i libucrt:output.obj
 0001:0016df01       ?find_next_state@?$output_processor@DV?$string_output_adapter@D@__crt_stdio_output@@V?$standard_base@DV?$string_output_adapter@D@__crt_stdio_output@@@2@@__crt_stdio_output@@ABE?AW4state@2@DW432@@Z 0056ef01 f i libucrt:output.obj
 0001:0016df01       ?find_next_state@?$output_processor@DV?$stream_output_adapter@D@__crt_stdio_output@@V?$standard_base@DV?$stream_output_adapter@D@__crt_stdio_output@@@2@@__crt_stdio_output@@ABE?AW4state@2@DW432@@Z 0056ef01 f i libucrt:output.obj
 0001:0016df38       ?find_next_state@?$output_processor@DV?$string_output_adapter@D@__crt_stdio_output@@V?$format_validation_base@DV?$string_output_adapter@D@__crt_stdio_output@@@2@@__crt_stdio_output@@ABE?AW4state@2@DW432@@Z 0056ef38 f i libucrt:output.obj
 0001:0016df6f       ?find_next_state@?$output_processor@_WV?$string_output_adapter@_W@__crt_stdio_output@@V?$format_validation_base@_WV?$string_output_adapter@_W@__crt_stdio_output@@@2@@__crt_stdio_output@@ABE?AW4state@2@_WW432@@Z 0056ef6f f i libucrt:output.obj
 0001:0016dfb0       ?force_decimal_point@__crt_stdio_output@@YAXPADQAU__crt_locale_pointers@@@Z 0056efb0 f i libucrt:output.obj
 0001:0016e015       ?parse_int_from_format_string@?$output_processor@DV?$string_output_adapter@D@__crt_stdio_output@@V?$format_validation_base@DV?$string_output_adapter@D@__crt_stdio_output@@@2@@__crt_stdio_output@@AAE_NQAH@Z 0056f015 f i libucrt:output.obj
 0001:0016e015       ?parse_int_from_format_string@?$output_processor@DV?$string_output_adapter@D@__crt_stdio_output@@V?$standard_base@DV?$string_output_adapter@D@__crt_stdio_output@@@2@@__crt_stdio_output@@AAE_NQAH@Z 0056f015 f i libucrt:output.obj
 0001:0016e015       ?parse_int_from_format_string@?$output_processor@DV?$stream_output_adapter@D@__crt_stdio_output@@V?$standard_base@DV?$stream_output_adapter@D@__crt_stdio_output@@@2@@__crt_stdio_output@@AAE_NQAH@Z 0056f015 f i libucrt:output.obj
 0001:0016e089       ?parse_int_from_format_string@?$output_processor@_WV?$string_output_adapter@_W@__crt_stdio_output@@V?$format_validation_base@_WV?$string_output_adapter@_W@__crt_stdio_output@@@2@@__crt_stdio_output@@AAE_NQAH@Z 0056f089 f i libucrt:output.obj
 0001:0016e0ff       ?process@?$output_processor@DV?$stream_output_adapter@D@__crt_stdio_output@@V?$standard_base@DV?$stream_output_adapter@D@__crt_stdio_output@@@2@@__crt_stdio_output@@QAEHXZ 0056f0ff f i libucrt:output.obj
 0001:0016e213       ?process@?$output_processor@DV?$string_output_adapter@D@__crt_stdio_output@@V?$format_validation_base@DV?$string_output_adapter@D@__crt_stdio_output@@@2@@__crt_stdio_output@@QAEHXZ 0056f213 f i libucrt:output.obj
 0001:0016e337       ?process@?$output_processor@DV?$string_output_adapter@D@__crt_stdio_output@@V?$standard_base@DV?$string_output_adapter@D@__crt_stdio_output@@@2@@__crt_stdio_output@@QAEHXZ 0056f337 f i libucrt:output.obj
 0001:0016e44b       ?process@?$output_processor@_WV?$string_output_adapter@_W@__crt_stdio_output@@V?$format_validation_base@_WV?$string_output_adapter@_W@__crt_stdio_output@@@2@@__crt_stdio_output@@QAEHXZ 0056f44b f i libucrt:output.obj
 0001:0016e573       ?state_case_flag@?$output_processor@DV?$string_output_adapter@D@__crt_stdio_output@@V?$format_validation_base@DV?$string_output_adapter@D@__crt_stdio_output@@@2@@__crt_stdio_output@@AAE_NXZ 0056f573 f i libucrt:output.obj
 0001:0016e573       ?state_case_flag@?$output_processor@DV?$string_output_adapter@D@__crt_stdio_output@@V?$standard_base@DV?$string_output_adapter@D@__crt_stdio_output@@@2@@__crt_stdio_output@@AAE_NXZ 0056f573 f i libucrt:output.obj
 0001:0016e573       ?state_case_flag@?$output_processor@DV?$stream_output_adapter@D@__crt_stdio_output@@V?$standard_base@DV?$stream_output_adapter@D@__crt_stdio_output@@@2@@__crt_stdio_output@@AAE_NXZ 0056f573 f i libucrt:output.obj
 0001:0016e5b0       ?state_case_flag@?$output_processor@_WV?$string_output_adapter@_W@__crt_stdio_output@@V?$format_validation_base@_WV?$string_output_adapter@_W@__crt_stdio_output@@@2@@__crt_stdio_output@@AAE_NXZ 0056f5b0 f i libucrt:output.obj
 0001:0016e5ed       ?state_case_normal@?$output_processor@DV?$stream_output_adapter@D@__crt_stdio_output@@V?$standard_base@DV?$stream_output_adapter@D@__crt_stdio_output@@@2@@__crt_stdio_output@@AAE_NXZ 0056f5ed f i libucrt:output.obj
 0001:0016e60c       ?state_case_normal@?$output_processor@DV?$string_output_adapter@D@__crt_stdio_output@@V?$standard_base@DV?$string_output_adapter@D@__crt_stdio_output@@@2@@__crt_stdio_output@@AAE_NXZ 0056f60c f i libucrt:output.obj
 0001:0016e60c       ?state_case_normal@?$output_processor@DV?$string_output_adapter@D@__crt_stdio_output@@V?$format_validation_base@DV?$string_output_adapter@D@__crt_stdio_output@@@2@@__crt_stdio_output@@AAE_NXZ 0056f60c f i libucrt:output.obj
 0001:0016e62b       ?state_case_normal@?$output_processor@_WV?$string_output_adapter@_W@__crt_stdio_output@@V?$format_validation_base@_WV?$string_output_adapter@_W@__crt_stdio_output@@@2@@__crt_stdio_output@@AAE_NXZ 0056f62b f i libucrt:output.obj
 0001:0016e64a       ?state_case_normal_common@?$output_processor@DV?$stream_output_adapter@D@__crt_stdio_output@@V?$standard_base@DV?$stream_output_adapter@D@__crt_stdio_output@@@2@@__crt_stdio_output@@AAE_NXZ 0056f64a f i libucrt:output.obj
 0001:0016e684       ?state_case_normal_common@?$output_processor@DV?$string_output_adapter@D@__crt_stdio_output@@V?$standard_base@DV?$string_output_adapter@D@__crt_stdio_output@@@2@@__crt_stdio_output@@AAE_NXZ 0056f684 f i libucrt:output.obj
 0001:0016e684       ?state_case_normal_common@?$output_processor@DV?$string_output_adapter@D@__crt_stdio_output@@V?$format_validation_base@DV?$string_output_adapter@D@__crt_stdio_output@@@2@@__crt_stdio_output@@AAE_NXZ 0056f684 f i libucrt:output.obj
 0001:0016e6ae       ?state_case_normal_common@?$output_processor@_WV?$string_output_adapter@_W@__crt_stdio_output@@V?$format_validation_base@_WV?$string_output_adapter@_W@__crt_stdio_output@@@2@@__crt_stdio_output@@AAE_NXZ 0056f6ae f i libucrt:output.obj
 0001:0016e6c9       ?state_case_normal_tchar@?$output_processor@DV?$stream_output_adapter@D@__crt_stdio_output@@V?$standard_base@DV?$stream_output_adapter@D@__crt_stdio_output@@@2@@__crt_stdio_output@@AAE_ND@Z 0056f6c9 f i libucrt:output.obj
 0001:0016e736       ?state_case_normal_tchar@?$output_processor@DV?$string_output_adapter@D@__crt_stdio_output@@V?$standard_base@DV?$string_output_adapter@D@__crt_stdio_output@@@2@@__crt_stdio_output@@AAE_ND@Z 0056f736 f i libucrt:output.obj
 0001:0016e736       ?state_case_normal_tchar@?$output_processor@DV?$string_output_adapter@D@__crt_stdio_output@@V?$format_validation_base@DV?$string_output_adapter@D@__crt_stdio_output@@@2@@__crt_stdio_output@@AAE_ND@Z 0056f736 f i libucrt:output.obj
 0001:0016e79a       ?state_case_precision@?$output_processor@DV?$stream_output_adapter@D@__crt_stdio_output@@V?$standard_base@DV?$stream_output_adapter@D@__crt_stdio_output@@@2@@__crt_stdio_output@@AAE_NXZ 0056f79a f i libucrt:output.obj
 0001:0016e79a       ?state_case_precision@?$output_processor@DV?$string_output_adapter@D@__crt_stdio_output@@V?$format_validation_base@DV?$string_output_adapter@D@__crt_stdio_output@@@2@@__crt_stdio_output@@AAE_NXZ 0056f79a f i libucrt:output.obj
 0001:0016e79a       ?state_case_precision@?$output_processor@DV?$string_output_adapter@D@__crt_stdio_output@@V?$standard_base@DV?$string_output_adapter@D@__crt_stdio_output@@@2@@__crt_stdio_output@@AAE_NXZ 0056f79a f i libucrt:output.obj
 0001:0016e7c0       ?state_case_precision@?$output_processor@_WV?$string_output_adapter@_W@__crt_stdio_output@@V?$format_validation_base@_WV?$string_output_adapter@_W@__crt_stdio_output@@@2@@__crt_stdio_output@@AAE_NXZ 0056f7c0 f i libucrt:output.obj
 0001:0016e7e7       ?state_case_size@?$output_processor@DV?$stream_output_adapter@D@__crt_stdio_output@@V?$standard_base@DV?$stream_output_adapter@D@__crt_stdio_output@@@2@@__crt_stdio_output@@AAE_NXZ 0056f7e7 f i libucrt:output.obj
 0001:0016e935       ?state_case_size@?$output_processor@DV?$string_output_adapter@D@__crt_stdio_output@@V?$standard_base@DV?$string_output_adapter@D@__crt_stdio_output@@@2@@__crt_stdio_output@@AAE_NXZ 0056f935 f i libucrt:output.obj
 0001:0016e935       ?state_case_size@?$output_processor@DV?$string_output_adapter@D@__crt_stdio_output@@V?$format_validation_base@DV?$string_output_adapter@D@__crt_stdio_output@@@2@@__crt_stdio_output@@AAE_NXZ 0056f935 f i libucrt:output.obj
 0001:0016ea83       ?state_case_size@?$output_processor@_WV?$string_output_adapter@_W@__crt_stdio_output@@V?$format_validation_base@_WV?$string_output_adapter@_W@__crt_stdio_output@@@2@@__crt_stdio_output@@AAE_NXZ 0056fa83 f i libucrt:output.obj
 0001:0016ebfb       ?state_case_type@?$output_processor@DV?$stream_output_adapter@D@__crt_stdio_output@@V?$standard_base@DV?$stream_output_adapter@D@__crt_stdio_output@@@2@@__crt_stdio_output@@AAE_NXZ 0056fbfb f i libucrt:output.obj
 0001:0016ee2d       ?state_case_type@?$output_processor@DV?$string_output_adapter@D@__crt_stdio_output@@V?$format_validation_base@DV?$string_output_adapter@D@__crt_stdio_output@@@2@@__crt_stdio_output@@AAE_NXZ 0056fe2d f i libucrt:output.obj
 0001:0016ee2d       ?state_case_type@?$output_processor@DV?$string_output_adapter@D@__crt_stdio_output@@V?$standard_base@DV?$string_output_adapter@D@__crt_stdio_output@@@2@@__crt_stdio_output@@AAE_NXZ 0056fe2d f i libucrt:output.obj
 0001:0016f05f       ?state_case_type@?$output_processor@_WV?$string_output_adapter@_W@__crt_stdio_output@@V?$format_validation_base@_WV?$string_output_adapter@_W@__crt_stdio_output@@@2@@__crt_stdio_output@@AAE_NXZ 0057005f f i libucrt:output.obj
 0001:0016f2bc       ?state_case_width@?$output_processor@DV?$string_output_adapter@D@__crt_stdio_output@@V?$standard_base@DV?$string_output_adapter@D@__crt_stdio_output@@@2@@__crt_stdio_output@@AAE_NXZ 005702bc f i libucrt:output.obj
 0001:0016f2bc       ?state_case_width@?$output_processor@DV?$string_output_adapter@D@__crt_stdio_output@@V?$format_validation_base@DV?$string_output_adapter@D@__crt_stdio_output@@@2@@__crt_stdio_output@@AAE_NXZ 005702bc f i libucrt:output.obj
 0001:0016f2bc       ?state_case_width@?$output_processor@DV?$stream_output_adapter@D@__crt_stdio_output@@V?$standard_base@DV?$stream_output_adapter@D@__crt_stdio_output@@@2@@__crt_stdio_output@@AAE_NXZ 005702bc f i libucrt:output.obj
 0001:0016f2e7       ?state_case_width@?$output_processor@_WV?$string_output_adapter@_W@__crt_stdio_output@@V?$format_validation_base@_WV?$string_output_adapter@_W@__crt_stdio_output@@@2@@__crt_stdio_output@@AAE_NXZ 005702e7 f i libucrt:output.obj
 0001:0016f320       ?to_integer_size@__crt_stdio_output@@YAIW4length_modifier@1@@Z 00570320 f i libucrt:output.obj
 0001:0016f37c       ?type_case_Z@?$output_processor@DV?$string_output_adapter@D@__crt_stdio_output@@V?$format_validation_base@DV?$string_output_adapter@D@__crt_stdio_output@@@2@@__crt_stdio_output@@AAE_NXZ 0057037c f i libucrt:output.obj
 0001:0016f37c       ?type_case_Z@?$output_processor@DV?$string_output_adapter@D@__crt_stdio_output@@V?$standard_base@DV?$string_output_adapter@D@__crt_stdio_output@@@2@@__crt_stdio_output@@AAE_NXZ 0057037c f i libucrt:output.obj
 0001:0016f37c       ?type_case_Z@?$output_processor@DV?$stream_output_adapter@D@__crt_stdio_output@@V?$standard_base@DV?$stream_output_adapter@D@__crt_stdio_output@@@2@@__crt_stdio_output@@AAE_NXZ 0057037c f i libucrt:output.obj
 0001:0016f3d6       ?type_case_Z@?$output_processor@_WV?$string_output_adapter@_W@__crt_stdio_output@@V?$format_validation_base@_WV?$string_output_adapter@_W@__crt_stdio_output@@@2@@__crt_stdio_output@@AAE_NXZ 005703d6 f i libucrt:output.obj
 0001:0016f430       ?type_case_a@?$output_processor@DV?$stream_output_adapter@D@__crt_stdio_output@@V?$standard_base@DV?$stream_output_adapter@D@__crt_stdio_output@@@2@@__crt_stdio_output@@AAE_NXZ 00570430 f i libucrt:output.obj
 0001:0016f430       ?type_case_a@?$output_processor@DV?$string_output_adapter@D@__crt_stdio_output@@V?$standard_base@DV?$string_output_adapter@D@__crt_stdio_output@@@2@@__crt_stdio_output@@AAE_NXZ 00570430 f i libucrt:output.obj
 0001:0016f430       ?type_case_a@?$output_processor@DV?$string_output_adapter@D@__crt_stdio_output@@V?$format_validation_base@DV?$string_output_adapter@D@__crt_stdio_output@@@2@@__crt_stdio_output@@AAE_NXZ 00570430 f i libucrt:output.obj
 0001:0016f581       ?type_case_a@?$output_processor@_WV?$string_output_adapter@_W@__crt_stdio_output@@V?$format_validation_base@_WV?$string_output_adapter@_W@__crt_stdio_output@@@2@@__crt_stdio_output@@AAE_NXZ 00570581 f i libucrt:output.obj
 0001:0016f6e8       ?type_case_c_tchar@?$output_processor@DV?$string_output_adapter@D@__crt_stdio_output@@V?$format_validation_base@DV?$string_output_adapter@D@__crt_stdio_output@@@2@@__crt_stdio_output@@AAE_ND@Z 005706e8 f i libucrt:output.obj
 0001:0016f6e8       ?type_case_c_tchar@?$output_processor@DV?$string_output_adapter@D@__crt_stdio_output@@V?$standard_base@DV?$string_output_adapter@D@__crt_stdio_output@@@2@@__crt_stdio_output@@AAE_ND@Z 005706e8 f i libucrt:output.obj
 0001:0016f6e8       ?type_case_c_tchar@?$output_processor@DV?$stream_output_adapter@D@__crt_stdio_output@@V?$standard_base@DV?$stream_output_adapter@D@__crt_stdio_output@@@2@@__crt_stdio_output@@AAE_ND@Z 005706e8 f i libucrt:output.obj
 0001:0016f77b       ?type_case_c_tchar@?$output_processor@_WV?$string_output_adapter@_W@__crt_stdio_output@@V?$format_validation_base@_WV?$string_output_adapter@_W@__crt_stdio_output@@@2@@__crt_stdio_output@@AAE_N_W@Z 0057077b f i libucrt:output.obj
 0001:0016f811       ?type_case_integer@?$output_processor@DV?$string_output_adapter@D@__crt_stdio_output@@V?$format_validation_base@DV?$string_output_adapter@D@__crt_stdio_output@@@2@@__crt_stdio_output@@AAE_NI_N@Z 00570811 f i libucrt:output.obj
 0001:0016f811       ?type_case_integer@?$output_processor@DV?$string_output_adapter@D@__crt_stdio_output@@V?$standard_base@DV?$string_output_adapter@D@__crt_stdio_output@@@2@@__crt_stdio_output@@AAE_NI_N@Z 00570811 f i libucrt:output.obj
 0001:0016f811       ?type_case_integer@?$output_processor@DV?$stream_output_adapter@D@__crt_stdio_output@@V?$standard_base@DV?$stream_output_adapter@D@__crt_stdio_output@@@2@@__crt_stdio_output@@AAE_NI_N@Z 00570811 f i libucrt:output.obj
 0001:0016f962       ?type_case_integer@?$output_processor@_WV?$string_output_adapter@_W@__crt_stdio_output@@V?$format_validation_base@_WV?$string_output_adapter@_W@__crt_stdio_output@@@2@@__crt_stdio_output@@AAE_NI_N@Z 00570962 f i libucrt:output.obj
 0001:0016fab7       ?type_case_n@?$output_processor@DV?$string_output_adapter@D@__crt_stdio_output@@V?$standard_base@DV?$string_output_adapter@D@__crt_stdio_output@@@2@@__crt_stdio_output@@AAE_NXZ 00570ab7 f i libucrt:output.obj
 0001:0016fab7       ?type_case_n@?$output_processor@DV?$stream_output_adapter@D@__crt_stdio_output@@V?$standard_base@DV?$stream_output_adapter@D@__crt_stdio_output@@@2@@__crt_stdio_output@@AAE_NXZ 00570ab7 f i libucrt:output.obj
 0001:0016fab7       ?type_case_n@?$output_processor@_WV?$string_output_adapter@_W@__crt_stdio_output@@V?$format_validation_base@_WV?$string_output_adapter@_W@__crt_stdio_output@@@2@@__crt_stdio_output@@AAE_NXZ 00570ab7 f i libucrt:output.obj
 0001:0016fab7       ?type_case_n@?$output_processor@DV?$string_output_adapter@D@__crt_stdio_output@@V?$format_validation_base@DV?$string_output_adapter@D@__crt_stdio_output@@@2@@__crt_stdio_output@@AAE_NXZ 00570ab7 f i libucrt:output.obj
 0001:0016fb2b       ?type_case_o@?$output_processor@DV?$string_output_adapter@D@__crt_stdio_output@@V?$standard_base@DV?$string_output_adapter@D@__crt_stdio_output@@@2@@__crt_stdio_output@@AAE_NXZ 00570b2b f i libucrt:output.obj
 0001:0016fb2b       ?type_case_o@?$output_processor@DV?$string_output_adapter@D@__crt_stdio_output@@V?$format_validation_base@DV?$string_output_adapter@D@__crt_stdio_output@@@2@@__crt_stdio_output@@AAE_NXZ 00570b2b f i libucrt:output.obj
 0001:0016fb2b       ?type_case_o@?$output_processor@DV?$stream_output_adapter@D@__crt_stdio_output@@V?$standard_base@DV?$stream_output_adapter@D@__crt_stdio_output@@@2@@__crt_stdio_output@@AAE_NXZ 00570b2b f i libucrt:output.obj
 0001:0016fb4a       ?type_case_o@?$output_processor@_WV?$string_output_adapter@_W@__crt_stdio_output@@V?$format_validation_base@_WV?$string_output_adapter@_W@__crt_stdio_output@@@2@@__crt_stdio_output@@AAE_NXZ 00570b4a f i libucrt:output.obj
 0001:0016fb69       ?type_case_p@?$output_processor@DV?$string_output_adapter@D@__crt_stdio_output@@V?$format_validation_base@DV?$string_output_adapter@D@__crt_stdio_output@@@2@@__crt_stdio_output@@AAE_NXZ 00570b69 f i libucrt:output.obj
 0001:0016fb69       ?type_case_p@?$output_processor@DV?$string_output_adapter@D@__crt_stdio_output@@V?$standard_base@DV?$string_output_adapter@D@__crt_stdio_output@@@2@@__crt_stdio_output@@AAE_NXZ 00570b69 f i libucrt:output.obj
 0001:0016fb69       ?type_case_p@?$output_processor@DV?$stream_output_adapter@D@__crt_stdio_output@@V?$standard_base@DV?$stream_output_adapter@D@__crt_stdio_output@@@2@@__crt_stdio_output@@AAE_NXZ 00570b69 f i libucrt:output.obj
 0001:0016fb81       ?type_case_p@?$output_processor@_WV?$string_output_adapter@_W@__crt_stdio_output@@V?$format_validation_base@_WV?$string_output_adapter@_W@__crt_stdio_output@@@2@@__crt_stdio_output@@AAE_NXZ 00570b81 f i libucrt:output.obj
 0001:0016fb99       ?type_case_s@?$output_processor@DV?$string_output_adapter@D@__crt_stdio_output@@V?$format_validation_base@DV?$string_output_adapter@D@__crt_stdio_output@@@2@@__crt_stdio_output@@AAE_NXZ 00570b99 f i libucrt:output.obj
 0001:0016fb99       ?type_case_s@?$output_processor@DV?$stream_output_adapter@D@__crt_stdio_output@@V?$standard_base@DV?$stream_output_adapter@D@__crt_stdio_output@@@2@@__crt_stdio_output@@AAE_NXZ 00570b99 f i libucrt:output.obj
 0001:0016fb99       ?type_case_s@?$output_processor@DV?$string_output_adapter@D@__crt_stdio_output@@V?$standard_base@DV?$string_output_adapter@D@__crt_stdio_output@@@2@@__crt_stdio_output@@AAE_NXZ 00570b99 f i libucrt:output.obj
 0001:0016fc0a       ?type_case_s@?$output_processor@_WV?$string_output_adapter@_W@__crt_stdio_output@@V?$format_validation_base@_WV?$string_output_adapter@_W@__crt_stdio_output@@@2@@__crt_stdio_output@@AAE_NXZ 00570c0a f i libucrt:output.obj
 0001:0016fc7d       ?type_case_s_compute_narrow_string_length@?$output_processor@_WV?$string_output_adapter@_W@__crt_stdio_output@@V?$format_validation_base@_WV?$string_output_adapter@_W@__crt_stdio_output@@@2@@__crt_stdio_output@@ABEHH_W@Z 00570c7d f i libucrt:output.obj
 0001:0016fcc4       ?validate@?$stream_output_adapter@D@__crt_stdio_output@@QBE_NXZ 00570cc4 f i libucrt:output.obj
 0001:0016fce5       ?validate@?$c_string_character_source@D@__crt_strtox@@QBE_NXZ 00570ce5 f i libucrt:atox.obj
 0001:0016fce5       ?validate@?$string_output_adapter@_W@__crt_stdio_output@@QBE_NXZ 00570ce5 f i libucrt:output.obj
 0001:0016fce5       ?validate@?$c_string_character_source@_W@__crt_strtox@@QBE_NXZ 00570ce5 f i libucrt:atox.obj
 0001:0016fce5       ?validate@?$string_output_adapter@D@__crt_stdio_output@@QBE_NXZ 00570ce5 f i libucrt:output.obj
 0001:0016fd00       ?validate_and_update_state_at_end_of_format_string@?$format_validation_base@DV?$string_output_adapter@D@__crt_stdio_output@@@__crt_stdio_output@@IBE_NXZ 00570d00 f i libucrt:output.obj
 0001:0016fd00       ?validate_and_update_state_at_end_of_format_string@?$format_validation_base@_WV?$string_output_adapter@_W@__crt_stdio_output@@@__crt_stdio_output@@IBE_NXZ 00570d00 f i libucrt:output.obj
 0001:0016fd22       ?validate_stream_is_ansi_if_required@?$__acrt_stdio_char_traits@D@@SA_NQAU_iobuf@@@Z 00570d22 f i libucrt:output.obj
 0001:0016fda9       ?write_character@?$string_output_adapter@D@__crt_stdio_output@@QBE_NDQAH@Z 00570da9 f i libucrt:output.obj
 0001:0016fdeb       ?write_character@?$string_output_adapter@_W@__crt_stdio_output@@QBE_N_WQAH@Z 00570deb f i libucrt:output.obj
 0001:0016fe30       ?write_character_without_count_update@?$stream_output_adapter@D@__crt_stdio_output@@QBE_ND@Z 00570e30 f i libucrt:output.obj
 0001:0016fe66       ?write_stored_string_tchar@?$output_processor@DV?$stream_output_adapter@D@__crt_stdio_output@@V?$standard_base@DV?$stream_output_adapter@D@__crt_stdio_output@@@2@@__crt_stdio_output@@AAE_ND@Z 00570e66 f i libucrt:output.obj
 0001:0016ff0b       ?write_stored_string_tchar@?$output_processor@DV?$string_output_adapter@D@__crt_stdio_output@@V?$format_validation_base@DV?$string_output_adapter@D@__crt_stdio_output@@@2@@__crt_stdio_output@@AAE_ND@Z 00570f0b f i libucrt:output.obj
 0001:0016ff0b       ?write_stored_string_tchar@?$output_processor@DV?$string_output_adapter@D@__crt_stdio_output@@V?$standard_base@DV?$string_output_adapter@D@__crt_stdio_output@@@2@@__crt_stdio_output@@AAE_ND@Z 00570f0b f i libucrt:output.obj
 0001:0016ffb0       ?write_stored_string_tchar@?$output_processor@_WV?$string_output_adapter@_W@__crt_stdio_output@@V?$format_validation_base@_WV?$string_output_adapter@_W@__crt_stdio_output@@@2@@__crt_stdio_output@@AAE_N_W@Z 00570fb0 f i libucrt:output.obj
 0001:0017003d       ?write_string@?$stream_output_adapter@D@__crt_stdio_output@@QBEXQBDHQAHAAV__crt_deferred_errno_cache@@@Z 0057103d f i libucrt:output.obj
 0001:00170069       ?write_string@?$string_output_adapter@D@__crt_stdio_output@@QBEXQBDHQAHAAV__crt_deferred_errno_cache@@@Z 00571069 f i libucrt:output.obj
 0001:001700d0       ?write_string@?$string_output_adapter@_W@__crt_stdio_output@@QBEXQB_WHQAHAAV__crt_deferred_errno_cache@@@Z 005710d0 f i libucrt:output.obj
 0001:00170141       ?write_string_impl@?$output_adapter_common@DV?$stream_output_adapter@D@__crt_stdio_output@@@__crt_stdio_output@@IBEXQBDHQAHAAV__crt_deferred_errno_cache@@@Z 00571141 f i libucrt:output.obj
 0001:001701df       ___acrt_locale_get_ctype_array_value 005711df f i libucrt:output.obj
 0001:00170201       ___stdio_common_vfprintf   00571201 f   libucrt:output.obj
 0001:00170284       ___stdio_common_vsnwprintf_s 00571284 f   libucrt:output.obj
 0001:001702ab       ___stdio_common_vsprintf   005712ab f   libucrt:output.obj
 0001:001702cf       ___stdio_common_vsprintf_s 005712cf f   libucrt:output.obj
 0001:001702f3       __difftime64               005712f3 f   libucrt:difftime.obj
 0001:00170338       __time64                   00571338 f   libucrt:time.obj
 0001:00170625       __localtime64              00571625 f   libucrt:localtime.obj
 0001:0017064c       __localtime64_s            0057164c f   libucrt:localtime.obj
 0001:00170660       _strncpy                   00571660 f   libucrt:strncpy.obj
 0001:00170784       ??$__crt_time_elapsed_leap_years@_J@@YA_J_J@Z 00571784 f i libucrt:mktime.obj
 0001:001707e8       ??$__crt_time_is_leap_year@_J@@YA_N_J@Z 005717e8 f i libucrt:mktime.obj
 0001:00170bf9       __mktime64                 00571bf9 f   libucrt:mktime.obj
 0001:00170c0c       _rand                      00571c0c f   libucrt:rand.obj
 0001:00170c2d       _srand                     00571c2d f   libucrt:rand.obj
 0001:00170c3f       ??$is_overflow_condition@K@__crt_strtox@@YA_NIK@Z 00571c3f f i libucrt:atox.obj
 0001:00170c70       ??$is_overflow_condition@_K@__crt_strtox@@YA_NI_K@Z 00571c70 f i libucrt:atox.obj
 0001:00170cb1       ??$parse_integer@KV?$c_string_character_source@D@__crt_strtox@@@__crt_strtox@@YAKQAU__crt_locale_pointers@@V?$c_string_character_source@D@0@H_N@Z 00571cb1 f i libucrt:atox.obj
 0001:00170ed4       ??$parse_integer@KV?$c_string_character_source@_W@__crt_strtox@@@__crt_strtox@@YAKQAU__crt_locale_pointers@@V?$c_string_character_source@_W@0@H_N@Z 00571ed4 f i libucrt:atox.obj
 0001:001714dc       ??$parse_integer@_KV?$c_string_character_source@D@__crt_strtox@@@__crt_strtox@@YA_KQAU__crt_locale_pointers@@V?$c_string_character_source@D@0@H_N@Z 005724dc f i libucrt:atox.obj
 0001:00171782       ?unget@?$c_string_character_source@D@__crt_strtox@@QAEXD@Z 00572782 f i libucrt:atox.obj
 0001:001717ab       ?unget@?$c_string_character_source@_W@__crt_strtox@@QAEX_W@Z 005727ab f i libucrt:atox.obj
 0001:001717d9       __ischartype_l             005727d9 f i libucrt:atox.obj
 0001:0017182d       __wtol                     0057282d f   libucrt:atox.obj
 0001:00171850       _atoi                      00572850 f   libucrt:atox.obj
 0001:00171873       ___ascii_stricmp           00572873 f   libucrt:stricmp.obj
 0001:001718ac       __stricmp                  005728ac f   libucrt:stricmp.obj
 0001:001718f5       __stricmp_l                005728f5 f   libucrt:stricmp.obj
 0001:00171983       _frexp                     00572983 f   libucrt:frexp.obj
 0001:00171a80       _strcspn                   00572a80 f   libucrt:strcspn.obj
 0001:00171ac6       _localeconv                00572ac6 f   libucrt:localeconv.obj
 0001:00171aee       _calloc                    00572aee f   libucrt:calloc.obj
 0001:00171af9       ___acrt_initialize_stdio   00572af9 f   libucrt:_file.obj
 0001:00171bc1       ___acrt_iob_func           00572bc1 f   libucrt:_file.obj
 0001:00171bd1       ___acrt_uninitialize_stdio 00572bd1 f   libucrt:_file.obj
 0001:00171c1d       __get_stream_buffer_pointers 00572c1d f   libucrt:_file.obj
 0001:00171c63       __lock_file                00572c63 f   libucrt:_file.obj
 0001:00171c77       __unlock_file              00572c77 f   libucrt:_file.obj
 0001:00171ec8       ___acrt_stdio_flush_nolock 00572ec8 f   libucrt:fflush.obj
 0001:00171f2d       __fflush_nolock            00572f2d f   libucrt:fflush.obj
 0001:00171f75       __flushall                 00572f75 f   libucrt:fflush.obj
 0001:00171f7e       _fflush                    00572f7e f   libucrt:fflush.obj
 0001:00171fe0       _strncmp                   00572fe0 f   libucrt:strncmp.obj
 0001:00172060       _isalnum                   00573060 f   libucrt:_ctype.obj
 0001:001720f0       _isalpha                   005730f0 f   libucrt:_ctype.obj
 0001:00172180       _iscntrl                   00573180 f   libucrt:_ctype.obj
 0001:00172210       _isdigit                   00573210 f   libucrt:_ctype.obj
 0001:001722a0       _isgraph                   005732a0 f   libucrt:_ctype.obj
 0001:00172330       _islower                   00573330 f   libucrt:_ctype.obj
 0001:001723c0       _ispunct                   005733c0 f   libucrt:_ctype.obj
 0001:00172450       _isspace                   00573450 f   libucrt:_ctype.obj
 0001:001724e0       _isupper                   005734e0 f   libucrt:_ctype.obj
 0001:00172570       _isxdigit                  00573570 f   libucrt:_ctype.obj
 0001:001725fb       ??$assemble_floating_point_snan@N@__crt_strtox@@YAX_NAAN@Z 005735fb f i libucrt:atof.obj
 0001:0017261c       ??$assemble_floating_point_value_t@M@__crt_strtox@@YA?AW4SLD_STATUS@@_NH_KAAM@Z 0057361c f i libucrt:atof.obj
 0001:0017264c       ??$assemble_floating_point_value_t@N@__crt_strtox@@YA?AW4SLD_STATUS@@_NH_KAAN@Z 0057364c f i libucrt:atof.obj
 0001:001726f2       ??$convert_decimal_string_to_floating_type@M@__crt_strtox@@YA?AW4SLD_STATUS@@ABUfloating_point_string@0@AAM@Z 005736f2 f i libucrt:atof.obj
 0001:00172713       ??$convert_decimal_string_to_floating_type@N@__crt_strtox@@YA?AW4SLD_STATUS@@ABUfloating_point_string@0@AAN@Z 00573713 f i libucrt:atof.obj
 0001:00172734       ??$convert_hexadecimal_string_to_floating_type@M@__crt_strtox@@YA?AW4SLD_STATUS@@ABUfloating_point_string@0@AAM@Z 00573734 f i libucrt:atof.obj
 0001:00172755       ??$convert_hexadecimal_string_to_floating_type@N@__crt_strtox@@YA?AW4SLD_STATUS@@ABUfloating_point_string@0@AAN@Z 00573755 f i libucrt:atof.obj
 0001:00172776       ??$parse_floating_point@V?$c_string_character_source@D@__crt_strtox@@N@__crt_strtox@@YA?AW4SLD_STATUS@@QAU__crt_locale_pointers@@V?$c_string_character_source@D@0@QAN@Z 00573776 f i libucrt:atof.obj
 0001:001727ea       ??$parse_floating_point_from_source@V?$c_string_character_source@D@__crt_strtox@@@__crt_strtox@@YA?AW4floating_point_parse_result@0@QAU__crt_locale_pointers@@AAV?$c_string_character_source@D@0@AAUfloating_point_string@0@@Z 005737ea f i libucrt:atof.obj
 0001:00172bd3       ??$parse_floating_point_possible_infinity@DV?$c_string_character_source@D@__crt_strtox@@PBD@__crt_strtox@@YA?AW4floating_point_parse_result@0@AADAAV?$c_string_character_source@D@0@PBD@Z 00573bd3 f i libucrt:atof.obj
 0001:00172c75       ??$parse_floating_point_possible_nan@DV?$c_string_character_source@D@__crt_strtox@@PBD@__crt_strtox@@YA?AW4floating_point_parse_result@0@AADAAV?$c_string_character_source@D@0@PBD@Z 00573c75 f i libucrt:atof.obj
 0001:00172d84       ??$parse_floating_point_possible_nan_is_ind@DV?$c_string_character_source@D@__crt_strtox@@@__crt_strtox@@YA_NAADAAV?$c_string_character_source@D@0@@Z 00573d84 f i libucrt:atof.obj
 0001:00172dc0       ??$parse_floating_point_possible_nan_is_snan@DV?$c_string_character_source@D@__crt_strtox@@@__crt_strtox@@YA_NAADAAV?$c_string_character_source@D@0@@Z 00573dc0 f i libucrt:atof.obj
 0001:00172dfc       ??$parse_floating_point_write_result@M@__crt_strtox@@YA?AW4SLD_STATUS@@W4floating_point_parse_result@0@ABUfloating_point_string@0@QAM@Z 00573dfc f i libucrt:atof.obj
 0001:00172f68       ??$parse_floating_point_write_result@N@__crt_strtox@@YA?AW4SLD_STATUS@@W4floating_point_parse_result@0@ABUfloating_point_string@0@QAN@Z 00573f68 f i libucrt:atof.obj
 0001:001730b2       ?as_double@floating_point_value@__crt_strtox@@QBEAANXZ 005740b2 f i libucrt:atof.obj
 0001:001730d7       ?as_float@floating_point_value@__crt_strtox@@QBEAAMXZ 005740d7 f i libucrt:atof.obj
 0001:001730fc       ?assemble_floating_point_infinity@__crt_strtox@@YAX_NABVfloating_point_value@1@@Z 005740fc f i libucrt:atof.obj
 0001:0017313c       ?assemble_floating_point_value@__crt_strtox@@YA?AW4SLD_STATUS@@_KH_N1ABVfloating_point_value@1@@Z 0057413c f i libucrt:atof.obj
 0001:00173491       ?assemble_floating_point_value_from_big_integer@__crt_strtox@@YA?AW4SLD_STATUS@@ABUbig_integer@1@I_N1ABVfloating_point_value@1@@Z 00574491 f i libucrt:atof.obj
 0001:00173625       ?assemble_floating_point_zero@__crt_strtox@@YAX_NABVfloating_point_value@1@@Z 00574625 f i libucrt:atof.obj
 0001:0017365a       ?convert_decimal_string_to_floating_type_common@__crt_strtox@@YA?AW4SLD_STATUS@@ABUfloating_point_string@1@ABVfloating_point_value@1@@Z 0057465a f i libucrt:atof.obj
 0001:0017532e       ?convert_hexadecimal_string_to_floating_type_common@__crt_strtox@@YA?AW4SLD_STATUS@@ABUfloating_point_string@1@ABVfloating_point_value@1@@Z 0057632e f i libucrt:atof.obj
 0001:001753d4       ?denormal_mantissa_mask@floating_point_value@__crt_strtox@@QBE_KXZ 005763d4 f i libucrt:atof.obj
 0001:001753f0       ?divide@__crt_strtox@@YA_KAAUbig_integer@1@ABU21@@Z 005763f0 f i libucrt:atof.obj
 0001:00175888       ?normal_mantissa_mask@floating_point_value@__crt_strtox@@QBE_KXZ 00576888 f i libucrt:atof.obj
 0001:0017589f       _atof                      0057689f f   libucrt:atof.obj
 0001:00175966       ??$make_input_adapter_character_source@V?$string_input_adapter@D@__crt_stdio_input@@@__crt_strtox@@YA?AV?$input_adapter_character_source@V?$string_input_adapter@D@__crt_stdio_input@@@0@QAV?$string_input_adapter@D@__crt_stdio_input@@_KQA_N@Z 00576966 f i libucrt:input.obj
 0001:00175984       ??$parse_floating_point@V?$input_adapter_character_source@V?$string_input_adapter@D@__crt_stdio_input@@@__crt_strtox@@M@__crt_strtox@@YA?AW4SLD_STATUS@@QAU__crt_locale_pointers@@V?$input_adapter_character_source@V?$string_input_adapter@D@__crt_stdio_input@@@0@QAM@Z 00576984 f i libucrt:input.obj
 0001:001759fd       ??$parse_floating_point@V?$input_adapter_character_source@V?$string_input_adapter@D@__crt_stdio_input@@@__crt_strtox@@N@__crt_strtox@@YA?AW4SLD_STATUS@@QAU__crt_locale_pointers@@V?$input_adapter_character_source@V?$string_input_adapter@D@__crt_stdio_input@@@0@QAN@Z 005769fd f i libucrt:input.obj
 0001:00175a76       ??$parse_floating_point_from_source@V?$input_adapter_character_source@V?$string_input_adapter@D@__crt_stdio_input@@@__crt_strtox@@@__crt_strtox@@YA?AW4floating_point_parse_result@0@QAU__crt_locale_pointers@@AAV?$input_adapter_character_source@V?$string_input_adapter@D@__crt_stdio_input@@@0@AAUfloating_point_string@0@@Z 00576a76 f i libucrt:input.obj
 0001:00175ed3       ??$parse_floating_point_possible_infinity@DV?$input_adapter_character_source@V?$string_input_adapter@D@__crt_stdio_input@@@__crt_strtox@@_K@__crt_strtox@@YA?AW4floating_point_parse_result@0@AADAAV?$input_adapter_character_source@V?$string_input_adapter@D@__crt_stdio_input@@@0@_K@Z 00576ed3 f i libucrt:input.obj
 0001:00175f92       ??$parse_floating_point_possible_nan@DV?$input_adapter_character_source@V?$string_input_adapter@D@__crt_stdio_input@@@__crt_strtox@@_K@__crt_strtox@@YA?AW4floating_point_parse_result@0@AADAAV?$input_adapter_character_source@V?$string_input_adapter@D@__crt_stdio_input@@@0@_K@Z 00576f92 f i libucrt:input.obj
 0001:001760ad       ??$parse_floating_point_possible_nan_is_ind@DV?$input_adapter_character_source@V?$string_input_adapter@D@__crt_stdio_input@@@__crt_strtox@@@__crt_strtox@@YA_NAADAAV?$input_adapter_character_source@V?$string_input_adapter@D@__crt_stdio_input@@@0@@Z 005770ad f i libucrt:input.obj
 0001:001760e7       ??$parse_floating_point_possible_nan_is_snan@DV?$input_adapter_character_source@V?$string_input_adapter@D@__crt_stdio_input@@@__crt_strtox@@@__crt_strtox@@YA_NAADAAV?$input_adapter_character_source@V?$string_input_adapter@D@__crt_stdio_input@@@0@@Z 005770e7 f i libucrt:input.obj
 0001:00176121       ??$parse_integer@_KV?$input_adapter_character_source@V?$string_input_adapter@D@__crt_stdio_input@@@__crt_strtox@@@__crt_strtox@@YA_KQAU__crt_locale_pointers@@V?$input_adapter_character_source@V?$string_input_adapter@D@__crt_stdio_input@@@0@H_N@Z 00577121 f i libucrt:input.obj
 0001:001763df       ??$process_floating_point_specifier_t@M@?$input_processor@DV?$string_input_adapter@D@__crt_stdio_input@@@__crt_stdio_input@@AAE_NXZ 005773df f i libucrt:input.obj
 0001:00176445       ??$process_floating_point_specifier_t@N@?$input_processor@DV?$string_input_adapter@D@__crt_stdio_input@@@__crt_stdio_input@@AAE_NXZ 00577445 f i libucrt:input.obj
 0001:001764ab       ??$process_string_specifier_tchar@D@?$input_processor@DV?$string_input_adapter@D@__crt_stdio_input@@@__crt_stdio_input@@AAE_NW4conversion_mode@1@D@Z 005774ab f i libucrt:input.obj
 0001:00176608       ??$process_string_specifier_tchar@_W@?$input_processor@DV?$string_input_adapter@D@__crt_stdio_input@@@__crt_stdio_input@@AAE_NW4conversion_mode@1@_W@Z 00577608 f i libucrt:input.obj
 0001:0017676f       ??$skip_whitespace@Vstring_input_adapter@__crt_stdio_input@@D@__crt_stdio_input@@YAHAAV?$string_input_adapter@D@0@QAU__crt_locale_pointers@@@Z 0057776f f i libucrt:input.obj
 0001:0017679e       ??$write_floating_point@M@?$input_processor@DV?$string_input_adapter@D@__crt_stdio_input@@@__crt_stdio_input@@AAE_NABM@Z 0057779e f i libucrt:input.obj
 0001:001767d2       ??$write_floating_point@N@?$input_processor@DV?$string_input_adapter@D@__crt_stdio_input@@@__crt_stdio_input@@AAE_NABN@Z 005777d2 f i libucrt:input.obj
 0001:0017680c       ??0?$format_string_parser@D@__crt_stdio_input@@QAE@_KQBE@Z 0057780c f i libucrt:input.obj
 0001:00176856       ??0?$input_adapter_character_source@V?$string_input_adapter@D@__crt_stdio_input@@@__crt_strtox@@QAE@QAV?$string_input_adapter@D@__crt_stdio_input@@_KQA_N@Z 00577856 f i libucrt:input.obj
 0001:00176887       ??0?$input_processor@DV?$string_input_adapter@D@__crt_stdio_input@@@__crt_stdio_input@@QAE@ABV?$string_input_adapter@D@1@_KQBDQAU__crt_locale_pointers@@QAD@Z 00577887 f i libucrt:input.obj
 0001:001768f5       ?advance@?$format_string_parser@D@__crt_stdio_input@@QAE_NXZ 005778f5 f i libucrt:input.obj
 0001:00176a0d       ?get@?$input_adapter_character_source@V?$string_input_adapter@D@__crt_stdio_input@@@__crt_strtox@@QAEDXZ 00577a0d f i libucrt:input.obj
 0001:00176a44       ?get@?$string_input_adapter@D@__crt_stdio_input@@QAEHXZ 00577a44 f i libucrt:input.obj
 0001:00176a5a       ?invert@?$scanset_buffer@E@__crt_stdio_input@@QAEXXZ 00577a5a f i libucrt:input.obj
 0001:00176a78       ?is_character_allowed_in_string@?$input_processor@DV?$string_input_adapter@D@__crt_stdio_input@@@__crt_stdio_input@@ABE_NW4conversion_mode@2@H@Z 00577a78 f i libucrt:input.obj
 0001:00176ac8       ?length@?$format_string_parser@D@__crt_stdio_input@@QBEIXZ 00577ac8 f i libucrt:input.obj
 0001:00176b09       ?process@?$input_processor@DV?$string_input_adapter@D@__crt_stdio_input@@@__crt_stdio_input@@QAEHXZ 00577b09 f i libucrt:input.obj
 0001:00176b8d       ?process_character_count_specifier@?$input_processor@DV?$string_input_adapter@D@__crt_stdio_input@@@__crt_stdio_input@@AAE_NXZ 00577b8d f i libucrt:input.obj
 0001:00176ba5       ?process_conversion_specifier@?$input_processor@DV?$string_input_adapter@D@__crt_stdio_input@@@__crt_stdio_input@@AAE_NXZ 00577ba5 f i libucrt:input.obj
 0001:00176c19       ?process_floating_point_specifier@?$input_processor@DV?$string_input_adapter@D@__crt_stdio_input@@@__crt_stdio_input@@AAE_NXZ 00577c19 f i libucrt:input.obj
 0001:00176c49       ?process_integer_specifier@?$input_processor@DV?$string_input_adapter@D@__crt_stdio_input@@@__crt_stdio_input@@AAE_NI_N@Z 00577c49 f i libucrt:input.obj
 0001:00176cab       ?process_literal_character@?$input_processor@DV?$string_input_adapter@D@__crt_stdio_input@@@__crt_stdio_input@@AAE_NXZ 00577cab f i libucrt:input.obj
 0001:00176ce1       ?process_literal_character_tchar@?$input_processor@DV?$string_input_adapter@D@__crt_stdio_input@@@__crt_stdio_input@@AAE_ND@Z 00577ce1 f i libucrt:input.obj
 0001:00176d2f       ?process_state@?$input_processor@DV?$string_input_adapter@D@__crt_stdio_input@@@__crt_stdio_input@@AAE_NXZ 00577d2f f i libucrt:input.obj
 0001:00176d71       ?process_string_specifier@?$input_processor@DV?$string_input_adapter@D@__crt_stdio_input@@@__crt_stdio_input@@AAE_NW4conversion_mode@2@@Z 00577d71 f i libucrt:input.obj
 0001:00176db9       ?process_whitespace@?$input_processor@DV?$string_input_adapter@D@__crt_stdio_input@@@__crt_stdio_input@@AAE_NXZ 00577db9 f i libucrt:input.obj
 0001:00176dd6       ?restore_state@?$input_adapter_character_source@V?$string_input_adapter@D@__crt_stdio_input@@@__crt_strtox@@QAE_N_K@Z 00577dd6 f i libucrt:input.obj
 0001:00176dfb       ?scan_conversion_specifier@?$format_string_parser@D@__crt_stdio_input@@AAE_NXZ 00577dfb f i libucrt:input.obj
 0001:00176f66       ?scan_optional_field_width@?$format_string_parser@D@__crt_stdio_input@@AAE_NXZ 00577f66 f i libucrt:input.obj
 0001:00177003       ?scan_optional_length_modifier@?$format_string_parser@D@__crt_stdio_input@@AAEXXZ 00578003 f i libucrt:input.obj
 0001:00177112       ?scan_optional_literal_character_trail_bytes_tchar@?$format_string_parser@D@__crt_stdio_input@@AAE_ND@Z 00578112 f i libucrt:input.obj
 0001:00177164       ?scan_optional_wide_modifier@?$format_string_parser@D@__crt_stdio_input@@AAEXXZ 00578164 f i libucrt:input.obj
 0001:00177182       ?scan_scanset_range@?$format_string_parser@D@__crt_stdio_input@@AAE_NXZ 00578182 f i libucrt:input.obj
 0001:001772ba       ?set_wide_for_c_s_or_scanset@?$format_string_parser@D@__crt_stdio_input@@AAEXXZ 005782ba f i libucrt:input.obj
 0001:001772da       ?to_floating_point_length@__crt_stdio_input@@YAIW4length_modifier@1@@Z 005782da f i libucrt:input.obj
 0001:001772fd       ?to_integer_length@__crt_stdio_input@@YAIW4length_modifier@1@@Z 005782fd f i libucrt:input.obj
 0001:00177350       ?unget@?$input_adapter_character_source@V?$string_input_adapter@D@__crt_stdio_input@@@__crt_strtox@@QAEXD@Z 00578350 f i libucrt:input.obj
 0001:00177397       ?unget@?$string_input_adapter@D@__crt_stdio_input@@QAEXH@Z 00578397 f i libucrt:input.obj
 0001:001773b6       ?validate@?$format_string_parser@D@__crt_stdio_input@@QBE_NXZ 005783b6 f i libucrt:input.obj
 0001:001773d2       ?validate@?$input_adapter_character_source@V?$string_input_adapter@D@__crt_stdio_input@@@__crt_strtox@@QBE_NXZ 005783d2 f i libucrt:input.obj
 0001:001773f3       ?validate@?$string_input_adapter@D@__crt_stdio_input@@QAE_NXZ 005783f3 f i libucrt:input.obj
 0001:00177415       ?write_character@?$input_processor@DV?$string_input_adapter@D@__crt_stdio_input@@@__crt_stdio_input@@AAE_NQA_WIAAPA_WAAID@Z 00578415 f i libucrt:input.obj
 0001:00177482       ?write_integer@?$input_processor@DV?$string_input_adapter@D@__crt_stdio_input@@@__crt_stdio_input@@AAE_N_K@Z 00578482 f i libucrt:input.obj
 0001:001774f0       ___stdio_common_vsscanf    005784f0 f   libucrt:input.obj
 0001:00177514       __fgetc_nolock             00578514 f   libucrt:fgetc.obj
 0001:00177550       __getc_nolock              00578550 f   libucrt:fgetc.obj
 0001:0017755b       _fgetc                     0057855b f   libucrt:fgetc.obj
 0001:00177663       _getc                      00578663 f   libucrt:fgetc.obj
 0001:0017766e       __fputc_nolock             0057866e f   libucrt:fputc.obj
 0001:00177697       _fputc                     00578697 f   libucrt:fputc.obj
 0001:001777a1       __ungetc_nolock            005787a1 f   libucrt:ungetc.obj
 0001:0017789b       _ungetc                    0057889b f   libucrt:ungetc.obj
 0001:00177a39       _setvbuf                   00578a39 f   libucrt:setvbuf.obj
 0001:00177abb       _fsetpos                   00578abb f   libucrt:fsetpos.obj
 0001:00177af6       ?LongLongSub@@YAJ_J0PA_J@Z 00578af6 f i libucrt:fseek.obj
 0001:00177db2       __fseeki64                 00578db2 f   libucrt:fseek.obj
 0001:00177dcd       _fseek                     00578dcd f   libucrt:fseek.obj
 0001:00177de8       _fgetpos                   00578de8 f   libucrt:fgetpos.obj
 0001:00177ee1       __fwrite_nolock            00578ee1 f   libucrt:fwrite.obj
 0001:00178062       _fwrite                    00579062 f   libucrt:fwrite.obj
 0001:001780c5       __tolower_l                005790c5 f   libucrt:tolower_toupper.obj
 0001:001781c9       __toupper_l                005791c9 f   libucrt:tolower_toupper.obj
 0001:001782ce       _tolower                   005792ce f   libucrt:tolower_toupper.obj
 0001:001782fe       _toupper                   005792fe f   libucrt:tolower_toupper.obj
 0001:0017832e       _strcat_s                  0057932e f   libucrt:strcat_s.obj
 0001:001783a0       _modf                      005793a0 f   libucrt:modf_pentium4.obj
 0001:001783e0       __modf_pentium4            005793e0 f   libucrt:modf_pentium4.obj
 0001:001784e8       ??$__crt_time_is_leap_year@H@@YA_NH@Z 005794e8 f i libucrt:asctime.obj
 0001:001786d4       ?__crt_time_is_day_valid@@YA_NHHH@Z 005796d4 f i libucrt:asctime.obj
 0001:00178717       _asctime_s                 00579717 f   libucrt:asctime.obj
 0001:001787e5       _fgets                     005797e5 f   libucrt:fgets.obj
 0001:001787f0       _feof                      005797f0 f   libucrt:feoferr.obj
 0001:0017881c       _ferror                    0057981c f   libucrt:feoferr.obj
 0001:00178a9d       _setlocale                 00579a9d f   libucrt:setlocale.obj
 0001:00178ad5       ___acrt_initialize_locks   00579ad5 f   libucrt:locks.obj
 0001:00178b16       ___acrt_lock               00579b16 f   libucrt:locks.obj
 0001:00178b2d       ___acrt_uninitialize_locks 00579b2d f   libucrt:locks.obj
 0001:00178b5e       ___acrt_unlock             00579b5e f   libucrt:locks.obj
 0001:00178b75       __lock_locales             00579b75 f   libucrt:locks.obj
 0001:00178b83       __unlock_locales           00579b83 f   libucrt:locks.obj
 0001:00178b8c       ___pctype_func             00579b8c f   libucrt:ctype.obj
 0001:00178bb0       ____lc_codepage_func       00579bb0 f   libucrt:initctype.obj
 0001:00178bd5       ____lc_locale_name_func    00579bd5 f   libucrt:initctype.obj
 0001:00178bfc       ____mb_cur_max_func        00579bfc f   libucrt:initctype.obj
 0001:00178c21       ___acrt_locale_initialize_ctype 00579c21 f   libucrt:initctype.obj
 0001:0017907f       __wcsdup                   0057a07f f   libucrt:wcsdup.obj
 0001:001790de       _terminate                 0057a0de f   libucrt:terminate.obj
 0001:0017911a       _rand_s                    0057a11a f   libucrt:rand_s.obj
 0001:00179162       _ldexp                     0057a162 f   libucrt:ldexp.obj
 0001:00179354       _realloc                   0057a354 f   libucrt:realloc.obj
 0001:001793e8       ??$make_c_string_character_source@DPAPAD@__crt_strtox@@YA?AV?$c_string_character_source@D@0@QBDQAPAD@Z 0057a3e8 f i libucrt:strtod.obj
 0001:001793e8       ??$make_c_string_character_source@_WPAPA_W@__crt_strtox@@YA?AV?$c_string_character_source@_W@0@QB_WQAPA_W@Z 0057a3e8 f i libucrt:strtod.obj
 0001:00179403       _strtod                    0057a403 f   libucrt:strtod.obj
 0001:00179420       __CIpow                    0057a420 f   libucrt:pow_impl.obj
 0001:0017945b       __CIpow_default            0057a45b f   libucrt:pow_impl.obj
 0001:00179474       __pow_default              0057a474     libucrt:pow_impl.obj
 0001:00179669       _abort                     0057a669 f   libucrt:abort.obj
 0001:001796ad       ___strncnt                 0057a6ad f   libucrt:strncnt.obj
 0001:00179842       ??$__acrt_mbs_to_wcs_cp@U__crt_win32_buffer_internal_dynamic_resizing@@@@YAHQBDAAV?$__crt_win32_buffer@_WU__crt_win32_buffer_internal_dynamic_resizing@@@@I@Z 0057a842 f i libucrt:strftime.obj
 0001:0017985f       ??$__acrt_wcs_to_mbs_cp@U__crt_win32_buffer_no_resizing@@@@YAHQB_WAAV?$__crt_win32_buffer@DU__crt_win32_buffer_no_resizing@@@@I@Z 0057a85f f i libucrt:strftime.obj
 0001:0017987c       ?_deallocate@?$__crt_win32_buffer@DU__crt_win32_buffer_internal_dynamic_resizing@@@@AAEXXZ 0057a87c f i libucrt:argv_wildcards.obj
 0001:0017987c       ?_deallocate@?$__crt_win32_buffer@_WU__crt_win32_buffer_internal_dynamic_resizing@@@@AAEXXZ 0057a87c f i libucrt:strftime.obj
 0001:00179896       ?allocate@?$__crt_win32_buffer@DU__crt_win32_buffer_no_resizing@@@@QAEHI@Z 0057a896 f i libucrt:strftime.obj
 0001:001798bd       ?allocate@?$__crt_win32_buffer@_WU__crt_win32_buffer_internal_dynamic_resizing@@@@QAEHI@Z 0057a8bd f i libucrt:strftime.obj
 0001:001798fc       ?allocate@__crt_win32_buffer_internal_dynamic_resizing@@SAHQAPAXIABV__crt_win32_buffer_empty_debug_info@@@Z 0057a8fc f i libucrt:strftime.obj
 0001:0017991b       ?set_to_nullptr@?$__crt_win32_buffer@DU__crt_win32_buffer_no_resizing@@@@QAEXXZ 0057a91b f i libucrt:strftime.obj
 0001:0017992f       __Strftime_l               0057a92f f   libucrt:strftime.obj
 0001:00179a2c       _strftime                  0057aa2c f   libucrt:strftime.obj
 0001:0017aa8f       __Wcsftime_l               0057ba8f f   libucrt:wcsftime.obj
 0001:0017ac00       _strnlen                   0057bc00 f   libucrt:strnlen.obj
 0001:0017ad22       _wcsnlen                   0057bd22 f   libucrt:strnlen.obj
 0001:0017aed2       __recalloc_base            0057bed2 f   libucrt:recalloc.obj
 0001:0017b047       _freopen                   0057c047 f   libucrt:freopen.obj
 0001:0017b0e2       __get_sys_err_msg          0057c0e2 f i libucrt:strerror.obj
 0001:0017b12e       _strerror                  0057c12e f   libucrt:strerror.obj
 0001:0017b139       __strcoll_l                0057c139 f   libucrt:strcoll.obj
 0001:0017b1e8       _strcoll                   0057c1e8 f   libucrt:strcoll.obj
 0001:0017b200       _strpbrk                   0057c200 f   libucrt:strpbrk.obj
 0001:0017b240       _strspn                    0057c240 f   libucrt:strspn.obj
 0001:0017b2ea       ___acrt_initialize_clock   0057c2ea f   libucrt:clock.obj
 0001:0017b34e       _clock                     0057c34e f   libucrt:clock.obj
 0001:0017b736       __dupenv_s                 0057c736 f   libucrt:getenv.obj
 0001:0017b754       __wgetenv_s                0057c754 f   libucrt:getenv.obj
 0001:0017b75f       _getenv                    0057c75f f   libucrt:getenv.obj
 0001:0017b7b7       ??$__crt_fast_encode_pointer@P6AHXZ@@YAP6AHXZQ6AHXZ@Z 0057c7b7 f i libucrt:onexit.obj
 0001:0017b7b7       ??$__crt_fast_encode_pointer@P6GXPAXK0@Z@@YAP6GXPAXK0@ZQ6GX0K0@Z@Z 0057c7b7 f i libucrt:exit.obj
 0001:0017b7b7       ??$__crt_fast_encode_pointer@PAX@@YAPAXQAX@Z 0057c7b7 f i libucrt:initialization.obj
 0001:0017b7b7       ??$__crt_fast_encode_pointer@P6AHPAU_exception@@@Z@@YAP6AHPAU_exception@@@ZQ6AH0@Z@Z 0057c7b7 f i libucrt:matherr.obj
 0001:0017b7b7       ??$__crt_fast_encode_pointer@PAP6AXXZ@@YAPAP6AXXZQAP6AXXZ@Z 0057c7b7 f i libucrt:onexit.obj
 0001:0017b7b7       ??$__crt_fast_encode_pointer@P6GHPA_WKJ@Z@@YAP6GHPA_WKJ@ZQ6GH0KJ@Z@Z 0057c7b7 f i libucrt:winapi_thunks.obj
 0001:0017b9bc       ___acrt_initialize_thread_local_exit_callback 0057c9bc f   libucrt:exit.obj
 0001:0017b9cb       __c_exit                   0057c9cb f   libucrt:exit.obj
 0001:0017b9da       __cexit                    0057c9da f   libucrt:exit.obj
 0001:0017b9e9       __exit                     0057c9e9 f   libucrt:exit.obj
 0001:0017b9ff       __register_thread_local_exe_atexit_callback 0057c9ff f   libucrt:exit.obj
 0001:0017ba25       _exit                      0057ca25 f   libucrt:exit.obj
 0001:0017ba3b       ?__acrt_get_utf8_acp_compatibility_codepage@@YAIXZ 0057ca3b f i libucrt:unlink.obj
 0001:0017ba7a       _remove                    0057ca7a f   libucrt:unlink.obj
 0001:0017bae4       ??$__crt_time_elapsed_leap_years@H@@YAHH@Z 0057cae4 f i libucrt:gmtime.obj
 0001:0017bd21       ___getgmtimebuf            0057cd21 f   libucrt:gmtime.obj
 0001:0017bd5f       __gmtime64                 0057cd5f f   libucrt:gmtime.obj
 0001:0017bd86       __gmtime64_s               0057cd86 f   libucrt:gmtime.obj
 0001:0017be8f       _system                    0057ce8f f   libucrt:system.obj
 0001:0017be9a       _rename                    0057ce9a f   libucrt:rename.obj
 0001:0017c406       ___acrt_stdio_free_tmpfile_name_buffers_nolock 0057d406 f   libucrt:tmpfile.obj
 0001:0017c461       _tmpfile                   0057d461 f   libucrt:tmpfile.obj
 0001:0017c47d       _tmpnam                    0057d47d f   libucrt:tmpfile.obj
 0001:0017c4a2       _clearerr                  0057d4a2 f   libucrt:clearerr.obj
 0001:0017c4a7       _clearerr_s                0057d4a7 f   libucrt:clearerr.obj
 0001:0017ca49       ?__crt_stdio_path_requires_backslash@@YA_NQBD@Z 0057da49 f i libucrt:popen.obj
 0001:0017cb00       __pclose                   0057db00 f   libucrt:popen.obj
 0001:0017cbd7       __popen                    0057dbd7 f   libucrt:popen.obj
 0001:0017d1b3       __ftelli64                 0057e1b3 f   libucrt:ftell.obj
 0001:0017d1be       __ftelli64_nolock          0057e1be f   libucrt:ftell.obj
 0001:0017d1c9       _strtol                    0057e1c9 f   libucrt:strtox.obj
 0001:0017d1f3       _strtoull                  0057e1f3 f   libucrt:strtox.obj
 0001:0017d21d       _wcstol                    0057e21d f   libucrt:strtox.obj
 0001:0017d247       ___acrt_initialize_new_handler 0057e247 f   libucrt:new_handler.obj
 0001:0017d256       __callnewh                 0057e256 f   libucrt:new_handler.obj
 0001:0017d283       __query_new_handler        0057e283 f   libucrt:new_handler.obj
 0001:0017d2df       __seh_filter_exe           0057e2df f   libucrt:exception_filter.obj
 0001:0017d6e1       ___acrt_allocate_buffer_for_argv 0057e6e1 f   libucrt:argv_parsing.obj
 0001:0017d730       __configure_narrow_argv    0057e730 f   libucrt:argv_parsing.obj
 0001:0017db40       ??$uninitialize@A6AXAAPAPA_W@Z@?$dual_state_global@PAPA_W@__crt_state_management@@QAEXA6AXAAPAPA_W@Z@Z 0057eb40 f i libucrt:environment_initialization.obj
 0001:0017db40       ??$uninitialize@A6AXAAPAPAD@Z@?$dual_state_global@PAPAD@__crt_state_management@@QAEXA6AXAAPAPAD@Z@Z 0057eb40 f i libucrt:environment_initialization.obj
 0001:0017db9f       ___dcrt_get_or_create_narrow_environment_nolock 0057eb9f f   libucrt:environment_initialization.obj
 0001:0017dba4       ___dcrt_get_or_create_wide_environment_nolock 0057eba4 f   libucrt:environment_initialization.obj
 0001:0017dba9       ___dcrt_uninitialize_environments_nolock 0057eba9 f   libucrt:environment_initialization.obj
 0001:0017dbe0       __initialize_narrow_environment 0057ebe0 f   libucrt:environment_initialization.obj
 0001:0017de9e       __crt_atexit               0057ee9e f   libucrt:onexit.obj
 0001:0017deb4       __execute_onexit_table     0057eeb4 f   libucrt:onexit.obj
 0001:0017dee1       __initialize_onexit_table  0057eee1 f   libucrt:onexit.obj
 0001:0017df0a       __register_onexit_function 0057ef0a f   libucrt:onexit.obj
 0001:0017e038       ___acrt_initialize         0057f038 f   libucrt:initialization.obj
 0001:0017e04a       ___acrt_uninitialize       0057f04a f   libucrt:initialization.obj
 0001:0017e07a       __query_app_type           0057f07a f   libucrt:report_runtime_error.obj
 0001:0017e080       __set_app_type             0057f080 f   libucrt:report_runtime_error.obj
 0001:0017e08f       ___acrt_has_user_matherr   0057f08f f   libucrt:matherr.obj
 0001:0017e0a7       ___acrt_initialize_user_matherr 0057f0a7 f   libucrt:matherr.obj
 0001:0017e0b6       ___acrt_invoke_user_matherr 0057f0b6 f   libucrt:matherr.obj
 0001:0017e0e8       ___setusermatherr          0057f0e8 f   libucrt:matherr.obj
 0001:0017e0fd       __get_narrow_winmain_command_line 0057f0fd f   libucrt:argv_winmain.obj
 0001:0017e150       __initterm                 0057f150 f   libucrt:initterm.obj
 0001:0017e195       __initterm_e               0057f195 f   libucrt:initterm.obj
 0001:0017e1c3       __get_fmode                0057f1c3 f   libucrt:setmode.obj
 0001:0017e1f0       __set_fmode                0057f1f0 f   libucrt:setmode.obj
 0001:0017e22d       __setmode_nolock           0057f22d f   libucrt:setmode.obj
 0001:0017e3fc       ??0_expandlocale_locale_name_cache@@QAE@QA_WIQAU__crt_qualified_locale_data@@@Z 0057f3fc f i libucrt:wsetlocale.obj
 0001:0017e446       ??1_expandlocale_locale_name_cache@@QAE@XZ 0057f446 f i libucrt:wsetlocale.obj
 0001:0017e5de       ?commit_locale_name@_expandlocale_locale_name_cache@@QAEXQB_WI@Z 0057f5de f i libucrt:wsetlocale.obj
 0001:0017e622       ?commit_locale_name_cache_already_updated@_expandlocale_locale_name_cache@@QAEXQB_WI@Z 0057f622 f i libucrt:wsetlocale.obj
 0001:0017e657       ___acrt_copy_locale_name   0057f657 f   libucrt:wsetlocale.obj
 0001:0017e6b7       ___acrt_set_locale_changed 0057f6b7 f   libucrt:wsetlocale.obj
 0001:0017e6c2       ___acrt_uninitialize_locale 0057f6c2 f   libucrt:wsetlocale.obj
 0001:0017e6e9       ___lc_lctowcs              0057f6e9 f   libucrt:wsetlocale.obj
 0001:0017e759       ___lc_wcstolc              0057f759 f   libucrt:wsetlocale.obj
 0001:0017e8a9       __configthreadlocale       0057f8a9 f   libucrt:wsetlocale.obj
 0001:0017ed00       __wcscats                  0057fd00 f   libucrt:wsetlocale.obj
 0001:0017ed41       __wsetlocale               0057fd41 f   libucrt:wsetlocale.obj
 0001:0017fa24       __query_new_mode           00580a24 f   libucrt:new_mode.obj
 0001:0017fa2b       __set_new_mode             00580a2b f   libucrt:new_mode.obj
 0001:0017fa5a       ___p__commode              00580a5a f   libucrt:ncommode.obj
 0001:0017fa60       __controlfp_s              00580a60 f   libucrt:contrlfp.obj
 0001:0017fabf       _wcsncmp                   00580abf f   libucrt:wcsncmp.obj
 0001:0017faf9       ?__acrt_stdio_allocate_stream@@YA?AV__crt_stdio_stream@@XZ 00580af9 f   libucrt:stream.obj
 0001:0017fb62       ?__acrt_stdio_free_stream@@YAXV__crt_stdio_stream@@@Z 00580b62 f   libucrt:stream.obj
 0001:0017fc5f       ??$__acrt_stdio_parse_mode@D@@YA?AU__acrt_stdio_stream_mode@@QBD@Z 00580c5f f i libucrt:openfile.obj
 0001:0017ff0c       ?__acrt_stdio_parse_mode_D@@YA_NAAU__acrt_stdio_stream_mode@@@Z 00580f0c f i libucrt:openfile.obj
 0001:0017ff27       ?__acrt_stdio_parse_mode_T@@YA_NAAU__acrt_stdio_stream_mode@@@Z 00580f27 f i libucrt:openfile.obj
 0001:0017ff46       ?__acrt_stdio_parse_mode_b@@YA_NAAU__acrt_stdio_stream_mode@@@Z 00580f46 f i libucrt:openfile.obj
 0001:0017ff66       ?__acrt_stdio_parse_mode_c@@YA_NAAU__acrt_stdio_stream_mode@@AA_N@Z 00580f66 f i libucrt:openfile.obj
 0001:0017ff88       ?__acrt_stdio_parse_mode_n@@YA_NAAU__acrt_stdio_stream_mode@@AA_N@Z 00580f88 f i libucrt:openfile.obj
 0001:0017ffaa       ?__acrt_stdio_parse_mode_plus@@YA_NAAU__acrt_stdio_stream_mode@@AA_N@Z 00580faa f i libucrt:openfile.obj
 0001:0017ffe0       ?__acrt_stdio_parse_mode_t@@YA_NAAU__acrt_stdio_stream_mode@@@Z 00580fe0 f i libucrt:openfile.obj
 0001:00180000       ?__acrt_stdio_parse_mode_x@@YA_NAAU__acrt_stdio_stream_mode@@@Z 00581000 f i libucrt:openfile.obj
 0001:00180020       __openfile                 00581020 f   libucrt:openfile.obj
 0001:0018002b       __malloc_base              0058102b f   libucrt:malloc_base.obj
 0001:00180079       __free_base                00581079 f   libucrt:free_base.obj
 0001:0018013f       __close                    0058113f f   libucrt:close.obj
 0001:001801cc       __close_nolock             005811cc f   libucrt:close.obj
 0001:00180268       __fileno                   00581268 f   libucrt:fileno.obj
 0001:0018028f       ___acrt_stdio_free_buffer_nolock 0058128f f   libucrt:_freebuf.obj
 0001:001807a4       __read                     005817a4 f   libucrt:read.obj
 0001:001808b8       __read_nolock              005818b8 f   libucrt:read.obj
 0001:00180df2       ___acrt_stdio_refill_and_read_narrow_nolock 00581df2 f   libucrt:_filbuf.obj
 0001:0018113b       ___acrt_getptd             0058213b f   libucrt:per_thread_data.obj
 0001:001811f8       ___acrt_getptd_head        005821f8 f   libucrt:per_thread_data.obj
 0001:00181292       ___acrt_getptd_noexit      00582292 f   libucrt:per_thread_data.obj
 0001:00181347       ___acrt_initialize_ptd     00582347 f   libucrt:per_thread_data.obj
 0001:00181373       ___acrt_uninitialize_ptd   00582373 f   libucrt:per_thread_data.obj
 0001:0018138d       __mbtowc_l                 0058238d f   libucrt:mbtowc.obj
 0001:001814cf       _mbtowc                    005824cf f   libucrt:mbtowc.obj
 0001:001814e9       __wctomb_s_l               005824e9 f   libucrt:wctomb.obj
 0001:00181644       ___acrt_update_locale_info 00582644 f   libucrt:locale_update.obj
 0001:00181671       ___acrt_update_multibyte_info 00582671 f   libucrt:locale_update.obj
 0001:0018169e       ?__acrt_fp_classify@@YA?AW4__acrt_fp_class@@ABN@Z 0058269e f i libucrt:cvt.obj
 0001:00182051       ___acrt_fp_format          00583051 f   libucrt:cvt.obj
 0001:001821ad       __get_printf_count_output  005831ad f   libucrt:printf_count_output.obj
 0001:001821c2       ___acrt_should_use_temporary_buffer 005831c2 f   libucrt:_sftbuf.obj
 0001:001821fd       ___acrt_stdio_begin_temporary_buffering_nolock 005831fd f   libucrt:_sftbuf.obj
 0001:001822a9       ___acrt_stdio_end_temporary_buffering_nolock 005832a9 f   libucrt:_sftbuf.obj
 0001:0018244d       ___acrt_initialize_lowio   0058344d f   libucrt:ioinit.obj
 0001:001824ad       ___acrt_uninitialize_lowio 005834ad f   libucrt:ioinit.obj
 0001:001827f9       ___acrt_AppPolicyGetProcessTerminationMethodInternal@4 005837f9 f   libucrt:winapi_thunks.obj
 0001:00182839       ___acrt_AreFileApisANSI@0  00583839 f   libucrt:winapi_thunks.obj
 0001:00182858       ___acrt_CompareStringEx@36 00583858 f   libucrt:winapi_thunks.obj
 0001:001828b5       ___acrt_EnumSystemLocalesEx@16 005838b5 f   libucrt:winapi_thunks.obj
 0001:00182909       ___acrt_FlsAlloc@4         00583909 f   libucrt:winapi_thunks.obj
 0001:00182948       ___acrt_FlsFree@4          00583948 f   libucrt:winapi_thunks.obj
 0001:00182987       ___acrt_FlsGetValue@4      00583987 f   libucrt:winapi_thunks.obj
 0001:001829c6       ___acrt_FlsSetValue@8      005839c6 f   libucrt:winapi_thunks.obj
 0001:00182a08       ___acrt_GetDateFormatEx@28 00583a08 f   libucrt:winapi_thunks.obj
 0001:00182a5f       ___acrt_GetLocaleInfoEx@16 00583a5f f   libucrt:winapi_thunks.obj
 0001:00182a9e       ___acrt_GetTimeFormatEx@24 00583a9e f   libucrt:winapi_thunks.obj
 0001:00182ae3       ___acrt_GetUserDefaultLocaleName@8 00583ae3 f   libucrt:winapi_thunks.obj
 0001:00182b1f       ___acrt_InitializeCriticalSectionEx@12 00583b1f f   libucrt:winapi_thunks.obj
 0001:00182b6a       ___acrt_IsValidLocaleName@4 00583b6a f   libucrt:winapi_thunks.obj
 0001:00182ba2       ___acrt_LCIDToLocaleName@16 00583ba2 f   libucrt:winapi_thunks.obj
 0001:00182be1       ___acrt_LCMapStringEx@36   00583be1 f   libucrt:winapi_thunks.obj
 0001:00182c3e       ___acrt_LocaleNameToLCID@8 00583c3e f   libucrt:winapi_thunks.obj
 0001:00182c6f       ___acrt_RtlGenRandom@8     00583c6f f   libucrt:winapi_thunks.obj
 0001:00182caf       ___acrt_can_use_vista_locale_apis 00583caf f   libucrt:winapi_thunks.obj
 0001:00182cba       ___acrt_eagerly_load_locale_apis 00583cba f   libucrt:winapi_thunks.obj
 0001:00182cf1       ___acrt_initialize_winapi_thunks 00583cf1 f   libucrt:winapi_thunks.obj
