 GameServer

 Timestamp is 651896ff (Sun Oct  1 00:45:35 2023)

 Preferred load address is 00400000

 Start         Length     Name                   Class
 0001:00000000 00003790H .text$di                CODE
 0001:00003790 0017c270H .text$mn                CODE
 0001:0017fa00 00004100H .text$x                 CODE
 0001:00183b00 000027d0H .text$yd                CODE
 0002:00000000 00000360H .idata$5                DATA
 0002:00000360 00000004H .00cfg                  DATA
 0002:00000364 00000004H .CRT$XCA                DATA
 0002:00000368 00000004H .CRT$XCAA               DATA
 0002:0000036c 0000000cH .CRT$XCC                DATA
 0002:00000378 0000000cH .CRT$XCL                DATA
 0002:00000384 000003d0H .CRT$XCU                DATA
 0002:00000754 00000004H .CRT$XCZ                DATA
 0002:00000758 00000004H .CRT$XIA                DATA
 0002:0000075c 00000004H .CRT$XIAA               DATA
 0002:00000760 00000004H .CRT$XIAC               DATA
 0002:00000764 0000001cH .CRT$XIC                DATA
 0002:00000780 00000004H .CRT$XIZ                DATA
 0002:00000784 00000004H .CRT$XLA                DATA
 0002:00000788 00000004H .CRT$XLZ                DATA
 0002:0000078c 00000004H .CRT$XPA                DATA
 0002:00000790 0000000cH .CRT$XPX                DATA
 0002:0000079c 00000004H .CRT$XPXA               DATA
 0002:000007a0 00000004H .CRT$XPZ                DATA
 0002:000007a4 00000004H .CRT$XTA                DATA
 0002:000007a8 00000008H .CRT$XTZ                DATA
 0002:000007ac 00000000H .gfids$y                DATA
 0002:000007b0 0002c2d0H .rdata                  DATA
 0002:0002ca80 00000000H .rdata$CastGuardVftablesA DATA
 0002:0002ca80 00000000H .rdata$CastGuardVftablesC DATA
 0002:0002ca80 00000018H .rdata$T                DATA
 0002:0002ca98 0000465cH .rdata$r                DATA
 0002:000310f4 00000444H .rdata$sxdata           DATA
 0002:00031538 00000018H .rdata$voltmd           DATA
 0002:00031550 00000448H .rdata$zzzdbg           DATA
 0002:00031998 00000004H .rtc$IAA                DATA
 0002:0003199c 00000004H .rtc$IZZ                DATA
 0002:000319a0 00000004H .rtc$TAA                DATA
 0002:000319a4 00000004H .rtc$TZZ                DATA
 0002:000319a8 00000004H .tls                    DATA
 0002:000319ac 00000004H .tls$                   DATA
 0002:000319b0 00000008H .tls$ZZZ                DATA
 0002:000319b8 00005850H .xdata$x                DATA
 0002:00037208 00000000H ATL$__a                 DATA
 0002:00037208 00000000H ATL$__z                 DATA
 0002:00037208 00000000H .edata                  DATA
 0002:00037208 00000078H .idata$2                DATA
 0002:00037280 00000014H .idata$3                DATA
 0002:00037294 00000360H .idata$4                DATA
 0002:000375f4 00000da8H .idata$6                DATA
 0003:00000000 00952530H .data                   DATA
 0003:00952530 000001c0H .data$r                 DATA
 0003:009526f0 00001c50H .data$rs                DATA
 0003:00954340 0496117cH .bss                    DATA
 0004:00000000 00000400H .rsrc$01                DATA
 0004:00000400 0001a878H .rsrc$02                DATA

  Address         Publics by Value              Rva+Base       Lib:Object

 0000:00000000       ___guard_fids_count        00000000     <absolute>
 0000:00000000       ___guard_eh_cont_table     00000000     <absolute>
 0000:00000000       ___guard_longjmp_table     00000000     <absolute>
 0000:00000000       ___guard_iat_count         00000000     <absolute>
 0000:00000000       ___arm64x_extra_rfe_table  00000000     <absolute>
 0000:00000000       ___arm64x_redirection_metadata 00000000     <absolute>
 0000:00000000       __except_list              00000000     <absolute>
 0000:00000000       ___guard_eh_cont_count     00000000     <absolute>
 0000:00000000       ___x64_code_ranges_to_entry_points_count 00000000     <absolute>
 0000:00000000       ___hybrid_code_map_count   00000000     <absolute>
 0000:00000000       ___x64_code_ranges_to_entry_points 00000000     <absolute>
 0000:00000000       ___guard_iat_table         00000000     <absolute>
 0000:00000000       ___arm64x_native_entrypoint 00000000     <absolute>
 0000:00000000       ___hybrid_code_map         00000000     <absolute>
 0000:00000000       ___arm64x_extra_rfe_table_size 00000000     <absolute>
 0000:00000000       ___guard_longjmp_count     00000000     <absolute>
 0000:00000000       ___guard_check_icall_a64n_fptr 00000000     <absolute>
 0000:00000000       ___arm64x_redirection_metadata_count 00000000     <absolute>
 0000:00000000       ___hybrid_auxiliary_iat    00000000     <absolute>
 0000:00000000       ___dynamic_value_reloc_table 00000000     <absolute>
 0000:00000000       ___AbsoluteZero            00000000     <absolute>
 0000:00000000       ___enclave_config          00000000     <absolute>
 0000:00000000       ___guard_fids_table        00000000     <absolute>
 0000:00000000       ___hybrid_auxiliary_iat_copy 00000000     <absolute>
 0000:0000002c       __tls_array                0000002c     <absolute>
 0000:00000100       ___guard_flags             00000100     <absolute>
 0000:00000111       ___safe_se_handler_count   00000111     <absolute>
 0000:00000000       ___ImageBase               00400000     <linker-defined>
 0001:00003790       _AngleMatrix               00404790 f   Math.obj
 0001:00003930       _sqrtf                     00404930 f i Math.obj
 0001:00003960       ??_EC380ItemOption@@UAEPAXI@Z 00404960 f i * CIL library *:* CIL module *
 0001:00003960       ??_GC380ItemOption@@UAEPAXI@Z 00404960 f i 380ItemOption.obj
 0001:00003990       ?Init@C380ItemOption@@QAEXXZ 00404990 f   380ItemOption.obj
 0001:00003a00       ?Load@C380ItemOption@@QAEXPAD@Z 00404a00 f   380ItemOption.obj
 0001:00003bd0       ?Calc380ItemOption@C380ItemOption@@QAEXPAUOBJECTSTRUCT@@_N@Z 00404bd0 f   380ItemOption.obj
 0001:00003df0       ??_GC380ItemType@@UAEPAXI@Z 00404df0 f i 380ItemType.obj
 0001:00003df0       ??_EC380ItemType@@UAEPAXI@Z 00404df0 f i * CIL library *:* CIL module *
 0001:00003e20       ?Load@C380ItemType@@QAEXPAD@Z 00404e20 f   380ItemType.obj
 0001:000040c0       ?clear@?$_Tree@V?$_Tmap_traits@HUITEM_MOVE_INFO@@U?$less@H@std@@V?$allocator@U?$pair@$$CBHUITEM_MOVE_INFO@@@std@@@3@$0A@@std@@@std@@QAEXXZ 004050c0 f i ItemMove.obj
 0001:000040c0       ?clear@?$_Tree@V?$_Tmap_traits@HUITEM_380_TYPE_INFO@@U?$less@H@std@@V?$allocator@U?$pair@$$CBHUITEM_380_TYPE_INFO@@@std@@@3@$0A@@std@@@std@@QAEXXZ 004050c0 f i 380ItemType.obj
 0001:00004110       ??1?$_Tree@V?$_Tmap_traits@HUMUUN_SYSTEM_INFO@@U?$less@H@std@@V?$allocator@U?$pair@$$CBHUMUUN_SYSTEM_INFO@@@std@@@3@$0A@@std@@@std@@QAE@XZ 00405110 f i MuunSystem.obj
 0001:00004110       ??1?$_Tree@V?$_Tmap_traits@HUITEM_MOVE_INFO@@U?$less@H@std@@V?$allocator@U?$pair@$$CBHUITEM_MOVE_INFO@@@std@@@3@$0A@@std@@@std@@QAE@XZ 00405110 f i ItemMove.obj
 0001:00004110       ??1?$_Tree@V?$_Tmap_traits@HUCOSTUME_LIST@@U?$less@H@std@@V?$allocator@U?$pair@$$CBHUCOSTUME_LIST@@@std@@@3@$0A@@std@@@std@@QAE@XZ 00405110 f i CostumeSystem.obj
 0001:00004110       ??1?$_Tree@V?$_Tmap_traits@HUITEM_380_TYPE_INFO@@U?$less@H@std@@V?$allocator@U?$pair@$$CBHUITEM_380_TYPE_INFO@@@std@@@3@$0A@@std@@@std@@QAE@XZ 00405110 f i 380ItemType.obj
 0001:00004150       ??$_Erase_tree@V?$allocator@U?$_Tree_node@U?$pair@$$CBHUMUUN_SYSTEM_INFO@@@std@@PAX@std@@@std@@@?$_Tree_val@U?$_Tree_simple_types@U?$pair@$$CBHUMUUN_SYSTEM_INFO@@@std@@@std@@@std@@QAEXAAV?$allocator@U?$_Tree_node@U?$pair@$$CBHUMUUN_SYSTEM_INFO@@@std@@PAX@std@@@1@PAU?$_Tree_node@U?$pair@$$CBHUMUUN_SYSTEM_INFO@@@std@@PAX@1@@Z 00405150 f i MuunSystem.obj
 0001:00004150       ??$_Erase_tree@V?$allocator@U?$_Tree_node@U?$pair@$$CBHUITEM_380_TYPE_INFO@@@std@@PAX@std@@@std@@@?$_Tree_val@U?$_Tree_simple_types@U?$pair@$$CBHUITEM_380_TYPE_INFO@@@std@@@std@@@std@@QAEXAAV?$allocator@U?$_Tree_node@U?$pair@$$CBHUITEM_380_TYPE_INFO@@@std@@PAX@std@@@1@PAU?$_Tree_node@U?$pair@$$CBHUITEM_380_TYPE_INFO@@@std@@PAX@1@@Z 00405150 f i 380ItemType.obj
 0001:00004150       ??$_Erase_tree@V?$allocator@U?$_Tree_node@U?$pair@$$CBHUITEM_MOVE_INFO@@@std@@PAX@std@@@std@@@?$_Tree_val@U?$_Tree_simple_types@U?$pair@$$CBHUITEM_MOVE_INFO@@@std@@@std@@@std@@QAEXAAV?$allocator@U?$_Tree_node@U?$pair@$$CBHUITEM_MOVE_INFO@@@std@@PAX@std@@@1@PAU?$_Tree_node@U?$pair@$$CBHUITEM_MOVE_INFO@@@std@@PAX@1@@Z 00405150 f i ItemMove.obj
 0001:00004150       ??$_Erase_tree@V?$allocator@U?$_Tree_node@U?$pair@$$CBHUCOSTUME_LIST@@@std@@PAX@std@@@std@@@?$_Tree_val@U?$_Tree_simple_types@U?$pair@$$CBHUCOSTUME_LIST@@@std@@@std@@@std@@QAEXAAV?$allocator@U?$_Tree_node@U?$pair@$$CBHUCOSTUME_LIST@@@std@@PAX@std@@@1@PAU?$_Tree_node@U?$pair@$$CBHUCOSTUME_LIST@@@std@@PAX@1@@Z 00405150 f i CostumeSystem.obj
 0001:00004190       ?_Insert_node@?$_Tree_val@U?$_Tree_simple_types@U?$pair@$$CBHV?$vector@UMONSTER_SET_BASE_INFO@@V?$allocator@UMONSTER_SET_BASE_INFO@@@std@@@std@@@std@@@std@@@std@@QAEPAU?$_Tree_node@U?$pair@$$CBHV?$vector@UMONSTER_SET_BASE_INFO@@V?$allocator@UMONSTER_SET_BASE_INFO@@@std@@@std@@@std@@PAX@2@U?$_Tree_id@PAU?$_Tree_node@U?$pair@$$CBHV?$vector@UMONSTER_SET_BASE_INFO@@V?$allocator@UMONSTER_SET_BASE_INFO@@@std@@@std@@@std@@PAX@std@@@2@QAU32@@Z 00405190 f i MonsterSetBase.obj
 0001:00004190       ?_Insert_node@?$_Tree_val@U?$_Tree_simple_types@U?$pair@$$CBHUZEN_DROP@@@std@@@std@@@std@@QAEPAU?$_Tree_node@U?$pair@$$CBHUZEN_DROP@@@std@@PAX@2@U?$_Tree_id@PAU?$_Tree_node@U?$pair@$$CBHUZEN_DROP@@@std@@PAX@std@@@2@QAU32@@Z 00405190 f i ZenDrop.obj
 0001:00004190       ?_Insert_node@?$_Tree_val@U?$_Tree_simple_types@U?$pair@$$CBHV?$vector@UITEM_OPTION_INFO@@V?$allocator@UITEM_OPTION_INFO@@@std@@@std@@@std@@@std@@@std@@QAEPAU?$_Tree_node@U?$pair@$$CBHV?$vector@UITEM_OPTION_INFO@@V?$allocator@UITEM_OPTION_INFO@@@std@@@std@@@std@@PAX@2@U?$_Tree_id@PAU?$_Tree_node@U?$pair@$$CBHV?$vector@UITEM_OPTION_INFO@@V?$allocator@UITEM_OPTION_INFO@@@std@@@std@@@std@@PAX@std@@@2@QAU32@@Z 00405190 f i ItemOption.obj
 0001:00004190       ?_Insert_node@?$_Tree_val@U?$_Tree_simple_types@U?$pair@$$CBGUCUSTOM_MOVE_INFO@@@std@@@std@@@std@@QAEPAU?$_Tree_node@U?$pair@$$CBGUCUSTOM_MOVE_INFO@@@std@@PAX@2@U?$_Tree_id@PAU?$_Tree_node@U?$pair@$$CBGUCUSTOM_MOVE_INFO@@@std@@PAX@std@@@2@QAU32@@Z 00405190 f i CustomMove.obj
 0001:00004190       ?_Insert_node@?$_Tree_val@U?$_Tree_simple_types@U?$pair@$$CBHPAVCMapServerData@@@std@@@std@@@std@@QAEPAU?$_Tree_node@U?$pair@$$CBHPAVCMapServerData@@@std@@PAX@2@U?$_Tree_id@PAU?$_Tree_node@U?$pair@$$CBHPAVCMapServerData@@@std@@PAX@std@@@2@QAU32@@Z 00405190 f i MapServerManager.obj
 0001:00004190       ?_Insert_node@?$_Tree_val@U?$_Tree_simple_types@U?$pair@$$CBHUITEM_OPTION4_RATE_INFO@@@std@@@std@@@std@@QAEPAU?$_Tree_node@U?$pair@$$CBHUITEM_OPTION4_RATE_INFO@@@std@@PAX@2@U?$_Tree_id@PAU?$_Tree_node@U?$pair@$$CBHUITEM_OPTION4_RATE_INFO@@@std@@PAX@std@@@2@QAU32@@Z 00405190 f i ItemOptionRate.obj
 0001:00004190       ?_Insert_node@?$_Tree_val@U?$_Tree_simple_types@U?$pair@$$CBHUITEM_380_TYPE_INFO@@@std@@@std@@@std@@QAEPAU?$_Tree_node@U?$pair@$$CBHUITEM_380_TYPE_INFO@@@std@@PAX@2@U?$_Tree_id@PAU?$_Tree_node@U?$pair@$$CBHUITEM_380_TYPE_INFO@@@std@@PAX@std@@@2@QAU32@@Z 00405190 f i 380ItemType.obj
 0001:00004190       ?_Insert_node@?$_Tree_val@U?$_Tree_simple_types@U?$pair@$$CBHUQUEST_DATA@@@std@@@std@@@std@@QAEPAU?$_Tree_node@U?$pair@$$CBHUQUEST_DATA@@@std@@PAX@2@U?$_Tree_id@PAU?$_Tree_node@U?$pair@$$CBHUQUEST_DATA@@@std@@PAX@std@@@2@QAU32@@Z 00405190 f i CommandManager.obj
 0001:00004190       ?_Insert_node@?$_Tree_val@U?$_Tree_simple_types@U?$pair@$$CBHUMAP_INFO@@@std@@@std@@@std@@QAEPAU?$_Tree_node@U?$pair@$$CBHUMAP_INFO@@@std@@PAX@2@U?$_Tree_id@PAU?$_Tree_node@U?$pair@$$CBHUMAP_INFO@@@std@@PAX@std@@@2@QAU32@@Z 00405190 f i Message.obj
 0001:00004190       ?_Insert_node@?$_Tree_val@U?$_Tree_simple_types@U?$pair@$$CBV?$basic_string@DU?$char_traits@D@std@@V?$allocator@D@2@@std@@UIP_ADDRESS_INFO@@@std@@@std@@@std@@QAEPAU?$_Tree_node@U?$pair@$$CBV?$basic_string@DU?$char_traits@D@std@@V?$allocator@D@2@@std@@UIP_ADDRESS_INFO@@@std@@PAX@2@U?$_Tree_id@PAU?$_Tree_node@U?$pair@$$CBV?$basic_string@DU?$char_traits@D@std@@V?$allocator@D@2@@std@@UIP_ADDRESS_INFO@@@std@@PAX@std@@@2@QAU32@@Z 00405190 f i IpManager.obj
 0001:00004190       ?_Insert_node@?$_Tree_val@U?$_Tree_simple_types@U?$pair@$$CBHUSOCKET_ITEM_TYPE_INFO@@@std@@@std@@@std@@QAEPAU?$_Tree_node@U?$pair@$$CBHUSOCKET_ITEM_TYPE_INFO@@@std@@PAX@2@U?$_Tree_id@PAU?$_Tree_node@U?$pair@$$CBHUSOCKET_ITEM_TYPE_INFO@@@std@@PAX@std@@@2@QAU32@@Z 00405190 f i SocketItemType.obj
 0001:00004190       ?_Insert_node@?$_Tree_val@U?$_Tree_simple_types@U?$pair@$$CBHPAVCUnionInfo@@@std@@@std@@@std@@QAEPAU?$_Tree_node@U?$pair@$$CBHPAVCUnionInfo@@@std@@PAX@2@U?$_Tree_id@PAU?$_Tree_node@U?$pair@$$CBHPAVCUnionInfo@@@std@@PAX@std@@@2@QAU32@@Z 00405190 f i Union.obj
 0001:00004190       ?_Insert_node@?$_Tree_val@U?$_Tree_simple_types@U?$pair@$$CBV?$basic_string@DU?$char_traits@D@std@@V?$allocator@D@2@@std@@UREGION_DATA@@@std@@@std@@@std@@QAEPAU?$_Tree_node@U?$pair@$$CBV?$basic_string@DU?$char_traits@D@std@@V?$allocator@D@2@@std@@UREGION_DATA@@@std@@PAX@2@U?$_Tree_id@PAU?$_Tree_node@U?$pair@$$CBV?$basic_string@DU?$char_traits@D@std@@V?$allocator@D@2@@std@@UREGION_DATA@@@std@@PAX@std@@@2@QAU32@@Z 00405190 f i RegionSystem.obj
 0001:00004190       ?_Insert_node@?$_Tree_val@U?$_Tree_simple_types@U?$pair@$$CBHUITEM_INFO@@@std@@@std@@@std@@QAEPAU?$_Tree_node@U?$pair@$$CBHUITEM_INFO@@@std@@PAX@2@U?$_Tree_id@PAU?$_Tree_node@U?$pair@$$CBHUITEM_INFO@@@std@@PAX@std@@@2@QAU32@@Z 00405190 f i ItemManager.obj
 0001:00004190       ?_Insert_node@?$_Tree_val@U?$_Tree_simple_types@U?$pair@$$CBHUGATE_INFO@@@std@@@std@@@std@@QAEPAU?$_Tree_node@U?$pair@$$CBHUGATE_INFO@@@std@@PAX@2@U?$_Tree_id@PAU?$_Tree_node@U?$pair@$$CBHUGATE_INFO@@@std@@PAX@std@@@2@QAU32@@Z 00405190 f i Gate.obj
 0001:00004190       ?_Insert_node@?$_Tree_val@U?$_Tree_simple_types@U?$pair@$$CBHUITEM_EXCELLENT_RATE_INFO@@@std@@@std@@@std@@QAEPAU?$_Tree_node@U?$pair@$$CBHUITEM_EXCELLENT_RATE_INFO@@@std@@PAX@2@U?$_Tree_id@PAU?$_Tree_node@U?$pair@$$CBHUITEM_EXCELLENT_RATE_INFO@@@std@@PAX@std@@@2@QAU32@@Z 00405190 f i ItemOptionRate.obj
 0001:00004190       ?_Insert_node@?$_Tree_val@U?$_Tree_simple_types@U?$pair@$$CBGUTELEPORT_PANEL_INFO@@@std@@@std@@@std@@QAEPAU?$_Tree_node@U?$pair@$$CBGUTELEPORT_PANEL_INFO@@@std@@PAX@2@U?$_Tree_id@PAU?$_Tree_node@U?$pair@$$CBGUTELEPORT_PANEL_INFO@@@std@@PAX@std@@@2@QAU32@@Z 00405190 f i TeleportPanel.obj
 0001:00004190       ?_Insert_node@?$_Tree_val@U?$_Tree_simple_types@U?$pair@$$CBV?$basic_string@DU?$char_traits@D@std@@V?$allocator@D@2@@std@@URECONNECT_INFO@@@std@@@std@@@std@@QAEPAU?$_Tree_node@U?$pair@$$CBV?$basic_string@DU?$char_traits@D@std@@V?$allocator@D@2@@std@@URECONNECT_INFO@@@std@@PAX@2@U?$_Tree_id@PAU?$_Tree_node@U?$pair@$$CBV?$basic_string@DU?$char_traits@D@std@@V?$allocator@D@2@@std@@URECONNECT_INFO@@@std@@PAX@std@@@2@QAU32@@Z 00405190 f i Reconnect.obj
 0001:00004190       ?_Insert_node@?$_Tree_val@U?$_Tree_simple_types@U?$pair@$$CBHUITEM_OPTION0_RATE_INFO@@@std@@@std@@@std@@QAEPAU?$_Tree_node@U?$pair@$$CBHUITEM_OPTION0_RATE_INFO@@@std@@PAX@2@U?$_Tree_id@PAU?$_Tree_node@U?$pair@$$CBHUITEM_OPTION0_RATE_INFO@@@std@@PAX@std@@@2@QAU32@@Z 00405190 f i ItemOptionRate.obj
 0001:00004190       ?_Insert_node@?$_Tree_val@U?$_Tree_simple_types@U?$pair@$$CBHUInvasionsData@@@std@@@std@@@std@@QAEPAU?$_Tree_node@U?$pair@$$CBHUInvasionsData@@@std@@PAX@2@U?$_Tree_id@PAU?$_Tree_node@U?$pair@$$CBHUInvasionsData@@@std@@PAX@std@@@2@QAU32@@Z 00405190 f i ActiveInvasions.obj
 0001:00004190       ?_Insert_node@?$_Tree_val@U?$_Tree_simple_types@U?$pair@$$CBHUSKILL_INFO@@@std@@@std@@@std@@QAEPAU?$_Tree_node@U?$pair@$$CBHUSKILL_INFO@@@std@@PAX@2@U?$_Tree_id@PAU?$_Tree_node@U?$pair@$$CBHUSKILL_INFO@@@std@@PAX@std@@@2@QAU32@@Z 00405190 f i SkillManager.obj
 0001:00004190       ?_Insert_node@?$_Tree_val@U?$_Tree_simple_types@U?$pair@$$CBV?$basic_string@DU?$char_traits@D@std@@V?$allocator@D@2@@std@@UHardwareId_INFO@@@std@@@std@@@std@@QAEPAU?$_Tree_node@U?$pair@$$CBV?$basic_string@DU?$char_traits@D@std@@V?$allocator@D@2@@std@@UHardwareId_INFO@@@std@@PAX@2@U?$_Tree_id@PAU?$_Tree_node@U?$pair@$$CBV?$basic_string@DU?$char_traits@D@std@@V?$allocator@D@2@@std@@UHardwareId_INFO@@@std@@PAX@std@@@2@QAU32@@Z 00405190 f i HwidManager.obj
 0001:00004190       ?_Insert_node@?$_Tree_val@U?$_Tree_simple_types@U?$pair@$$CBHV?$map@HV?$vector@UMONSTER_SET_BASE_INFO@@V?$allocator@UMONSTER_SET_BASE_INFO@@@std@@@std@@U?$less@H@2@V?$allocator@U?$pair@$$CBHV?$vector@UMONSTER_SET_BASE_INFO@@V?$allocator@UMONSTER_SET_BASE_INFO@@@std@@@std@@@std@@@2@@std@@@std@@@std@@@std@@QAEPAU?$_Tree_node@U?$pair@$$CBHV?$map@HV?$vector@UMONSTER_SET_BASE_INFO@@V?$allocator@UMONSTER_SET_BASE_INFO@@@std@@@std@@U?$less@H@2@V?$allocator@U?$pair@$$CBHV?$vector@UMONSTER_SET_BASE_INFO@@V?$allocator@UMONSTER_SET_BASE_INFO@@@std@@@std@@@std@@@2@@std@@@std@@PAX@2@U?$_Tree_id@PAU?$_Tree_node@U?$pair@$$CBHV?$map@HV?$vector@UMONSTER_SET_BASE_INFO@@V?$allocator@UMONSTER_SET_BASE_INFO@@@std@@@std@@U?$less@H@2@V?$allocator@U?$pair@$$CBHV?$vector@UMONSTER_SET_BASE_INFO@@V?$allocator@UMONSTER_SET_BASE_INFO@@@std@@@std@@@std@@@2@@std@@@std@@PAX@std@@@2@QAU32@@Z 00405190 f i MonsterSetBase.obj
 0001:00004190       ?_Insert_node@?$_Tree_val@U?$_Tree_simple_types@U?$pair@$$CBHUITEM_OPTION6_RATE_INFO@@@std@@@std@@@std@@QAEPAU?$_Tree_node@U?$pair@$$CBHUITEM_OPTION6_RATE_INFO@@@std@@PAX@2@U?$_Tree_id@PAU?$_Tree_node@U?$pair@$$CBHUITEM_OPTION6_RATE_INFO@@@std@@PAX@std@@@2@QAU32@@Z 00405190 f i ItemOptionRate.obj
 0001:00004190       ?_Insert_node@?$_Tree_val@U?$_Tree_simple_types@U?$pair@$$CBHUSHOP_MANAGER_INFO@@@std@@@std@@@std@@QAEPAU?$_Tree_node@U?$pair@$$CBHUSHOP_MANAGER_INFO@@@std@@PAX@2@U?$_Tree_id@PAU?$_Tree_node@U?$pair@$$CBHUSHOP_MANAGER_INFO@@@std@@PAX@std@@@2@QAU32@@Z 00405190 f i ShopManager.obj
 0001:00004190       ?_Insert_node@?$_Tree_val@U?$_Tree_simple_types@U?$pair@$$CBHUMOVE_INFO@@@std@@@std@@@std@@QAEPAU?$_Tree_node@U?$pair@$$CBHUMOVE_INFO@@@std@@PAX@2@U?$_Tree_id@PAU?$_Tree_node@U?$pair@$$CBHUMOVE_INFO@@@std@@PAX@std@@@2@QAU32@@Z 00405190 f i Move.obj
 0001:00004190       ?_Insert_node@?$_Tree_val@U?$_Tree_simple_types@U?$pair@$$CBHV?$vector@UITEM_BAG_EX_ITEM_INFO@@V?$allocator@UITEM_BAG_EX_ITEM_INFO@@@std@@@std@@@std@@@std@@@std@@QAEPAU?$_Tree_node@U?$pair@$$CBHV?$vector@UITEM_BAG_EX_ITEM_INFO@@V?$allocator@UITEM_BAG_EX_ITEM_INFO@@@std@@@std@@@std@@PAX@2@U?$_Tree_id@PAU?$_Tree_node@U?$pair@$$CBHV?$vector@UITEM_BAG_EX_ITEM_INFO@@V?$allocator@UITEM_BAG_EX_ITEM_INFO@@@std@@@std@@@std@@PAX@std@@@2@QAU32@@Z 00405190 f i ItemBagEx.obj
 0001:00004190       ?_Insert_node@?$_Tree_val@U?$_Tree_simple_types@U?$pair@$$CBHUMASTER_SKILL_TREE_INFO@@@std@@@std@@@std@@QAEPAU?$_Tree_node@U?$pair@$$CBHUMASTER_SKILL_TREE_INFO@@@std@@PAX@2@U?$_Tree_id@PAU?$_Tree_node@U?$pair@$$CBHUMASTER_SKILL_TREE_INFO@@@std@@PAX@std@@@2@QAU32@@Z 00405190 f i MasterSkillTree.obj
 0001:00004190       ?_Insert_node@?$_Tree_val@U?$_Tree_simple_types@U?$pair@$$CBHUITEM_OPTION2_RATE_INFO@@@std@@@std@@@std@@QAEPAU?$_Tree_node@U?$pair@$$CBHUITEM_OPTION2_RATE_INFO@@@std@@PAX@2@U?$_Tree_id@PAU?$_Tree_node@U?$pair@$$CBHUITEM_OPTION2_RATE_INFO@@@std@@PAX@std@@@2@QAU32@@Z 00405190 f i ItemOptionRate.obj
 0001:00004190       ?_Insert_node@?$_Tree_val@U?$_Tree_simple_types@U?$pair@$$CBV?$basic_string@DU?$char_traits@D@std@@V?$allocator@D@2@@std@@UREGISTERED_INFO@@@std@@@std@@@std@@QAEPAU?$_Tree_node@U?$pair@$$CBV?$basic_string@DU?$char_traits@D@std@@V?$allocator@D@2@@std@@UREGISTERED_INFO@@@std@@PAX@2@U?$_Tree_id@PAU?$_Tree_node@U?$pair@$$CBV?$basic_string@DU?$char_traits@D@std@@V?$allocator@D@2@@std@@UREGISTERED_INFO@@@std@@PAX@std@@@2@QAU32@@Z 00405190 f i PartySearch.obj
 0001:00004190       ?_Insert_node@?$_Tree_val@U?$_Tree_simple_types@U?$pair@$$CBHUITEM_OPTION5_RATE_INFO@@@std@@@std@@@std@@QAEPAU?$_Tree_node@U?$pair@$$CBHUITEM_OPTION5_RATE_INFO@@@std@@PAX@2@U?$_Tree_id@PAU?$_Tree_node@U?$pair@$$CBHUITEM_OPTION5_RATE_INFO@@@std@@PAX@std@@@2@QAU32@@Z 00405190 f i ItemOptionRate.obj
 0001:00004190       ?_Insert_node@?$_Tree_val@U?$_Tree_simple_types@U?$pair@$$CBHH@std@@@std@@@std@@QAEPAU?$_Tree_node@U?$pair@$$CBHH@std@@PAX@2@U?$_Tree_id@PAU?$_Tree_node@U?$pair@$$CBHH@std@@PAX@std@@@2@QAU32@@Z 00405190 f i ItemBagManager.obj
 0001:00004190       ?_Insert_node@?$_Tree_val@U?$_Tree_simple_types@U?$pair@$$CBHUITEM_MOVE_INFO@@@std@@@std@@@std@@QAEPAU?$_Tree_node@U?$pair@$$CBHUITEM_MOVE_INFO@@@std@@PAX@2@U?$_Tree_id@PAU?$_Tree_node@U?$pair@$$CBHUITEM_MOVE_INFO@@@std@@PAX@std@@@2@QAU32@@Z 00405190 f i ItemMove.obj
 0001:00004190       ?_Insert_node@?$_Tree_val@U?$_Tree_simple_types@U?$pair@$$CBEUskill_data@CComboSkillData@@@std@@@std@@@std@@QAEPAU?$_Tree_node@U?$pair@$$CBEUskill_data@CComboSkillData@@@std@@PAX@2@U?$_Tree_id@PAU?$_Tree_node@U?$pair@$$CBEUskill_data@CComboSkillData@@@std@@PAX@std@@@2@QAU32@@Z 00405190 f i ComboSkillData.obj
 0001:00004190       ?_Insert_node@?$_Tree_val@U?$_Tree_simple_types@U?$pair@$$CBHUITEM_BAG_EX_INFO@@@std@@@std@@@std@@QAEPAU?$_Tree_node@U?$pair@$$CBHUITEM_BAG_EX_INFO@@@std@@PAX@2@U?$_Tree_id@PAU?$_Tree_node@U?$pair@$$CBHUITEM_BAG_EX_INFO@@@std@@PAX@std@@@2@QAU32@@Z 00405190 f i ItemBagEx.obj
 0001:00004190       ?_Insert_node@?$_Tree_val@U?$_Tree_simple_types@U?$pair@$$CBH_N@std@@@std@@@std@@QAEPAU?$_Tree_node@U?$pair@$$CBH_N@std@@PAX@2@U?$_Tree_id@PAU?$_Tree_node@U?$pair@$$CBH_N@std@@PAX@std@@@2@QAU32@@Z 00405190 f i Protection.obj
 0001:00004190       ?_Insert_node@?$_Tree_val@U?$_Tree_simple_types@U?$pair@$$CBHUITEM_BAG_MANAGER_INFO@@@std@@@std@@@std@@QAEPAU?$_Tree_node@U?$pair@$$CBHUITEM_BAG_MANAGER_INFO@@@std@@PAX@2@U?$_Tree_id@PAU?$_Tree_node@U?$pair@$$CBHUITEM_BAG_MANAGER_INFO@@@std@@PAX@std@@@2@QAU32@@Z 00405190 f i ItemBagManager.obj
 0001:00004190       ?_Insert_node@?$_Tree_val@U?$_Tree_simple_types@U?$pair@$$CBHUQUEUE_TIMER_INFO@@@std@@@std@@@std@@QAEPAU?$_Tree_node@U?$pair@$$CBHUQUEUE_TIMER_INFO@@@std@@PAX@2@U?$_Tree_id@PAU?$_Tree_node@U?$pair@$$CBHUQUEUE_TIMER_INFO@@@std@@PAX@std@@@2@QAU32@@Z 00405190 f i QueueTimer.obj
 0001:00004190       ?_Insert_node@?$_Tree_val@U?$_Tree_simple_types@U?$pair@$$CBHUITEM_OPTION3_RATE_INFO@@@std@@@std@@@std@@QAEPAU?$_Tree_node@U?$pair@$$CBHUITEM_OPTION3_RATE_INFO@@@std@@PAX@2@U?$_Tree_id@PAU?$_Tree_node@U?$pair@$$CBHUITEM_OPTION3_RATE_INFO@@@std@@PAX@std@@@2@QAU32@@Z 00405190 f i ItemOptionRate.obj
 0001:00004190       ?_Insert_node@?$_Tree_val@U?$_Tree_simple_types@U?$pair@$$CBV?$basic_string@DU?$char_traits@D@std@@V?$allocator@D@2@@std@@PAUGUILD_INFO_STRUCT@@@std@@@std@@@std@@QAEPAU?$_Tree_node@U?$pair@$$CBV?$basic_string@DU?$char_traits@D@std@@V?$allocator@D@2@@std@@PAUGUILD_INFO_STRUCT@@@std@@PAX@2@U?$_Tree_id@PAU?$_Tree_node@U?$pair@$$CBV?$basic_string@DU?$char_traits@D@std@@V?$allocator@D@2@@std@@PAUGUILD_INFO_STRUCT@@@std@@PAX@std@@@2@QAU32@@Z 00405190 f i GuildClass.obj
 0001:00004190       ?_Insert_node@?$_Tree_val@U?$_Tree_simple_types@U?$pair@$$CBHUITEM_OPTION1_RATE_INFO@@@std@@@std@@@std@@QAEPAU?$_Tree_node@U?$pair@$$CBHUITEM_OPTION1_RATE_INFO@@@std@@PAX@2@U?$_Tree_id@PAU?$_Tree_node@U?$pair@$$CBHUITEM_OPTION1_RATE_INFO@@@std@@PAX@std@@@2@QAU32@@Z 00405190 f i ItemOptionRate.obj
 0001:00004190       ?_Insert_node@?$_Tree_val@U?$_Tree_simple_types@U?$pair@$$CBHPAUGUILD_INFO_STRUCT@@@std@@@std@@@std@@QAEPAU?$_Tree_node@U?$pair@$$CBHPAUGUILD_INFO_STRUCT@@@std@@PAX@2@U?$_Tree_id@PAU?$_Tree_node@U?$pair@$$CBHPAUGUILD_INFO_STRUCT@@@std@@PAX@std@@@2@QAU32@@Z 00405190 f i GuildClass.obj
 0001:00004190       ?_Insert_node@?$_Tree_val@U?$_Tree_simple_types@U?$pair@$$CBHUMAP_MANAGER_INFO@@@std@@@std@@@std@@QAEPAU?$_Tree_node@U?$pair@$$CBHUMAP_MANAGER_INFO@@@std@@PAX@2@U?$_Tree_id@PAU?$_Tree_node@U?$pair@$$CBHUMAP_MANAGER_INFO@@@std@@PAX@std@@@2@QAU32@@Z 00405190 f i MapManager.obj
 0001:00004190       ?_Insert_node@?$_Tree_val@U?$_Tree_simple_types@U?$pair@$$CBHUMESSAGE_INFO@@@std@@@std@@@std@@QAEPAU?$_Tree_node@U?$pair@$$CBHUMESSAGE_INFO@@@std@@PAX@2@U?$_Tree_id@PAU?$_Tree_node@U?$pair@$$CBHUMESSAGE_INFO@@@std@@PAX@std@@@2@QAU32@@Z 00405190 f i Message.obj
 0001:000043a0       ??1?$_Alloc_construct_ptr@V?$allocator@U?$_Tree_node@U?$pair@$$CBHUITEM_BAG_EX_INFO@@@std@@PAX@std@@@std@@@std@@QAE@XZ 004053a0 f i ItemBagEx.obj
 0001:000043a0       ??1?$_Alloc_construct_ptr@V?$allocator@U?$_Tree_node@U?$pair@$$CBHUITEM_MOVE_INFO@@@std@@PAX@std@@@std@@@std@@QAE@XZ 004053a0 f i ItemMove.obj
 0001:000043a0       ??1?$_Alloc_construct_ptr@V?$allocator@U?$_Tree_node@U?$pair@$$CBHUITEM_380_TYPE_INFO@@@std@@PAX@std@@@std@@@std@@QAE@XZ 004053a0 f i 380ItemType.obj
 0001:000043c0       ?_Throw_tree_length_error@std@@YAXXZ 004053c0 f i 380ItemType.obj
 0001:000043d0       ??0bad_array_new_length@std@@QAE@XZ 004053d0 f i 380ItemType.obj
 0001:000043f0       ??1bad_array_new_length@std@@UAE@XZ 004053f0 f i 380ItemType.obj
 0001:000043f0       ??1failure@ios_base@std@@UAE@XZ 004053f0 f i computerHash.obj
 0001:000043f0       ??1length_error@std@@UAE@XZ 004053f0 f i libcpmt:xthrow.obj
 0001:000043f0       ??1out_of_range@std@@UAE@XZ 004053f0 f i libcpmt:xthrow.obj
 0001:000043f0       ??1bad_alloc@std@@UAE@XZ   004053f0 f i 380ItemType.obj
 0001:000043f0       ??1bad_exception@std@@UAE@XZ 004053f0 f i libvcruntime:frame.obj
 0001:000043f0       ??1runtime_error@std@@UAE@XZ 004053f0 f i computerHash.obj
 0001:000043f0       ??1system_error@std@@UAE@XZ 004053f0 f i computerHash.obj
 0001:00004410       ??_Eexception@std@@UAEPAXI@Z 00405410 f i * CIL library *:* CIL module *
 0001:00004410       ??_Eruntime_error@std@@UAEPAXI@Z 00405410 f i * CIL library *:* CIL module *
 0001:00004410       ??_Gbad_alloc@std@@UAEPAXI@Z 00405410 f i 380ItemType.obj
 0001:00004410       ??_Ebad_alloc@std@@UAEPAXI@Z 00405410 f i * CIL library *:* CIL module *
 0001:00004410       ??_Gruntime_error@std@@UAEPAXI@Z 00405410 f i computerHash.obj
 0001:00004410       ??_Ebad_array_new_length@std@@UAEPAXI@Z 00405410 f i * CIL library *:* CIL module *
 0001:00004410       ??_Gexception@std@@UAEPAXI@Z 00405410 f i 380ItemType.obj
 0001:00004410       ??_Gbad_array_new_length@std@@UAEPAXI@Z 00405410 f i 380ItemType.obj
 0001:00004440       ??0bad_array_new_length@std@@QAE@ABV01@@Z 00405440 f i 380ItemType.obj
 0001:00004480       ??0bad_alloc@std@@QAE@ABV01@@Z 00405480 f i 380ItemType.obj
 0001:000044c0       ?what@exception@std@@UBEPBDXZ 004054c0 f i 380ItemType.obj
 0001:000044d0       ??0exception@std@@QAE@ABV01@@Z 004054d0 f i 380ItemType.obj
 0001:00004500       ?_Throw_bad_array_new_length@std@@YAXXZ 00405500 f i 380ItemType.obj
 0001:00004500       ?__scrt_throw_std_bad_array_new_length@@YAXXZ 00405500 f i LIBCMT:throw_bad_alloc.obj
 0001:00004520       ?Read@CAchievements@@QAEXPAD@Z 00405520 f   Achievements.obj
 0001:00004f90       ?GCSettingsData@CAchievements@@QAEXH@Z 00405f90 f   Achievements.obj
 0001:000051c0       ?GCPlayerData@CAchievements@@QAEXH_N@Z 004061c0 f   Achievements.obj
 0001:00005290       ?PlayerReward@CAchievements@@QAEXHH@Z 00406290 f   Achievements.obj
 0001:00005630       ?ImperialGuardianEvent@CAchievements@@QAEXHH@Z 00406630 f   Achievements.obj
 0001:00005730       ?MonsterKill@CAchievements@@QAEXHH@Z 00406730 f   Achievements.obj
 0001:00006220       ?PlayerKill@CAchievements@@QAEXHH@Z 00407220 f   Achievements.obj
 0001:00006480       ?PickUp@CAchievements@@QAEXHHHHHH@Z 00407480 f   Achievements.obj
 0001:00006750       ?UsedJewel@CAchievements@@QAEXH@Z 00407750 f   Achievements.obj
 0001:00006830       ?LevelUp@CAchievements@@QAEXH@Z 00407830 f   Achievements.obj
 0001:000069e0       ?MootopVoteUp@CAchievements@@QAEXH@Z 004079e0 f   Achievements.obj
 0001:00006ae0       ?BuyDonateShopItem@CAchievements@@QAEXHH@Z 00407ae0 f   Achievements.obj
 0001:00006c10       ?CalculatorPower@CAchievements@@QAEXH@Z 00407c10 f   Achievements.obj
 0001:00006ea0       ??1?$vector@UACHIEVEMENTS_INFO@@V?$allocator@UACHIEVEMENTS_INFO@@@std@@@std@@QAE@XZ 00407ea0 f i Achievements.obj
 0001:00006f10       ?_Xrange@?$vector@UACHIEVEMENTS_INFO@@V?$allocator@UACHIEVEMENTS_INFO@@@std@@@std@@CAXXZ 00407f10 f i Achievements.obj
 0001:00006f10       ?_Xrange@?$vector@URAND_MONSTERCALL_INFO@@V?$allocator@URAND_MONSTERCALL_INFO@@@std@@@std@@CAXXZ 00407f10 f i RandomMonsterCall.obj
 0001:00006f20       ??$_Emplace_reallocate@AAUACHIEVEMENTS_INFO@@@?$vector@UACHIEVEMENTS_INFO@@V?$allocator@UACHIEVEMENTS_INFO@@@std@@@std@@QAEPAUACHIEVEMENTS_INFO@@QAU2@AAU2@@Z 00407f20 f i Achievements.obj
 0001:000070d0       ?_Xlength@?$vector@UBONUS_VALUE_INFO@@V?$allocator@UBONUS_VALUE_INFO@@@std@@@std@@CAXXZ 004080d0 f i BonusManager.obj
 0001:000070d0       ?_Xlength@?$vector@UItemToPointsData@@V?$allocator@UItemToPointsData@@@std@@@std@@CAXXZ 004080d0 f i ItemToPoints.obj
 0001:000070d0       ?_Xlength@?$vector@UITEM_STACK_INFO@@V?$allocator@UITEM_STACK_INFO@@@std@@@std@@CAXXZ 004080d0 f i ItemStack.obj
 0001:000070d0       ?_Xlength@?$vector@PAUINVASION_MONSTER_INFO@@V?$allocator@PAUINVASION_MONSTER_INFO@@@std@@@std@@CAXXZ 004080d0 f i InvasionManager.obj
 0001:000070d0       ?_Xlength@?$vector@UOFFEXP_ITEMS@@V?$allocator@UOFFEXP_ITEMS@@@std@@@std@@CAXXZ 004080d0 f i CustomAttack.obj
 0001:000070d0       ?_Xlength@?$vector@UDAILY_REWARD_DATA@@V?$allocator@UDAILY_REWARD_DATA@@@std@@@std@@CAXXZ 004080d0 f i DailyReward.obj
 0001:000070d0       ?_Xlength@?$vector@UROULETTE_INFO@@V?$allocator@UROULETTE_INFO@@@std@@@std@@CAXXZ 004080d0 f i Roulette.obj
 0001:000070d0       ?_Xlength@?$vector@URANDOM_MANAGER_INFO@@V?$allocator@URANDOM_MANAGER_INFO@@@std@@@std@@CAXXZ 004080d0 f i RandomManager.obj
 0001:000070d0       ?_Xlength@?$vector@UBLOOD_CASTLE_START_TIME@@V?$allocator@UBLOOD_CASTLE_START_TIME@@@std@@@std@@CAXXZ 004080d0 f i BloodCastle.obj
 0001:000070d0       ?_Xlength@?$vector@URAND_MONSTERCALL_DATA@@V?$allocator@URAND_MONSTERCALL_DATA@@@std@@@std@@CAXXZ 004080d0 f i RandomMonsterCall.obj
 0001:000070d0       ?_Xlength@?$vector@UINVASION_START_TIME@@V?$allocator@UINVASION_START_TIME@@@std@@@std@@CAXXZ 004080d0 f i InvasionManager.obj
 0001:000070d0       ?_Xlength@?$vector@UEXPERIENCE_TABLE_INFO@@V?$allocator@UEXPERIENCE_TABLE_INFO@@@std@@@std@@CAXXZ 004080d0 f i ExperienceTable.obj
 0001:000070d0       ?_Xlength@?$vector@UACHIEVEMENTS_INFO@@V?$allocator@UACHIEVEMENTS_INFO@@@std@@@std@@CAXXZ 004080d0 f i Achievements.obj
 0001:000070d0       ?_Xlength@?$vector@UITEM_VALUE_INFO@@V?$allocator@UITEM_VALUE_INFO@@@std@@@std@@CAXXZ 004080d0 f i ItemValue.obj
 0001:000070d0       ?_Xlength@?$vector@UPVPZONE_DATA@@V?$allocator@UPVPZONE_DATA@@@std@@@std@@CAXXZ 004080d0 f i PVPZone.obj
 0001:000070d0       ?_Xlength@?$vector@UITEM_BAG_EX_DROP_INFO@@V?$allocator@UITEM_BAG_EX_DROP_INFO@@@std@@@std@@CAXXZ 004080d0 f i ItemBagEx.obj
 0001:000070d0       ?_Xlength@?$vector@UMOSS_MERCHANT_ITEM_INFO@@V?$allocator@UMOSS_MERCHANT_ITEM_INFO@@@std@@@std@@CAXXZ 004080d0 f i MossMerchant.obj
 0001:000070d0       ?_Xlength@?$vector@UITEM_DROP_INFO@@V?$allocator@UITEM_DROP_INFO@@@std@@@std@@CAXXZ 004080d0 f i ItemDrop.obj
 0001:000070d0       ?_Xlength@?$vector@UMMOTOP_DATA@@V?$allocator@UMMOTOP_DATA@@@std@@@std@@CAXXZ 004080d0 f i MMOTOP.obj
 0001:000070d0       ?_Xlength@?$vector@VCTime@ATL@@V?$allocator@VCTime@ATL@@@std@@@std@@CAXXZ 004080d0 f i ScheduleManager.obj
 0001:000070d0       ?_Xlength@?$vector@UCASTLE_DEEP_MONSTER@@V?$allocator@UCASTLE_DEEP_MONSTER@@@std@@@std@@CAXXZ 004080d0 f i CastleDeep.obj
 0001:000070d0       ?_Xlength@?$vector@UCUSTOM_EVENT_DROP_ITEM_INFO@@V?$allocator@UCUSTOM_EVENT_DROP_ITEM_INFO@@@std@@@std@@CAXXZ 004080d0 f i CustomEventDrop.obj
 0001:000070d0       ?_Xlength@?$vector@UCASTLE_DEEP_SPAWN@@V?$allocator@UCASTLE_DEEP_SPAWN@@@std@@@std@@CAXXZ 004080d0 f i CastleDeep.obj
 0001:000070d0       ?_Xlength@?$vector@UCUSTOM_JEWEL_ITEM_REPLACE_INFO@@V?$allocator@UCUSTOM_JEWEL_ITEM_REPLACE_INFO@@@std@@@std@@CAXXZ 004080d0 f i CustomJewel.obj
 0001:000070d0       ?_Xlength@?$vector@UOPTION_REPLACE_INFO@@V?$allocator@UOPTION_REPLACE_INFO@@@std@@@std@@CAXXZ 004080d0 f i OptionReplace.obj
 0001:000070d0       ?_Xlength@?$vector@UCSUM_LIST_INFO@@V?$allocator@UCSUM_LIST_INFO@@@std@@@std@@CAXXZ 004080d0 f i FileCheck.obj
 0001:000070d0       ?_Xlength@?$vector@USHOPPOINTEX_MONSTER@@V?$allocator@USHOPPOINTEX_MONSTER@@@std@@@std@@CAXXZ 004080d0 f i ShopPointEx.obj
 0001:000070d0       ?_Xlength@?$vector@URAND_MONSTERCALL_INFO@@V?$allocator@URAND_MONSTERCALL_INFO@@@std@@@std@@CAXXZ 004080d0 f i RandomMonsterCall.obj
 0001:000070d0       ?_Xlength@?$vector@UPackSystemData@@V?$allocator@UPackSystemData@@@std@@@std@@CAXXZ 004080d0 f i PackSystem.obj
 0001:000070d0       ?_Xlength@?$vector@UCASTLE_DEEP_GROUP@@V?$allocator@UCASTLE_DEEP_GROUP@@@std@@@std@@CAXXZ 004080d0 f i CastleDeep.obj
 0001:000070d0       ?_Xlength@?$vector@UILLUSION_TEMPLE_START_TIME@@V?$allocator@UILLUSION_TEMPLE_START_TIME@@@std@@@std@@CAXXZ 004080d0 f i IllusionTemple.obj
 0001:000070d0       ?_Xlength@?$vector@UREGISTERED_GUILD_INFO@@V?$allocator@UREGISTERED_GUILD_INFO@@@std@@@std@@CAXXZ 004080d0 f i Diablo.obj
 0001:000070d0       ?_Xlength@?$vector@UStartBuffData@@V?$allocator@UStartBuffData@@@std@@@std@@CAXXZ 004080d0 f i CustomStartItem.obj
 0001:000070d0       ?_Xlength@?$vector@URESPLOC_DATA@@V?$allocator@URESPLOC_DATA@@@std@@@std@@CAXXZ 004080d0 f i RespawnLocation.obj
 0001:000070d0       ?_Xlength@?$vector@UEVENTTIMER_INFO@@V?$allocator@UEVENTTIMER_INFO@@@std@@@std@@CAXXZ 004080d0 f i EventTimer.obj
 0001:000070d0       ?_Xlength@?$vector@UTVT_EVENT_START_TIME@@V?$allocator@UTVT_EVENT_START_TIME@@@std@@@std@@CAXXZ 004080d0 f i TvTEvent.obj
 0001:000070d0       ?_Xlength@?$vector@URESET_ITEM_REWARD_DATA@@V?$allocator@URESET_ITEM_REWARD_DATA@@@std@@@std@@CAXXZ 004080d0 f i ResetSystem.obj
 0001:000070d0       ?_Xlength@?$vector@UITEM_BAG_EX_ITEM_INFO@@V?$allocator@UITEM_BAG_EX_ITEM_INFO@@@std@@@std@@CAXXZ 004080d0 f i ItemBagEx.obj
 0001:000070d0       ?_Xlength@?$vector@UITEM_OPTION_INFO@@V?$allocator@UITEM_OPTION_INFO@@@std@@@std@@CAXXZ 004080d0 f i ItemOption.obj
 0001:000070d0       ?_Xlength@?$vector@ULUCKY_ITEM_INFO@@V?$allocator@ULUCKY_ITEM_INFO@@@std@@@std@@CAXXZ 004080d0 f i LuckyItem.obj
 0001:000070d0       ?_Xlength@?$vector@URESET_TABLE_INFO@@V?$allocator@URESET_TABLE_INFO@@@std@@@std@@CAXXZ 004080d0 f i ResetTable.obj
 0001:000070d0       ?_Xlength@?$vector@UCUSTOM_ARENA_START_TIME@@V?$allocator@UCUSTOM_ARENA_START_TIME@@@std@@@std@@CAXXZ 004080d0 f i CustomArena.obj
 0001:000070d0       ?_Xlength@?$vector@UCUSTOM_WING_INFO@@V?$allocator@UCUSTOM_WING_INFO@@@std@@@std@@CAXXZ 004080d0 f i CustomWing.obj
 0001:000070d0       ?_Xlength@?$vector@UINVASION_MONSTER_INFO@@V?$allocator@UINVASION_MONSTER_INFO@@@std@@@std@@CAXXZ 004080d0 f i InvasionManager.obj
 0001:000070d0       ?_Xlength@?$vector@UCUSTOM_MONSTER_INFO@@V?$allocator@UCUSTOM_MONSTER_INFO@@@std@@@std@@CAXXZ 004080d0 f i CustomMonster.obj
 0001:000070d0       ?_Xlength@?$vector@UChaosTalisman@@V?$allocator@UChaosTalisman@@@std@@@std@@CAXXZ 004080d0 f i ChaosBoxManager.obj
 0001:000070d0       ?_Xlength@?$vector@PAUINVASION_RESPWAN_INFO@@V?$allocator@PAUINVASION_RESPWAN_INFO@@@std@@@std@@CAXXZ 004080d0 f i InvasionManager.obj
 0001:000070d0       ?_Xlength@?$vector@UChaosProduce@@V?$allocator@UChaosProduce@@@std@@@std@@CAXXZ 004080d0 f i ChaosBoxManager.obj
 0001:000070d0       ?_Xlength@?$vector@UStartItemData@@V?$allocator@UStartItemData@@@std@@@std@@CAXXZ 004080d0 f i CustomStartItem.obj
 0001:000070d0       ?_Xlength@?$vector@UCASTLE_DEEP_START_TIME@@V?$allocator@UCASTLE_DEEP_START_TIME@@@std@@@std@@CAXXZ 004080d0 f i CastleDeep.obj
 0001:000070d0       ?_Xlength@?$vector@PAVcChaosRecipe@@V?$allocator@PAVcChaosRecipe@@@std@@@std@@CAXXZ 004080d0 f i ChaosBoxManager.obj
 0001:000070d0       ?_Xlength@?$vector@UChaosCombination@@V?$allocator@UChaosCombination@@@std@@@std@@CAXXZ 004080d0 f i ChaosBoxManager.obj
 0001:000070d0       ?_Xlength@?$vector@UADMIN_CHAT_DATA@@V?$allocator@UADMIN_CHAT_DATA@@@std@@@std@@CAXXZ 004080d0 f i AdminChat.obj
 0001:000070d0       ?_Xlength@?$vector@USDHP_RANKINGS_INFO@@V?$allocator@USDHP_RANKINGS_INFO@@@std@@@std@@CAXXZ 004080d0 f i Rankings.obj
 0001:000070d0       ?_Xlength@?$vector@USmithyDATA@@V?$allocator@USmithyDATA@@@std@@@std@@CAXXZ 004080d0 f i Smithy.obj
 0001:000070d0       ?_Xlength@?$vector@V?$basic_string@DU?$char_traits@D@std@@V?$allocator@D@2@@std@@V?$allocator@V?$basic_string@DU?$char_traits@D@std@@V?$allocator@D@2@@std@@@2@@std@@CAXXZ 004080d0 f i Filter.obj
 0001:000070d0       ?_Xlength@?$vector@UMARRY_ITEM@@V?$allocator@UMARRY_ITEM@@@std@@@std@@CAXXZ 004080d0 f i Marry.obj
 0001:000070d0       ?_Xlength@?$vector@UINVASION_RESPWAN_INFO@@V?$allocator@UINVASION_RESPWAN_INFO@@@std@@@std@@CAXXZ 004080d0 f i InvasionManager.obj
 0001:000070d0       ?_Xlength@?$vector@UCUSTOM_EVENT_DROP_START_TIME@@V?$allocator@UCUSTOM_EVENT_DROP_START_TIME@@@std@@@std@@CAXXZ 004080d0 f i CustomEventDrop.obj
 0001:000070d0       ?_Xlength@?$vector@UPICKUP@@V?$allocator@UPICKUP@@@std@@@std@@CAXXZ 004080d0 f i Pickup.obj
 0001:000070d0       ?_Xlength@?$vector@UTELEPORTS_COMMAND_DATA@@V?$allocator@UTELEPORTS_COMMAND_DATA@@@std@@@std@@CAXXZ 004080d0 f i NPCTeleport.obj
 0001:000070d0       ?_Xlength@?$vector@UMOSS_MERCHANT_START_TIME@@V?$allocator@UMOSS_MERCHANT_START_TIME@@@std@@@std@@CAXXZ 004080d0 f i MossMerchant.obj
 0001:000070d0       ?_Xlength@?$vector@UChaosIngredient@@V?$allocator@UChaosIngredient@@@std@@@std@@CAXXZ 004080d0 f i ChaosBoxManager.obj
 0001:000070d0       ?_Xlength@?$vector@UDEVIL_SQUARE_START_TIME@@V?$allocator@UDEVIL_SQUARE_START_TIME@@@std@@@std@@CAXXZ 004080d0 f i DevilSquare.obj
 0001:000070d0       ?_Xlength@?$vector@UBLOOD_CASTLE_DELAY_SCORE@@V?$allocator@UBLOOD_CASTLE_DELAY_SCORE@@@std@@@std@@CAXXZ 004080d0 f i BloodCastle.obj
 0001:000070d0       ?_Xlength@?$vector@USKILLS_INFO@@V?$allocator@USKILLS_INFO@@@std@@@std@@CAXXZ 004080d0 f i OfflineMode.obj
 0001:000070d0       ?_Xlength@?$vector@HV?$allocator@H@std@@@std@@CAXXZ 004080d0 f i ComboSkillData.obj
 0001:000070d0       ?_Xlength@?$vector@PAVCMapServerData@@V?$allocator@PAVCMapServerData@@@std@@@std@@CAXXZ 004080d0 f i MapServerManager.obj
 0001:000070d0       ?_Xlength@?$vector@UMOVE_SUMMON_INFO@@V?$allocator@UMOVE_SUMMON_INFO@@@std@@@std@@CAXXZ 004080d0 f i MoveSummon.obj
 0001:000070d0       ?_Xlength@?$vector@USUPERPOINTS_INFO@@V?$allocator@USUPERPOINTS_INFO@@@std@@@std@@CAXXZ 004080d0 f i SuperPoints.obj
 0001:000070d0       ?_Xlength@?$vector@UCHAOS_CASTLE_DELAY_SCORE@@V?$allocator@UCHAOS_CASTLE_DELAY_SCORE@@@std@@@std@@CAXXZ 004080d0 f i ChaosCastle.obj
 0001:000070d0       ?_Xlength@?$vector@UCHAOS_CASTLE_START_TIME@@V?$allocator@UCHAOS_CASTLE_START_TIME@@@std@@@std@@CAXXZ 004080d0 f i ChaosCastle.obj
 0001:000070d0       ?_Xlength@?$vector@UBOTS_DATA@@V?$allocator@UBOTS_DATA@@@std@@@std@@CAXXZ 004080d0 f i MonsterSpawn.obj
 0001:000070d0       ?_Xlength@?$vector@UMONSTER_SET_BASE_INFO@@V?$allocator@UMONSTER_SET_BASE_INFO@@@std@@@std@@CAXXZ 004080d0 f i MonsterSetBase.obj
 0001:000070d0       ?_Xlength@?$vector@UCALL_INFO@@V?$allocator@UCALL_INFO@@@std@@@std@@CAXXZ 004080d0 f i MonsterCall.obj
 0001:000070d0       ?_Xlength@?$vector@UTELEPORTS_NPC_DATA@@V?$allocator@UTELEPORTS_NPC_DATA@@@std@@@std@@CAXXZ 004080d0 f i NPCTeleport.obj
 0001:000070d0       ?_Xlength@?$vector@UPREMIUM_DROP_INFO@@V?$allocator@UPREMIUM_DROP_INFO@@@std@@@std@@CAXXZ 004080d0 f i PremiumDrop.obj
 0001:000070d0       ?_Xlength@?$vector@UBONUS_START_TIME@@V?$allocator@UBONUS_START_TIME@@@std@@@std@@CAXXZ 004080d0 f i BonusManager.obj
 0001:000070e0       ?monster_add@CActiveInvasions@@QAEXH@Z 004080e0 f   ActiveInvasions.obj
 0001:00007260       ?monster_del@CActiveInvasions@@QAEXH_N@Z 00408260 f   ActiveInvasions.obj
 0001:00007450       ?send_list_to_client@CActiveInvasions@@QBEXXZ 00408450 f   ActiveInvasions.obj
 0001:000075b0       ?clear@?$_Tree@V?$_Tmap_traits@HUInvasionsData@@U?$less@H@std@@V?$allocator@U?$pair@$$CBHUInvasionsData@@@std@@@3@$0A@@std@@@std@@QAEXXZ 004085b0 f i ActiveInvasions.obj
 0001:00007600       ?erase@?$_Tree@V?$_Tmap_traits@HUInvasionsData@@U?$less@H@std@@V?$allocator@U?$pair@$$CBHUInvasionsData@@@std@@@3@$0A@@std@@@std@@QAEIABH@Z 00408600 f i ActiveInvasions.obj
 0001:00007790       ??1?$_Tree@V?$_Tmap_traits@HUSOCKET_ITEM_TYPE_INFO@@U?$less@H@std@@V?$allocator@U?$pair@$$CBHUSOCKET_ITEM_TYPE_INFO@@@std@@@3@$0A@@std@@@std@@QAE@XZ 00408790 f i SocketItemType.obj
 0001:00007790       ??1?$_Tree@V?$_Tmap_traits@HUQUEUE_TIMER_INFO@@U?$less@H@std@@V?$allocator@U?$pair@$$CBHUQUEUE_TIMER_INFO@@@std@@@3@$0A@@std@@@std@@QAE@XZ 00408790 f i QueueTimer.obj
 0001:00007790       ??1?$_Tree@V?$_Tmap_traits@HUInvasionsData@@U?$less@H@std@@V?$allocator@U?$pair@$$CBHUInvasionsData@@@std@@@3@$0A@@std@@@std@@QAE@XZ 00408790 f i ActiveInvasions.obj
 0001:000077d0       ?_Extract@?$_Tree_val@U?$_Tree_simple_types@U?$pair@$$CBV?$basic_string@DU?$char_traits@D@std@@V?$allocator@D@2@@std@@URECONNECT_INFO@@@std@@@std@@@std@@QAEPAU?$_Tree_node@U?$pair@$$CBV?$basic_string@DU?$char_traits@D@std@@V?$allocator@D@2@@std@@URECONNECT_INFO@@@std@@PAX@2@V?$_Tree_unchecked_const_iterator@V?$_Tree_val@U?$_Tree_simple_types@U?$pair@$$CBV?$basic_string@DU?$char_traits@D@std@@V?$allocator@D@2@@std@@URECONNECT_INFO@@@std@@@std@@@std@@U_Iterator_base0@2@@2@@Z 004087d0 f i Reconnect.obj
 0001:000077d0       ?_Extract@?$_Tree_val@U?$_Tree_simple_types@U?$pair@$$CBHPAVCUnionInfo@@@std@@@std@@@std@@QAEPAU?$_Tree_node@U?$pair@$$CBHPAVCUnionInfo@@@std@@PAX@2@V?$_Tree_unchecked_const_iterator@V?$_Tree_val@U?$_Tree_simple_types@U?$pair@$$CBHPAVCUnionInfo@@@std@@@std@@@std@@U_Iterator_base0@2@@2@@Z 004087d0 f i Union.obj
 0001:000077d0       ?_Extract@?$_Tree_val@U?$_Tree_simple_types@U?$pair@$$CBHUInvasionsData@@@std@@@std@@@std@@QAEPAU?$_Tree_node@U?$pair@$$CBHUInvasionsData@@@std@@PAX@2@V?$_Tree_unchecked_const_iterator@V?$_Tree_val@U?$_Tree_simple_types@U?$pair@$$CBHUInvasionsData@@@std@@@std@@@std@@U_Iterator_base0@2@@2@@Z 004087d0 f i ActiveInvasions.obj
 0001:00007bf0       ??$_Erase_tree@V?$allocator@U?$_Tree_node@U?$pair@$$CBHUSOCKET_ITEM_TYPE_INFO@@@std@@PAX@std@@@std@@@?$_Tree_val@U?$_Tree_simple_types@U?$pair@$$CBHUSOCKET_ITEM_TYPE_INFO@@@std@@@std@@@std@@QAEXAAV?$allocator@U?$_Tree_node@U?$pair@$$CBHUSOCKET_ITEM_TYPE_INFO@@@std@@PAX@std@@@1@PAU?$_Tree_node@U?$pair@$$CBHUSOCKET_ITEM_TYPE_INFO@@@std@@PAX@1@@Z 00408bf0 f i SocketItemType.obj
 0001:00007bf0       ??$_Erase_tree@V?$allocator@U?$_Tree_node@U?$pair@$$CBHUQUEUE_TIMER_INFO@@@std@@PAX@std@@@std@@@?$_Tree_val@U?$_Tree_simple_types@U?$pair@$$CBHUQUEUE_TIMER_INFO@@@std@@@std@@@std@@QAEXAAV?$allocator@U?$_Tree_node@U?$pair@$$CBHUQUEUE_TIMER_INFO@@@std@@PAX@std@@@1@PAU?$_Tree_node@U?$pair@$$CBHUQUEUE_TIMER_INFO@@@std@@PAX@1@@Z 00408bf0 f i QueueTimer.obj
 0001:00007bf0       ??$_Erase_tree@V?$allocator@U?$_Tree_node@U?$pair@$$CBHUInvasionsData@@@std@@PAX@std@@@std@@@?$_Tree_val@U?$_Tree_simple_types@U?$pair@$$CBHUInvasionsData@@@std@@@std@@@std@@QAEXAAV?$allocator@U?$_Tree_node@U?$pair@$$CBHUInvasionsData@@@std@@PAX@std@@@1@PAU?$_Tree_node@U?$pair@$$CBHUInvasionsData@@@std@@PAX@1@@Z 00408bf0 f i ActiveInvasions.obj
 0001:00007c30       ??1?$_Alloc_construct_ptr@V?$allocator@U?$_Tree_node@U?$pair@$$CBHUSOCKET_ITEM_TYPE_INFO@@@std@@PAX@std@@@std@@@std@@QAE@XZ 00408c30 f i SocketItemType.obj
 0001:00007c30       ??1?$_Alloc_construct_ptr@V?$allocator@U?$_Tree_node@U?$pair@$$CBHV?$map@HV?$vector@UMONSTER_SET_BASE_INFO@@V?$allocator@UMONSTER_SET_BASE_INFO@@@std@@@std@@U?$less@H@2@V?$allocator@U?$pair@$$CBHV?$vector@UMONSTER_SET_BASE_INFO@@V?$allocator@UMONSTER_SET_BASE_INFO@@@std@@@std@@@std@@@2@@std@@@std@@PAX@std@@@std@@@std@@QAE@XZ 00408c30 f i MonsterSetBase.obj
 0001:00007c30       ??1?$_Alloc_construct_ptr@V?$allocator@U?$_Tree_node@U?$pair@$$CBHUQUEUE_TIMER_INFO@@@std@@PAX@std@@@std@@@std@@QAE@XZ 00408c30 f i QueueTimer.obj
 0001:00007c30       ??1?$_Tree_temp_node_alloc@V?$allocator@U?$_Tree_node@U?$pair@$$CBHV?$map@HV?$vector@UMONSTER_SET_BASE_INFO@@V?$allocator@UMONSTER_SET_BASE_INFO@@@std@@@std@@U?$less@H@2@V?$allocator@U?$pair@$$CBHV?$vector@UMONSTER_SET_BASE_INFO@@V?$allocator@UMONSTER_SET_BASE_INFO@@@std@@@std@@@std@@@2@@std@@@std@@PAX@std@@@std@@@std@@QAE@XZ 00408c30 f i MonsterSetBase.obj
 0001:00007c30       ??1?$_Alloc_construct_ptr@V?$allocator@U?$_Tree_node@U?$pair@$$CBHUInvasionsData@@@std@@PAX@std@@@std@@@std@@QAE@XZ 00408c30 f i ActiveInvasions.obj
 0001:00007c50       ?StringToUTF8@CAdminChat@@SAHAAV?$CStringT@DV?$StrTraitATL@DV?$ChTraitsCRT@D@ATL@@@ATL@@@ATL@@@Z 00408c50 f   AdminChat.obj
 0001:00007e60       ?add_to_list@CAdminChat@@QAEXV?$basic_string@DU?$char_traits@D@std@@V?$allocator@D@2@@std@@0W4eChatType@@@Z 00408e60 f   AdminChat.obj
 0001:000085c0       ??1ADMIN_CHAT_DATA@@QAE@XZ 004095c0 f i AdminChat.obj
 0001:00008650       ?update_view@CAdminChat@@QAEXPAUHWND__@@0@Z 00409650 f   AdminChat.obj
 0001:00008850       ?gObjGetBySelectedIndex@CAdminChat@@QAEPAUOBJECTSTRUCT@@H@Z 00409850 f   AdminChat.obj
 0001:00008900       ??1?$vector@UADMIN_CHAT_DATA@@V?$allocator@UADMIN_CHAT_DATA@@@std@@@std@@QAE@XZ 00409900 f i AdminChat.obj
 0001:00008980       ?_Destroy@?$vector@UADMIN_CHAT_DATA@@V?$allocator@UADMIN_CHAT_DATA@@@std@@@std@@AAEXPAUADMIN_CHAT_DATA@@0@Z 00409980 f i AdminChat.obj
 0001:000089b0       ?deallocate@?$allocator@UADMIN_CHAT_DATA@@@std@@QAEXQAUADMIN_CHAT_DATA@@I@Z 004099b0 f i AdminChat.obj
 0001:000089f0       ??$?HDU?$char_traits@D@std@@V?$allocator@D@1@@std@@YA?AV?$basic_string@DU?$char_traits@D@std@@V?$allocator@D@2@@0@QBD$$QAV10@@Z 004099f0 f i AdminChat.obj
 0001:00008b00       ??$_Emplace_reallocate@AAUADMIN_CHAT_DATA@@@?$vector@UADMIN_CHAT_DATA@@V?$allocator@UADMIN_CHAT_DATA@@@std@@@std@@QAEPAUADMIN_CHAT_DATA@@QAU2@AAU2@@Z 00409b00 f i AdminChat.obj
 0001:00008d50       ??$_Traits_find@U?$char_traits@D@std@@@std@@YAIQBDII0I@Z 00409d50 f i AdminChat.obj
 0001:00008e40       ??4?$basic_string@DU?$char_traits@D@std@@V?$allocator@D@2@@std@@QAEAAV01@$$QAV01@@Z 00409e40 f i AdminChat.obj
 0001:00008ec0       ?_Xran@?$_String_val@U?$_Simple_types@D@std@@@std@@SAXXZ 00409ec0 f i AdminChat.obj
 0001:00008ed0       ??$_Uninitialized_move@PAUADMIN_CHAT_DATA@@V?$allocator@UADMIN_CHAT_DATA@@@std@@@std@@YAPAUADMIN_CHAT_DATA@@QAU1@0PAU1@AAV?$allocator@UADMIN_CHAT_DATA@@@0@@Z 00409ed0 f i AdminChat.obj
 0001:00008f80       ??$_Reallocate_grow_by@V<lambda_4d79bb85f269e6e8002a4599002d832c>@@IPBDI@?$basic_string@DU?$char_traits@D@std@@V?$allocator@D@2@@std@@AAEAAV01@IV<lambda_4d79bb85f269e6e8002a4599002d832c>@@IPBDI@Z 00409f80 f i AdminChat.obj
 0001:000090c0       ??0?$basic_string@DU?$char_traits@D@std@@V?$allocator@D@2@@std@@QAE@ABV01@@Z 0040a0c0 f i AdminChat.obj
 0001:00009190       ?append@?$basic_string@DU?$char_traits@D@std@@V?$allocator@D@2@@std@@QAEAAV12@ABV12@@Z 0040a190 f i AdminChat.obj
 0001:00009210       ??$_Reallocate_grow_by@V<lambda_ab246b20b9526e2ef7792587e4298a77>@@PBDI@?$basic_string@DU?$char_traits@D@std@@V?$allocator@D@2@@std@@AAEAAV01@IV<lambda_ab246b20b9526e2ef7792587e4298a77>@@PBDI@Z 0040a210 f i AdminChat.obj
 0001:00009370       ?append@?$basic_string@DU?$char_traits@D@std@@V?$allocator@D@2@@std@@QAEAAV12@QBD@Z 0040a370 f i AdminChat.obj
 0001:000093e0       ___local_stdio_printf_options 0040a3e0 f i AdminChat.obj
 0001:000093f0       __vsnprintf_l              0040a3f0 f i AdminChat.obj
 0001:00009430       _sprintf                   0040a430 f i AdminChat.obj
 0001:00009450       ?compare@?$basic_string@DU?$char_traits@D@std@@V?$allocator@D@2@@std@@QBEHABV12@@Z 0040a450 f i AdminChat.obj
 0001:000094f0       ??$_UIntegral_to_buff@D_K@std@@YAPADPAD_K@Z 0040a4f0 f i AdminChat.obj
 0001:00009610       ?to_string@std@@YA?AV?$basic_string@DU?$char_traits@D@std@@V?$allocator@D@2@@1@_J@Z 0040a610 f i AdminChat.obj
 0001:000096b0       ?Allocate@CWin32Heap@ATL@@UAEPAXI@Z 0040a6b0 f i AdminChat.obj
 0001:000096d0       ?Free@CWin32Heap@ATL@@UAEXPAX@Z 0040a6d0 f i AdminChat.obj
 0001:000096f0       ?Reallocate@CWin32Heap@ATL@@UAEPAXPAXI@Z 0040a6f0 f i AdminChat.obj
 0001:00009730       ?GetSize@CWin32Heap@ATL@@UAEIPAX@Z 0040a730 f i AdminChat.obj
 0001:00009750       ??_GCWin32Heap@ATL@@UAEPAXI@Z 0040a750 f i AdminChat.obj
 0001:00009750       ??_ECWin32Heap@ATL@@UAEPAXI@Z 0040a750 f i * CIL library *:* CIL module *
 0001:00009790       ?Allocate@CAtlStringMgr@ATL@@UAEPAUCStringData@2@HH@Z 0040a790 f i AdminChat.obj
 0001:00009800       ?Free@CAtlStringMgr@ATL@@UAEXPAUCStringData@2@@Z 0040a800 f i AdminChat.obj
 0001:00009810       ?Reallocate@CAtlStringMgr@ATL@@UAEPAUCStringData@2@PAU32@HH@Z 0040a810 f i AdminChat.obj
 0001:00009870       ?GetNilString@CAtlStringMgr@ATL@@UAEPAUCStringData@2@XZ 0040a870 f i AdminChat.obj
 0001:00009880       ?_Getal@?$_Tree@V?$_Tmap_traits@HUITEM_BAG_EX_INFO@@U?$less@H@std@@V?$allocator@U?$pair@$$CBHUITEM_BAG_EX_INFO@@@std@@@3@$0A@@std@@@std@@IAEAAV?$allocator@U?$_Tree_node@U?$pair@$$CBHUITEM_BAG_EX_INFO@@@std@@PAX@std@@@2@XZ 0040a880 f i ItemBagEx.obj
 0001:00009880       ?_Getal@?$_Tree@V?$_Tmap_traits@HV?$vector@UMONSTER_SET_BASE_INFO@@V?$allocator@UMONSTER_SET_BASE_INFO@@@std@@@std@@U?$less@H@2@V?$allocator@U?$pair@$$CBHV?$vector@UMONSTER_SET_BASE_INFO@@V?$allocator@UMONSTER_SET_BASE_INFO@@@std@@@std@@@std@@@2@$0A@@std@@@std@@IAEAAV?$allocator@U?$_Tree_node@U?$pair@$$CBHV?$vector@UMONSTER_SET_BASE_INFO@@V?$allocator@UMONSTER_SET_BASE_INFO@@@std@@@std@@@std@@PAX@std@@@2@XZ 0040a880 f i MonsterSetBase.obj
 0001:00009880       ?Clone@CAtlStringMgr@ATL@@UAEPAUIAtlStringMgr@2@XZ 0040a880 f i AdminChat.obj
 0001:00009880       ?_Getal@?$_Tree@V?$_Tmap_traits@HV?$vector@UITEM_BAG_EX_ITEM_INFO@@V?$allocator@UITEM_BAG_EX_ITEM_INFO@@@std@@@std@@U?$less@H@2@V?$allocator@U?$pair@$$CBHV?$vector@UITEM_BAG_EX_ITEM_INFO@@V?$allocator@UITEM_BAG_EX_ITEM_INFO@@@std@@@std@@@std@@@2@$0A@@std@@@std@@IAEAAV?$allocator@U?$_Tree_node@U?$pair@$$CBHV?$vector@UITEM_BAG_EX_ITEM_INFO@@V?$allocator@UITEM_BAG_EX_ITEM_INFO@@@std@@@std@@@std@@PAX@std@@@2@XZ 0040a880 f i ItemBagEx.obj
 0001:00009890       ??_GCAtlStringMgr@ATL@@UAEPAXI@Z 0040a890 f i AdminChat.obj
 0001:00009890       ??_ECAtlStringMgr@ATL@@UAEPAXI@Z 0040a890 f i * CIL library *:* CIL module *
 0001:000098c0       ?GetInstance@CAtlStringMgr@ATL@@SAPAUIAtlStringMgr@2@XZ 0040a8c0 f i AdminChat.obj
 0001:000099b0       ?_AtlGetStringResourceImage@ATL@@YAPBUATLSTRINGRESOURCEIMAGE@1@PAUHINSTANCE__@@PAUHRSRC__@@I@Z 0040a9b0 f i AdminChat.obj
 0001:00009a10       ?LoadStringA@?$CStringT@DV?$StrTraitATL@DV?$ChTraitsCRT@D@ATL@@@ATL@@@ATL@@QAEHI@Z 0040aa10 f i AdminChat.obj
 0001:00009b40       ?Fork@?$CSimpleStringT@D$0A@@ATL@@AAEXH@Z 0040ab40 f i AdminChat.obj
 0001:00009bd0       ?ThrowMemoryException@?$CSimpleStringT@D$0A@@ATL@@KAXXZ 0040abd0 f i AdminChat.obj
 0001:00009be0       ?Reallocate@?$CSimpleStringT@D$0A@@ATL@@AAEXH@Z 0040abe0 f i AdminChat.obj
 0001:00009c20       ?PrepareWrite2@?$CSimpleStringT@D$0A@@ATL@@AAEXH@Z 0040ac20 f i AdminChat.obj
 0001:00009c80       ?CopyChars@?$CSimpleStringT@D$0A@@ATL@@SAXPADIPBDH@Z 0040ac80 f i AdminChat.obj
 0001:00009d00       ?SetString@?$CSimpleStringT@D$0A@@ATL@@QAEXPBDH@Z 0040ad00 f i AdminChat.obj
 0001:00009de0       ??0?$CStringT@DV?$StrTraitATL@DV?$ChTraitsCRT@D@ATL@@@ATL@@@ATL@@QAE@PBD@Z 0040ade0 f i AdminChat.obj
 0001:00009e80       ?_Xlen_string@std@@YAXXZ   0040ae80 f i AdminChat.obj
 0001:00009e90       ?assign@?$basic_string@DU?$char_traits@D@std@@V?$allocator@D@2@@std@@QAEAAV12@QBDI@Z 0040ae90 f i AdminChat.obj
 0001:00009fc0       ??0?$basic_string@DU?$char_traits@D@std@@V?$allocator@D@2@@std@@QAE@QBD@Z 0040afc0 f i AdminChat.obj
 0001:0000a000       ??1?$CSimpleStringT@D$0A@@ATL@@QAE@XZ 0040b000 f i AdminChat.obj
 0001:0000a000       ??1?$CStringT@DV?$StrTraitATL@DV?$ChTraitsCRT@D@ATL@@@ATL@@@ATL@@QAE@XZ 0040b000 f i AdminChat.obj
 0001:0000a020       ??0CAtlException@ATL@@QAE@J@Z 0040b020 f i AdminChat.obj
 0001:0000a030       ?AtlThrowImpl@ATL@@YGXJ@Z  0040b030 f i AdminChat.obj
 0001:0000a050       ?Empty@?$CSimpleStringT@D$0A@@ATL@@QAEXXZ 0040b050 f i AdminChat.obj
 0001:0000a0f0       ??1?$pair@V?$basic_string@DU?$char_traits@D@std@@V?$allocator@D@2@@std@@UHardwareId_INFO@@@std@@QAE@XZ 0040b0f0 f i HwidManager.obj
 0001:0000a0f0       ??1?$pair@V?$basic_string@DU?$char_traits@D@std@@V?$allocator@D@2@@std@@URECONNECT_INFO@@@std@@QAE@XZ 0040b0f0 f i Reconnect.obj
 0001:0000a0f0       ??1?$basic_string@DU?$char_traits@D@std@@V?$allocator@D@2@@std@@QAE@XZ 0040b0f0 f i AdminChat.obj
 0001:0000a0f0       ??1?$pair@V?$basic_string@DU?$char_traits@D@std@@V?$allocator@D@2@@std@@UIP_ADDRESS_INFO@@@std@@QAE@XZ 0040b0f0 f i IpManager.obj
 0001:0000a0f0       ??1?$pair@V?$basic_string@DU?$char_traits@D@std@@V?$allocator@D@2@@std@@UREGISTERED_INFO@@@std@@QAE@XZ 0040b0f0 f i PartySearch.obj
 0001:0000a140       ??0ARCA_BATTLE_OBELISK_AURA_INFO@@QAE@XZ 0040b140 f i ArcaBattle.obj
 0001:0000a170       ??0ARCA_BATTLE_OBELISK_INFO@@QAE@XZ 0040b170 f i ArcaBattle.obj
 0001:0000a1d0       ??_GCArcaBattle@@UAEPAXI@Z 0040b1d0 f i ArcaBattle.obj
 0001:0000a1d0       ??_ECArcaBattle@@UAEPAXI@Z 0040b1d0 f i * CIL library *:* CIL module *
 0001:0000a210       ??1?$vector@UROULETTE_INFO@@V?$allocator@UROULETTE_INFO@@@std@@@std@@QAE@XZ 0040b210 f i Roulette.obj
 0001:0000a210       ??1?$vector@UARCA_BATTLE_START_TIME@@V?$allocator@UARCA_BATTLE_START_TIME@@@std@@@std@@QAE@XZ 0040b210 f i ArcaBattle.obj
 0001:0000a210       ??1?$vector@UCASTLE_DEEP_MONSTER@@V?$allocator@UCASTLE_DEEP_MONSTER@@@std@@@std@@QAE@XZ 0040b210 f i CastleDeep.obj
 0001:0000a210       ?_Tidy@?$vector@UITEM_REQUIREMENTS@@V?$allocator@UITEM_REQUIREMENTS@@@std@@@std@@AAEXXZ 0040b210 f i MapQuestSystem.obj
 0001:0000a210       ??1?$vector@USDHP_RANKINGS_INFO@@V?$allocator@USDHP_RANKINGS_INFO@@@std@@@std@@QAE@XZ 0040b210 f i Rankings.obj
 0001:0000a210       ??1?$vector@UPREMIUM_DROP_INFO@@V?$allocator@UPREMIUM_DROP_INFO@@@std@@@std@@QAE@XZ 0040b210 f i PremiumDrop.obj
 0001:0000a210       ??1?$vector@UITEM_VALUE_INFO@@V?$allocator@UITEM_VALUE_INFO@@@std@@@std@@QAE@XZ 0040b210 f i ItemValue.obj
 0001:0000a210       ??1?$vector@UPackSystemData@@V?$allocator@UPackSystemData@@@std@@@std@@QAE@XZ 0040b210 f i PackSystem.obj
 0001:0000a270       ??_ECAttack@@UAEPAXI@Z     0040b270 f i * CIL library *:* CIL module *
 0001:0000a270       ??_GCAttack@@UAEPAXI@Z     0040b270 f i Attack.obj
 0001:0000a2a0       ?Attack@CAttack@@QAE_NPAUOBJECTSTRUCT@@0PAVCSkill@@_NEHH22@Z 0040b2a0 f   Attack.obj
 0001:0000c320       ?DecreaseArrow@CAttack@@QAE_NPAUOBJECTSTRUCT@@@Z 0040d320 f   Attack.obj
 0001:0000c4f0       ?WingSprite@CAttack@@QAEXPAUOBJECTSTRUCT@@0PAH@Z 0040d4f0 f   Attack.obj
 0001:0000c9f0       ?HelperSprite@CAttack@@QAEXPAUOBJECTSTRUCT@@0PAH@Z 0040d9f0 f   Attack.obj
 0001:0000cd40       ?DamageSprite@CAttack@@QAEXPAUOBJECTSTRUCT@@H@Z 0040dd40 f   Attack.obj
 0001:0000d380       ?ArmorDurabilityDown@CAttack@@QAEXPAUOBJECTSTRUCT@@0@Z 0040e380 f   Attack.obj
 0001:0000d460       ?CheckPlayerTarget@CAttack@@QAE_NPAUOBJECTSTRUCT@@0@Z 0040e460 f   Attack.obj
 0001:0000dba0       ?MissSend@CAttack@@QAEXPAUOBJECTSTRUCT@@0PAVCSkill@@HH@Z 0040eba0 f   Attack.obj
 0001:0000dc60       ?MissCheckPvP@CAttack@@QAE_NPAUOBJECTSTRUCT@@0PAVCSkill@@HHPAE@Z 0040ec60 f   Attack.obj
 0001:0000dd80       ?ApplySkillEffect@CAttack@@QAE_NPAUOBJECTSTRUCT@@0PAVCSkill@@H@Z 0040ed80 f   Attack.obj
 0001:0000eed0       ?GetAttackDamage@CAttack@@QAEHPAUOBJECTSTRUCT@@0PAVCSkill@@PAGH@Z 0040fed0 f   Attack.obj
 0001:0000f440       ?GetAttackDamageWizard@CAttack@@QAEHPAUOBJECTSTRUCT@@0PAVCSkill@@PAGH@Z 00410440 f   Attack.obj
 0001:0000f7a0       ?GetAttackDamageCursed@CAttack@@QAEHPAUOBJECTSTRUCT@@0PAVCSkill@@PAGH@Z 004107a0 f   Attack.obj
 0001:0000fac0       ?GetAttackDamageFenrir@CAttack@@QAEHPAUOBJECTSTRUCT@@0PAVCSkill@@PAGH@Z 00410ac0 f   Attack.obj
 0001:0000fdb0       ?GetShieldDamage@CAttack@@QAEHPAUOBJECTSTRUCT@@0H@Z 00410db0 f   Attack.obj
 0001:0000fef0       ?CGAttackRecv@CAttack@@QAEXPAUPMSG_ATTACK_RECV@@H@Z 00410ef0 f   Attack.obj
 0001:000101a0       ??_ECBankEx@@UAEPAXI@Z     004111a0 f i * CIL library *:* CIL module *
 0001:000101a0       ??_GCBankEx@@UAEPAXI@Z     004111a0 f i BankEx.obj
 0001:000101d0       ?GDSavePoint@CBankEx@@QAEXH@Z 004111d0 f   BankEx.obj
 0001:000102e0       ?GCUpdateBankEx@CBankEx@@QAEXH@Z 004112e0 f   BankEx.obj
 0001:00010400       ??_GCBattleGround@@UAEPAXI@Z 00411400 f i BattleGround.obj
 0001:00010400       ??_ECBattleGround@@UAEPAXI@Z 00411400 f i * CIL library *:* CIL module *
 0001:00010430       ??_GCBattleSoccer@@UAEPAXI@Z 00411430 f i BattleSoccer.obj
 0001:00010430       ??_ECBattleSoccer@@UAEPAXI@Z 00411430 f i * CIL library *:* CIL module *
 0001:00010460       ?gCheckBattleGround@@YAHPAUOBJECTSTRUCT@@@Z 00411460 f   BattleSoccerManager.obj
 0001:000104f0       ??0BLOOD_CASTLE_LEVEL@@QAE@XZ 004114f0 f i BloodCastle.obj
 0001:00010520       ??_ECBloodCastle@@UAEPAXI@Z 00411520 f i * CIL library *:* CIL module *
 0001:00010520       ??_GCBloodCastle@@UAEPAXI@Z 00411520 f i BloodCastle.obj
 0001:000105a0       ??1BLOOD_CASTLE_LEVEL@@QAE@XZ 004115a0 f i BloodCastle.obj
 0001:000105b0       ?Init@CBloodCastle@@QAEXXZ 004115b0 f   BloodCastle.obj
 0001:00010610       ?Load@CBloodCastle@@QAEXPAD@Z 00411610 f   BloodCastle.obj
 0001:00010b20       ?MainProc@CBloodCastle@@QAEXXZ 00411b20 f   BloodCastle.obj
 0001:00010de0       ?ProcState_EMPTY@CBloodCastle@@QAEXPAUBLOOD_CASTLE_LEVEL@@@Z 00411de0 f   BloodCastle.obj
 0001:00011050       ?ProcState_START@CBloodCastle@@QAEXPAUBLOOD_CASTLE_LEVEL@@@Z 00412050 f   BloodCastle.obj
 0001:000113e0       ?SetState@CBloodCastle@@QAEXPAUBLOOD_CASTLE_LEVEL@@H@Z 004123e0 f   BloodCastle.obj
 0001:000114b0       ?SetState_EMPTY@CBloodCastle@@QAEXPAUBLOOD_CASTLE_LEVEL@@@Z 004124b0 f   BloodCastle.obj
 0001:000117c0       ?SetState_START@CBloodCastle@@QAEXPAUBLOOD_CASTLE_LEVEL@@@Z 004127c0 f   BloodCastle.obj
 0001:00011bc0       ?SetState_CLEAN@CBloodCastle@@QAEXPAUBLOOD_CASTLE_LEVEL@@@Z 00412bc0 f   BloodCastle.obj
 0001:00011f40       ?SetStage2@CBloodCastle@@QAEXPAUBLOOD_CASTLE_LEVEL@@@Z 00412f40 f   BloodCastle.obj
 0001:000120e0       ?SetStage3@CBloodCastle@@QAEXPAUBLOOD_CASTLE_LEVEL@@@Z 004130e0 f   BloodCastle.obj
 0001:000122a0       ?CheckSync@CBloodCastle@@QAEXPAUBLOOD_CASTLE_LEVEL@@@Z 004132a0 f   BloodCastle.obj
 0001:00012470       ?GetRemainTime@CBloodCastle@@QAEHH@Z 00413470 f   BloodCastle.obj
 0001:00012630       ?DelUser@CBloodCastle@@QAE_NPAUBLOOD_CASTLE_LEVEL@@H@Z 00413630 f   BloodCastle.obj
 0001:000126b0       ?CheckUser@CBloodCastle@@QAEXPAUBLOOD_CASTLE_LEVEL@@@Z 004136b0 f   BloodCastle.obj
 0001:00012700       ?GetUserAbleLevel@CBloodCastle@@QAEHPAUOBJECTSTRUCT@@@Z 00413700 f   BloodCastle.obj
 0001:000128a0       ?GetUserAbleLevelNew@CBloodCastle@@QAEHPAUOBJECTSTRUCT@@@Z 004138a0 f   BloodCastle.obj
 0001:00012a50       ?GiveUserRewardExperience@CBloodCastle@@QAEXPAUBLOOD_CASTLE_LEVEL@@H@Z 00413a50 f   BloodCastle.obj
 0001:00012ba0       ?GiveUserRewardMoney@CBloodCastle@@QAEXPAUBLOOD_CASTLE_LEVEL@@H@Z 00413ba0 f   BloodCastle.obj
 0001:00012cb0       ?GiveUserRewardItem@CBloodCastle@@QAEXPAUBLOOD_CASTLE_LEVEL@@H@Z 00413cb0 f   BloodCastle.obj
 0001:00012e90       ?SearchUserDropEventItem@CBloodCastle@@QAEXH@Z 00413e90 f   BloodCastle.obj
 0001:00013040       ?SearchUserDeleteEventItem@CBloodCastle@@QAEXH@Z 00414040 f   BloodCastle.obj
 0001:00013150       ?SetMonster@CBloodCastle@@QAEXPAUBLOOD_CASTLE_LEVEL@@H@Z 00414150 f   BloodCastle.obj
 0001:00013250       ?NpcAngelKing@CBloodCastle@@QAEXPAUOBJECTSTRUCT@@0@Z 00414250 f   BloodCastle.obj
 0001:000133e0       ?NpcAngelMessenger@CBloodCastle@@QAEXPAUOBJECTSTRUCT@@@Z 004143e0 f   BloodCastle.obj
 0001:00013580       ?MonsterDieProc@CBloodCastle@@QAEXPAUOBJECTSTRUCT@@0@Z 00414580 f   BloodCastle.obj
 0001:00013860       ?NoticeSendToAll@CBloodCastle@@QAAXPAUBLOOD_CASTLE_LEVEL@@HPADZZ 00414860 f   BloodCastle.obj
 0001:000138f0       ?CGBloodCastleEnterRecv@CBloodCastle@@QAEXPAUPMSG_BLOOD_CASTLE_ENTER_RECV@@H@Z 004148f0 f   BloodCastle.obj
 0001:00013d20       ?GCBloodCastleScoreSend@CBloodCastle@@QAEXPAUBLOOD_CASTLE_LEVEL@@HH@Z 00414d20 f   BloodCastle.obj
 0001:00013de0       ?GCBloodCastleDelayScoreSend@CBloodCastle@@QAEXPAUBLOOD_CASTLE_LEVEL@@HH@Z 00414de0 f   BloodCastle.obj
 0001:00013f00       ?GCBloodCastleStateSend@CBloodCastle@@QAEXPAUBLOOD_CASTLE_LEVEL@@H@Z 00414f00 f   BloodCastle.obj
 0001:00013fa0       ?GCBloodCastleSimpleStateSend@CBloodCastle@@QAEXPAUBLOOD_CASTLE_LEVEL@@HH@Z 00414fa0 f   BloodCastle.obj
 0001:00014040       ??1?$vector@UILLUSION_TEMPLE_START_TIME@@V?$allocator@UILLUSION_TEMPLE_START_TIME@@@std@@@std@@QAE@XZ 00415040 f i IllusionTemple.obj
 0001:00014040       ??1?$vector@UCUSTOM_ARENA_START_TIME@@V?$allocator@UCUSTOM_ARENA_START_TIME@@@std@@@std@@QAE@XZ 00415040 f i CustomArena.obj
 0001:00014040       ??1?$vector@UTVT_EVENT_START_TIME@@V?$allocator@UTVT_EVENT_START_TIME@@@std@@@std@@QAE@XZ 00415040 f i TvTEvent.obj
 0001:00014040       ??1?$vector@UCALL_INFO@@V?$allocator@UCALL_INFO@@@std@@@std@@QAE@XZ 00415040 f i MonsterCall.obj
 0001:00014040       ??1?$vector@UMOSS_MERCHANT_START_TIME@@V?$allocator@UMOSS_MERCHANT_START_TIME@@@std@@@std@@QAE@XZ 00415040 f i MossMerchant.obj
 0001:00014040       ??1?$vector@UCHAOS_CASTLE_START_TIME@@V?$allocator@UCHAOS_CASTLE_START_TIME@@@std@@@std@@QAE@XZ 00415040 f i ChaosCastle.obj
 0001:00014040       ??1?$vector@UCASTLE_DEEP_START_TIME@@V?$allocator@UCASTLE_DEEP_START_TIME@@@std@@@std@@QAE@XZ 00415040 f i CastleDeep.obj
 0001:00014040       ??1?$vector@UINVASION_START_TIME@@V?$allocator@UINVASION_START_TIME@@@std@@@std@@QAE@XZ 00415040 f i InvasionManager.obj
 0001:00014040       ??1?$vector@UDEVIL_SQUARE_START_TIME@@V?$allocator@UDEVIL_SQUARE_START_TIME@@@std@@@std@@QAE@XZ 00415040 f i DevilSquare.obj
 0001:00014040       ??1?$vector@UBONUS_START_TIME@@V?$allocator@UBONUS_START_TIME@@@std@@@std@@QAE@XZ 00415040 f i BonusManager.obj
 0001:00014040       ??1?$vector@UBLOOD_CASTLE_START_TIME@@V?$allocator@UBLOOD_CASTLE_START_TIME@@@std@@@std@@QAE@XZ 00415040 f i BloodCastle.obj
 0001:00014040       ?_Tidy@?$vector@URAND_MONSTERCALL_INFO@@V?$allocator@URAND_MONSTERCALL_INFO@@@std@@@std@@AAEXXZ 00415040 f i RandomMonsterCall.obj
 0001:00014040       ??1?$vector@UCUSTOM_EVENT_DROP_START_TIME@@V?$allocator@UCUSTOM_EVENT_DROP_START_TIME@@@std@@@std@@QAE@XZ 00415040 f i CustomEventDrop.obj
 0001:00014040       ??1?$vector@USHOPPOINTEX_MONSTER@@V?$allocator@USHOPPOINTEX_MONSTER@@@std@@@std@@QAE@XZ 00415040 f i ShopPointEx.obj
 0001:00014040       ??1?$vector@UStartBuffData@@V?$allocator@UStartBuffData@@@std@@@std@@QAE@XZ 00415040 f i CustomStartItem.obj
 0001:00014040       ??1?$vector@UCUSTOM_VIP_LOTTERY_START_TIME@@V?$allocator@UCUSTOM_VIP_LOTTERY_START_TIME@@@std@@@std@@QAE@XZ 00415040 f i VipLotteryEvent.obj
 0001:000140b0       ??1?$vector@UCHAOS_CASTLE_DELAY_SCORE@@V?$allocator@UCHAOS_CASTLE_DELAY_SCORE@@@std@@@std@@QAE@XZ 004150b0 f i ChaosCastle.obj
 0001:000140b0       ??1?$vector@UMOSS_MERCHANT_ITEM_INFO@@V?$allocator@UMOSS_MERCHANT_ITEM_INFO@@@std@@@std@@QAE@XZ 004150b0 f i MossMerchant.obj
 0001:000140b0       ??1?$vector@UBLOOD_CASTLE_DELAY_SCORE@@V?$allocator@UBLOOD_CASTLE_DELAY_SCORE@@@std@@@std@@QAE@XZ 004150b0 f i BloodCastle.obj
 0001:000140b0       ??1?$vector@UJEWEL_MIX_DATA@@V?$allocator@UJEWEL_MIX_DATA@@@std@@@std@@QAE@XZ 004150b0 f i CustomJewelMix.obj
 0001:00014120       ??$vsprintf_s@$0BAA@@@YAHAAY0BAA@DPBDPAD@Z 00415120 f i BloodCastle.obj
 0001:00014140       ??$_Emplace_reallocate@ABUCUSTOM_ARENA_START_TIME@@@?$vector@UCUSTOM_ARENA_START_TIME@@V?$allocator@UCUSTOM_ARENA_START_TIME@@@std@@@std@@QAEPAUCUSTOM_ARENA_START_TIME@@QAU2@ABU2@@Z 00415140 f i CustomArena.obj
 0001:00014140       ??$_Emplace_reallocate@ABUTVT_EVENT_START_TIME@@@?$vector@UTVT_EVENT_START_TIME@@V?$allocator@UTVT_EVENT_START_TIME@@@std@@@std@@QAEPAUTVT_EVENT_START_TIME@@QAU2@ABU2@@Z 00415140 f i TvTEvent.obj
 0001:00014140       ??$_Emplace_reallocate@ABUCHAOS_CASTLE_START_TIME@@@?$vector@UCHAOS_CASTLE_START_TIME@@V?$allocator@UCHAOS_CASTLE_START_TIME@@@std@@@std@@QAEPAUCHAOS_CASTLE_START_TIME@@QAU2@ABU2@@Z 00415140 f i ChaosCastle.obj
 0001:00014140       ??$_Emplace_reallocate@ABUINVASION_START_TIME@@@?$vector@UINVASION_START_TIME@@V?$allocator@UINVASION_START_TIME@@@std@@@std@@QAEPAUINVASION_START_TIME@@QAU2@ABU2@@Z 00415140 f i InvasionManager.obj
 0001:00014140       ??$_Emplace_reallocate@ABUMOSS_MERCHANT_START_TIME@@@?$vector@UMOSS_MERCHANT_START_TIME@@V?$allocator@UMOSS_MERCHANT_START_TIME@@@std@@@std@@QAEPAUMOSS_MERCHANT_START_TIME@@QAU2@ABU2@@Z 00415140 f i MossMerchant.obj
 0001:00014140       ??$_Emplace_reallocate@ABUILLUSION_TEMPLE_START_TIME@@@?$vector@UILLUSION_TEMPLE_START_TIME@@V?$allocator@UILLUSION_TEMPLE_START_TIME@@@std@@@std@@QAEPAUILLUSION_TEMPLE_START_TIME@@QAU2@ABU2@@Z 00415140 f i IllusionTemple.obj
 0001:00014140       ??$_Emplace_reallocate@AAUStartBuffData@@@?$vector@UStartBuffData@@V?$allocator@UStartBuffData@@@std@@@std@@QAEPAUStartBuffData@@QAU2@AAU2@@Z 00415140 f i CustomStartItem.obj
 0001:00014140       ??$_Emplace_reallocate@ABUBONUS_START_TIME@@@?$vector@UBONUS_START_TIME@@V?$allocator@UBONUS_START_TIME@@@std@@@std@@QAEPAUBONUS_START_TIME@@QAU2@ABU2@@Z 00415140 f i BonusManager.obj
 0001:00014140       ??$_Emplace_reallocate@ABUCASTLE_DEEP_START_TIME@@@?$vector@UCASTLE_DEEP_START_TIME@@V?$allocator@UCASTLE_DEEP_START_TIME@@@std@@@std@@QAEPAUCASTLE_DEEP_START_TIME@@QAU2@ABU2@@Z 00415140 f i CastleDeep.obj
 0001:00014140       ??$_Emplace_reallocate@ABUDEVIL_SQUARE_START_TIME@@@?$vector@UDEVIL_SQUARE_START_TIME@@V?$allocator@UDEVIL_SQUARE_START_TIME@@@std@@@std@@QAEPAUDEVIL_SQUARE_START_TIME@@QAU2@ABU2@@Z 00415140 f i DevilSquare.obj
 0001:00014140       ??$_Emplace_reallocate@ABUBLOOD_CASTLE_START_TIME@@@?$vector@UBLOOD_CASTLE_START_TIME@@V?$allocator@UBLOOD_CASTLE_START_TIME@@@std@@@std@@QAEPAUBLOOD_CASTLE_START_TIME@@QAU2@ABU2@@Z 00415140 f i BloodCastle.obj
 0001:00014140       ??$_Emplace_reallocate@ABUCUSTOM_EVENT_DROP_START_TIME@@@?$vector@UCUSTOM_EVENT_DROP_START_TIME@@V?$allocator@UCUSTOM_EVENT_DROP_START_TIME@@@std@@@std@@QAEPAUCUSTOM_EVENT_DROP_START_TIME@@QAU2@ABU2@@Z 00415140 f i CustomEventDrop.obj
 0001:00014320       ??$_Emplace_reallocate@ABUCHAOS_CASTLE_DELAY_SCORE@@@?$vector@UCHAOS_CASTLE_DELAY_SCORE@@V?$allocator@UCHAOS_CASTLE_DELAY_SCORE@@@std@@@std@@QAEPAUCHAOS_CASTLE_DELAY_SCORE@@QAU2@ABU2@@Z 00415320 f i ChaosCastle.obj
 0001:00014320       ??$_Emplace_reallocate@ABUBLOOD_CASTLE_DELAY_SCORE@@@?$vector@UBLOOD_CASTLE_DELAY_SCORE@@V?$allocator@UBLOOD_CASTLE_DELAY_SCORE@@@std@@@std@@QAEPAUBLOOD_CASTLE_DELAY_SCORE@@QAU2@ABU2@@Z 00415320 f i BloodCastle.obj
 0001:00014320       ??$_Emplace_reallocate@ABUMOSS_MERCHANT_ITEM_INFO@@@?$vector@UMOSS_MERCHANT_ITEM_INFO@@V?$allocator@UMOSS_MERCHANT_ITEM_INFO@@@std@@@std@@QAEPAUMOSS_MERCHANT_ITEM_INFO@@QAU2@ABU2@@Z 00415320 f i MossMerchant.obj
 0001:000144e0       __vsprintf_s_l             004154e0 f i BloodCastle.obj
 0001:00014520       ??0BONUS_INFO@@QAE@XZ      00415520 f i BonusManager.obj
 0001:00014550       ??_GCBonusManager@@UAEPAXI@Z 00415550 f i BonusManager.obj
 0001:00014550       ??_ECBonusManager@@UAEPAXI@Z 00415550 f i * CIL library *:* CIL module *
 0001:000145d0       ??1BONUS_INFO@@QAE@XZ      004155d0 f i BonusManager.obj
 0001:000145f0       ?Load@CBonusManager@@QAEXPAD@Z 004155f0 f   BonusManager.obj
 0001:00014a70       ?MainProc@CBonusManager@@QAEXXZ 00415a70 f   BonusManager.obj
 0001:00014c50       ?SetState@CBonusManager@@QAEXPAUBONUS_INFO@@H@Z 00415c50 f   BonusManager.obj
 0001:00014ca0       ?SetState_EMPTY@CBonusManager@@QAEXPAUBONUS_INFO@@@Z 00415ca0 f   BonusManager.obj
 0001:00014e60       ?GetBonusValue@CBonusManager@@QAEHPAUOBJECTSTRUCT@@HHHHHH@Z 00415e60 f   BonusManager.obj
 0001:00014fc0       ??1?$vector@ULUCKY_ITEM_INFO@@V?$allocator@ULUCKY_ITEM_INFO@@@std@@@std@@QAE@XZ 00415fc0 f i LuckyItem.obj
 0001:00014fc0       ??1?$vector@UBONUS_VALUE_INFO@@V?$allocator@UBONUS_VALUE_INFO@@@std@@@std@@QAE@XZ 00415fc0 f i BonusManager.obj
 0001:00014fc0       ?_Tidy@?$vector@UITEM_BAG_EX_ITEM_INFO@@V?$allocator@UITEM_BAG_EX_ITEM_INFO@@@std@@@std@@AAEXXZ 00415fc0 f i ItemBagEx.obj
 0001:00014fc0       ??1?$vector@UMOVE_SUMMON_INFO@@V?$allocator@UMOVE_SUMMON_INFO@@@std@@@std@@QAE@XZ 00415fc0 f i MoveSummon.obj
 0001:00014fc0       ?_Tidy@?$vector@UMONSTER_SET_BASE_INFO@@V?$allocator@UMONSTER_SET_BASE_INFO@@@std@@@std@@AAEXXZ 00415fc0 f i MonsterSetBase.obj
 0001:00014fc0       ??1?$vector@UDAILY_REWARD_DATA@@V?$allocator@UDAILY_REWARD_DATA@@@std@@@std@@QAE@XZ 00415fc0 f i DailyReward.obj
 0001:00015030       ??$_Emplace_reallocate@ABUBONUS_VALUE_INFO@@@?$vector@UBONUS_VALUE_INFO@@V?$allocator@UBONUS_VALUE_INFO@@@std@@@std@@QAEPAUBONUS_VALUE_INFO@@QAU2@ABU2@@Z 00416030 f i BonusManager.obj
 0001:00015030       ??$_Emplace_reallocate@ABUDAILY_REWARD_DATA@@@?$vector@UDAILY_REWARD_DATA@@V?$allocator@UDAILY_REWARD_DATA@@@std@@@std@@QAEPAUDAILY_REWARD_DATA@@QAU2@ABU2@@Z 00416030 f i DailyReward.obj
 0001:00015030       ??$_Emplace_reallocate@ABUITEM_BAG_EX_ITEM_INFO@@@?$vector@UITEM_BAG_EX_ITEM_INFO@@V?$allocator@UITEM_BAG_EX_ITEM_INFO@@@std@@@std@@QAEPAUITEM_BAG_EX_ITEM_INFO@@QAU2@ABU2@@Z 00416030 f i ItemBagEx.obj
 0001:00015030       ??$_Emplace_reallocate@ABULUCKY_ITEM_INFO@@@?$vector@ULUCKY_ITEM_INFO@@V?$allocator@ULUCKY_ITEM_INFO@@@std@@@std@@QAEPAULUCKY_ITEM_INFO@@QAU2@ABU2@@Z 00416030 f i LuckyItem.obj
 0001:00015030       ??$_Emplace_reallocate@ABUMOVE_SUMMON_INFO@@@?$vector@UMOVE_SUMMON_INFO@@V?$allocator@UMOVE_SUMMON_INFO@@@std@@@std@@QAEPAUMOVE_SUMMON_INFO@@QAU2@ABU2@@Z 00416030 f i MoveSummon.obj
 0001:000151e0       ?Read@CBotAlchemist@@QAEXPAD@Z 004161e0 f   BotAlchemist.obj
 0001:00015d40       ?MakeBot@CBotAlchemist@@QAEXXZ 00416d40 f   BotAlchemist.obj
 0001:00016390       ?IsInTrade@CBotAlchemist@@QAEHH@Z 00417390 f   BotAlchemist.obj
 0001:000163e0       ?Alchemy@CBotAlchemist@@AAEEHH@Z 004173e0 f   BotAlchemist.obj
 0001:00017630       ?TradeOpen@CBotAlchemist@@QAEHHH@Z 00418630 f   BotAlchemist.obj
 0001:00017960       ??_GCBotBuffer@@UAEPAXI@Z  00418960 f i BotBuffer.obj
 0001:00017960       ??_ECBotBuffer@@UAEPAXI@Z  00418960 f i * CIL library *:* CIL module *
 0001:00017990       ?Load@CBotBuffer@@QAEXPAD@Z 00418990 f   BotBuffer.obj
 0001:00017f20       ?MakeBot@CBotBuffer@@QAEXXZ 00418f20 f   BotBuffer.obj
 0001:000184a0       ?CheckPriceCallback@CBotBuffer@@SAXPAUOBJECTSTRUCT@@H0KKK@Z 004194a0 f   BotBuffer.obj
 0001:00018cc0       ??_GcBuyAccountLevel@@UAEPAXI@Z 00419cc0 f i BuyAccountLevel.obj
 0001:00018cc0       ??_EcBuyAccountLevel@@UAEPAXI@Z 00419cc0 f i * CIL library *:* CIL module *
 0001:00018cf0       ?RecvBuyVip@cBuyAccountLevel@@QAEXPAUCG_BUYVIP_RECV@@H@Z 00419cf0 f   BuyAccountLevel.obj
 0001:00019000       ??_ECCannonTower@@UAEPAXI@Z 0041a000 f i * CIL library *:* CIL module *
 0001:00019000       ??_GCCannonTower@@UAEPAXI@Z 0041a000 f i CannonTower.obj
 0001:00019030       ??_ECCashShop@@UAEPAXI@Z   0041a030 f i * CIL library *:* CIL module *
 0001:00019030       ??_GCCashShop@@UAEPAXI@Z   0041a030 f i CashShop.obj
 0001:00019060       ?LoadPackage@CCashShop@@QAEXPAD@Z 0041a060 f   CashShop.obj
 0001:00019290       ?LoadProduct@CCashShop@@QAEXPAD@Z 0041a290 f   CashShop.obj
 0001:00019560       ?GetPackageProductBaseIndexCount@CCashShop@@QAEHPAUCASH_SHOP_PACKAGE_INFO@@@Z 0041a560 f   CashShop.obj
 0001:000195d0       ?CGCashShopPointRecv@CCashShop@@QAEXH@Z 0041a5d0 f   CashShop.obj
 0001:00019680       ?CGCashShopOpenRecv@CCashShop@@QAEXPAUPMSG_CASH_SHOP_OPEN_RECV@@H@Z 0041a680 f   CashShop.obj
 0001:00019860       ?DGCashShopItemBuyRecv@CCashShop@@QAEXPAUSDHP_CASH_SHOP_ITEM_BUY_RECV@@@Z 0041a860 f   CashShop.obj
 0001:00019d30       ?DGCashShopItemGifRecv@CCashShop@@QAEXPAUSDHP_CASH_SHOP_ITEM_GIF_RECV@@@Z 0041ad30 f   CashShop.obj
 0001:0001a330       ?DGCashShopItemNumRecv@CCashShop@@QAEXPAUSDHP_CASH_SHOP_ITEM_NUM_RECV@@@Z 0041b330 f   CashShop.obj
 0001:0001a5e0       ?DGCashShopItemUseRecv@CCashShop@@QAEXPAUSDHP_CASH_SHOP_ITEM_USE_RECV@@@Z 0041b5e0 f   CashShop.obj
 0001:0001ac70       ?GDCashShopRecievePointSend@CCashShop@@QAEXHKKK@Z 0041bc70 f   CashShop.obj
 0001:0001ad10       ?GDCashShopAddPointSaveSend@CCashShop@@QAEXHPADKKK@Z 0041bd10 f   CashShop.obj
 0001:0001adb0       ?GDCashShopSubPointSaveSend@CCashShop@@QAEXHPADKKK@Z 0041bdb0 f   CashShop.obj
 0001:0001ae50       ?GDCashShopInsertItemSaveSend@CCashShop@@QAEXHPADEKKKNE00@Z 0041be50 f   CashShop.obj
 0001:0001afc0       ??_GCCastleDeep@@UAEPAXI@Z 0041bfc0 f i CastleDeep.obj
 0001:0001afc0       ??_ECCastleDeep@@UAEPAXI@Z 0041bfc0 f i * CIL library *:* CIL module *
 0001:0001b010       ?Load@CCastleDeep@@QAEXPAD@Z 0041c010 f   CastleDeep.obj
 0001:0001b4c0       ?MainProc@CCastleDeep@@QAEXXZ 0041c4c0 f   CastleDeep.obj
 0001:0001b750       ?ProcState_START@CCastleDeep@@QAEXXZ 0041c750 f   CastleDeep.obj
 0001:0001ba60       ?SetState@CCastleDeep@@QAEXH@Z 0041ca60 f   CastleDeep.obj
 0001:0001bb80       ?CheckSync@CCastleDeep@@QAEXXZ 0041cb80 f   CastleDeep.obj
 0001:0001bd30       ?MonsterDieProc@CCastleDeep@@QAEXPAUOBJECTSTRUCT@@0@Z 0041cd30 f   CastleDeep.obj
 0001:0001beb0       ??1?$vector@UINVASION_RESPWAN_INFO@@V?$allocator@UINVASION_RESPWAN_INFO@@@std@@@std@@QAE@XZ 0041ceb0 f i InvasionManager.obj
 0001:0001beb0       ??1?$vector@USUPERPOINTS_INFO@@V?$allocator@USUPERPOINTS_INFO@@@std@@@std@@QAE@XZ 0041ceb0 f i SuperPoints.obj
 0001:0001beb0       ??1?$vector@UCUSTOM_VIP_LOTTERY_ITEM_INFO@@V?$allocator@UCUSTOM_VIP_LOTTERY_ITEM_INFO@@@std@@@std@@QAE@XZ 0041ceb0 f i VipLotteryEvent.obj
 0001:0001beb0       ??1?$vector@UMARRY_ITEM@@V?$allocator@UMARRY_ITEM@@@std@@@std@@QAE@XZ 0041ceb0 f i Marry.obj
 0001:0001beb0       ??1?$vector@USKILLS_INFO@@V?$allocator@USKILLS_INFO@@@std@@@std@@QAE@XZ 0041ceb0 f i OfflineMode.obj
 0001:0001beb0       ??1?$vector@UCASTLE_DEEP_SPAWN@@V?$allocator@UCASTLE_DEEP_SPAWN@@@std@@@std@@QAE@XZ 0041ceb0 f i CastleDeep.obj
 0001:0001beb0       ??1?$vector@URANDOM_MANAGER_INFO@@V?$allocator@URANDOM_MANAGER_INFO@@@std@@@std@@QAE@XZ 0041ceb0 f i RandomManager.obj
 0001:0001bf20       ??1?$vector@USmithyDATA@@V?$allocator@USmithyDATA@@@std@@@std@@QAE@XZ 0041cf20 f i Smithy.obj
 0001:0001bf20       ??1?$vector@UCASTLE_DEEP_GROUP@@V?$allocator@UCASTLE_DEEP_GROUP@@@std@@@std@@QAE@XZ 0041cf20 f i CastleDeep.obj
 0001:0001bf20       ??1?$vector@URESPLOC_DATA@@V?$allocator@URESPLOC_DATA@@@std@@@std@@QAE@XZ 0041cf20 f i RespawnLocation.obj
 0001:0001bf20       ?_Tidy@?$vector@UMONSTER_REQUIREMENTS@@V?$allocator@UMONSTER_REQUIREMENTS@@@std@@@std@@AAEXXZ 0041cf20 f i MapQuestSystem.obj
 0001:0001bf20       ??1?$vector@USUMMON_SCROLL_INFO@@V?$allocator@USUMMON_SCROLL_INFO@@@std@@@std@@QAE@XZ 0041cf20 f i SummonScroll.obj
 0001:0001bf20       ??1?$vector@UPICKUP@@V?$allocator@UPICKUP@@@std@@@std@@QAE@XZ 0041cf20 f i Pickup.obj
 0001:0001bf20       ??1?$vector@UOFFEXP_ITEMS@@V?$allocator@UOFFEXP_ITEMS@@@std@@@std@@QAE@XZ 0041cf20 f i CustomAttack.obj
 0001:0001bf80       ??$_Emplace_reallocate@ABUITEM_VALUE_INFO@@@?$vector@UITEM_VALUE_INFO@@V?$allocator@UITEM_VALUE_INFO@@@std@@@std@@QAEPAUITEM_VALUE_INFO@@QAU2@ABU2@@Z 0041cf80 f i ItemValue.obj
 0001:0001bf80       ??$_Emplace_reallocate@ABUCASTLE_DEEP_MONSTER@@@?$vector@UCASTLE_DEEP_MONSTER@@V?$allocator@UCASTLE_DEEP_MONSTER@@@std@@@std@@QAEPAUCASTLE_DEEP_MONSTER@@QAU2@ABU2@@Z 0041cf80 f i CastleDeep.obj
 0001:0001bf80       ??$_Emplace_reallocate@ABUPREMIUM_DROP_INFO@@@?$vector@UPREMIUM_DROP_INFO@@V?$allocator@UPREMIUM_DROP_INFO@@@std@@@std@@QAEPAUPREMIUM_DROP_INFO@@QAU2@ABU2@@Z 0041cf80 f i PremiumDrop.obj
 0001:0001c0f0       ??$_Emplace_reallocate@ABUSUPERPOINTS_INFO@@@?$vector@USUPERPOINTS_INFO@@V?$allocator@USUPERPOINTS_INFO@@@std@@@std@@QAEPAUSUPERPOINTS_INFO@@QAU2@ABU2@@Z 0041d0f0 f i SuperPoints.obj
 0001:0001c0f0       ??$_Emplace_reallocate@ABURANDOM_MANAGER_INFO@@@?$vector@URANDOM_MANAGER_INFO@@V?$allocator@URANDOM_MANAGER_INFO@@@std@@@std@@QAEPAURANDOM_MANAGER_INFO@@QAU2@ABU2@@Z 0041d0f0 f i RandomManager.obj
 0001:0001c0f0       ??$_Emplace_reallocate@ABUCASTLE_DEEP_SPAWN@@@?$vector@UCASTLE_DEEP_SPAWN@@V?$allocator@UCASTLE_DEEP_SPAWN@@@std@@@std@@QAEPAUCASTLE_DEEP_SPAWN@@QAU2@ABU2@@Z 0041d0f0 f i CastleDeep.obj
 0001:0001c0f0       ??$_Emplace_reallocate@ABUMARRY_ITEM@@@?$vector@UMARRY_ITEM@@V?$allocator@UMARRY_ITEM@@@std@@@std@@QAEPAUMARRY_ITEM@@QAU2@ABU2@@Z 0041d0f0 f i Marry.obj
 0001:0001c0f0       ??$_Emplace_reallocate@ABUINVASION_RESPWAN_INFO@@@?$vector@UINVASION_RESPWAN_INFO@@V?$allocator@UINVASION_RESPWAN_INFO@@@std@@@std@@QAEPAUINVASION_RESPWAN_INFO@@QAU2@ABU2@@Z 0041d0f0 f i InvasionManager.obj
 0001:0001c2a0       ??$_Emplace_reallocate@ABUSmithyDATA@@@?$vector@USmithyDATA@@V?$allocator@USmithyDATA@@@std@@@std@@QAEPAUSmithyDATA@@QAU2@ABU2@@Z 0041d2a0 f i Smithy.obj
 0001:0001c2a0       ??$_Emplace_reallocate@ABUCASTLE_DEEP_GROUP@@@?$vector@UCASTLE_DEEP_GROUP@@V?$allocator@UCASTLE_DEEP_GROUP@@@std@@@std@@QAEPAUCASTLE_DEEP_GROUP@@QAU2@ABU2@@Z 0041d2a0 f i CastleDeep.obj
 0001:0001c2a0       ??$_Emplace_reallocate@ABURESPLOC_DATA@@@?$vector@URESPLOC_DATA@@V?$allocator@URESPLOC_DATA@@@std@@@std@@QAEPAURESPLOC_DATA@@QAU2@ABU2@@Z 0041d2a0 f i RespawnLocation.obj
 0001:0001c2a0       ??$_Emplace_reallocate@ABUOFFEXP_ITEMS@@@?$vector@UOFFEXP_ITEMS@@V?$allocator@UOFFEXP_ITEMS@@@std@@@std@@QAEPAUOFFEXP_ITEMS@@QAU2@ABU2@@Z 0041d2a0 f i CustomAttack.obj
 0001:0001c400       ??_ECCastleSiegeCrown@@UAEPAXI@Z 0041d400 f i * CIL library *:* CIL module *
 0001:0001c400       ??_GCCastleSiegeCrown@@UAEPAXI@Z 0041d400 f i CastleSiegeCrown.obj
 0001:0001c430       ??_ECCastleSiegeCrownSwitch@@UAEPAXI@Z 0041d430 f i * CIL library *:* CIL module *
 0001:0001c430       ??_GCCastleSiegeCrownSwitch@@UAEPAXI@Z 0041d430 f i CastleSiegeCrownSwitch.obj
 0001:0001c460       ??_ECCastleSiegeSync@@UAEPAXI@Z 0041d460 f i * CIL library *:* CIL module *
 0001:0001c460       ??_GCCastleSiegeSync@@UAEPAXI@Z 0041d460 f i CastleSiegeSync.obj
 0001:0001c490       ?CheckCastleOwnerMember@CCastleSiegeSync@@QAE_NH@Z 0041d490 f   CastleSiegeSync.obj
 0001:0001c530       ?CheckCastleOwnerUnionMember@CCastleSiegeSync@@QAE_NH@Z 0041d530 f   CastleSiegeSync.obj
 0001:0001c5f0       ??_GCCastleSiegeWeapon@@UAEPAXI@Z 0041d5f0 f i CastleSiegeWeapon.obj
 0001:0001c5f0       ??_ECCastleSiegeWeapon@@UAEPAXI@Z 0041d5f0 f i * CIL library *:* CIL module *
 0001:0001c620       ?Attack@CCastleSiegeWeapon@@QAE_NPAUOBJECTSTRUCT@@0@Z 0041d620 f   CastleSiegeWeapon.obj
 0001:0001c7c0       ?CGCastleSiegeWeaponUseRecv@CCastleSiegeWeapon@@QAEXPAUPMSG_CASTLE_SIEGE_WEAPON_USE_RECV@@H@Z 0041d7c0 f   CastleSiegeWeapon.obj
 0001:0001cac0       ??_EcChangeClass@@UAEPAXI@Z 0041dac0 f i * CIL library *:* CIL module *
 0001:0001cac0       ??_GcChangeClass@@UAEPAXI@Z 0041dac0 f i ChangeClass.obj
 0001:0001caf0       ?ChangeClassCallback@cChangeClass@@SAXPAUOBJECTSTRUCT@@HKKKK@Z 0041daf0 f   ChangeClass.obj
 0001:0001cd80       ?ChangeClass@cChangeClass@@QAEXPAUOBJECTSTRUCT@@H@Z 0041dd80 f   ChangeClass.obj
 0001:0001d350       ??_GCChaosBox@@UAEPAXI@Z   0041e350 f i ChaosBox.obj
 0001:0001d350       ??_ECChaosBox@@UAEPAXI@Z   0041e350 f i * CIL library *:* CIL module *
 0001:0001d380       ?ChaosBoxInit@CChaosBox@@QAEXPAUOBJECTSTRUCT@@@Z 0041e380 f   ChaosBox.obj
 0001:0001d3c0       ?GetTalismanOfLuckRate@CChaosBox@@QAE_NPAUOBJECTSTRUCT@@PAH@Z 0041e3c0 f   ChaosBox.obj
 0001:0001d420       ?ChaosItemMix@CChaosBox@@QAEXPAUOBJECTSTRUCT@@@Z 0041e420 f   ChaosBox.obj
 0001:0001d860       ?DevilSquareMix@CChaosBox@@QAEXPAUOBJECTSTRUCT@@@Z 0041e860 f   ChaosBox.obj
 0001:0001dc50       ?PlusItemLevelMix@CChaosBox@@QAEXPAUOBJECTSTRUCT@@H@Z 0041ec50 f   ChaosBox.obj
 0001:0001e3f0       ?DinorantMix@CChaosBox@@QAEXPAUOBJECTSTRUCT@@@Z 0041f3f0 f   ChaosBox.obj
 0001:0001e6f0       ?FruitMix@CChaosBox@@QAEXPAUOBJECTSTRUCT@@@Z 0041f6f0 f   ChaosBox.obj
 0001:0001e9c0       ?Wing2Mix@CChaosBox@@QAEXPAUOBJECTSTRUCT@@H@Z 0041f9c0 f   ChaosBox.obj
 0001:0001f0e0       ?BloodCastleMix@CChaosBox@@QAEXPAUOBJECTSTRUCT@@@Z 004200e0 f   ChaosBox.obj
 0001:0001f4f0       ?Wing1Mix@CChaosBox@@QAEXPAUOBJECTSTRUCT@@@Z 004204f0 f   ChaosBox.obj
 0001:0001f9e0       ?PetMix@CChaosBox@@QAEXPAUOBJECTSTRUCT@@H@Z 004209e0 f   ChaosBox.obj
 0001:0001fd60       ?SiegePotionMix@CChaosBox@@QAEXPAUOBJECTSTRUCT@@H@Z 00420d60 f   ChaosBox.obj
 0001:0001ffe0       ?LifeStoneMix@CChaosBox@@QAEXPAUOBJECTSTRUCT@@@Z 00420fe0 f   ChaosBox.obj
 0001:00020220       ?SeniorMix@CChaosBox@@QAEXPAUOBJECTSTRUCT@@@Z 00421220 f   ChaosBox.obj
 0001:000204d0       ?PieceOfHornMix@CChaosBox@@QAEXPAUOBJECTSTRUCT@@@Z 004214d0 f   ChaosBox.obj
 0001:00020710       ?BrokenHornMix@CChaosBox@@QAEXPAUOBJECTSTRUCT@@@Z 00421710 f   ChaosBox.obj
 0001:00020940       ?HornOfFenrirMix@CChaosBox@@QAEXPAUOBJECTSTRUCT@@@Z 00421940 f   ChaosBox.obj
 0001:00020c20       ?HornOfFenrirUpgradeMix@CChaosBox@@QAEXPAUOBJECTSTRUCT@@@Z 00421c20 f   ChaosBox.obj
 0001:00021010       ?ShieldPotionMix@CChaosBox@@QAEXPAUOBJECTSTRUCT@@H@Z 00422010 f   ChaosBox.obj
 0001:00021370       ?JewelOfHarmonyItemPurityMix@CChaosBox@@QAEXPAUOBJECTSTRUCT@@@Z 00422370 f   ChaosBox.obj
 0001:00021550       ?JewelOfHarmonyItemSmeltMix@CChaosBox@@QAEXPAUOBJECTSTRUCT@@@Z 00422550 f   ChaosBox.obj
 0001:00021830       ?JewelOfHarmonyItemRestoreMix@CChaosBox@@QAEXPAUOBJECTSTRUCT@@@Z 00422830 f   ChaosBox.obj
 0001:00021b50       ?Item380Mix@CChaosBox@@QAEXPAUOBJECTSTRUCT@@@Z 00422b50 f   ChaosBox.obj
 0001:00021f50       ?IllusionTempleMix@CChaosBox@@QAEXPAUOBJECTSTRUCT@@@Z 00422f50 f   ChaosBox.obj
 0001:00022320       ?ThirdWingMixFail@CChaosBox@@QAEXPAUOBJECTSTRUCT@@@Z 00423320 f   ChaosBox.obj
 0001:000223d0       ?ThirdWingMixFailItemPanalty@CChaosBox@@QAEXPAVCItem@@@Z 004233d0 f   ChaosBox.obj
 0001:00022460       ?FeatherOfCondorMix@CChaosBox@@QAEXPAUOBJECTSTRUCT@@@Z 00423460 f   ChaosBox.obj
 0001:00022850       ?Wing3Mix@CChaosBox@@QAEXPAUOBJECTSTRUCT@@@Z 00423850 f   ChaosBox.obj
 0001:00022eb0       ?ChaosCardMix@CChaosBox@@QAEXPAUOBJECTSTRUCT@@H@Z 00423eb0 f   ChaosBox.obj
 0001:00023110       ?CherryBlossomMix@CChaosBox@@QAEXPAUOBJECTSTRUCT@@H@Z 00424110 f   ChaosBox.obj
 0001:00023340       ?SocketItemCreateSeedMix@CChaosBox@@QAEXPAUOBJECTSTRUCT@@@Z 00424340 f   ChaosBox.obj
 0001:00023840       ?SocketItemCreateSeedSphereMix@CChaosBox@@QAEXPAUOBJECTSTRUCT@@@Z 00424840 f   ChaosBox.obj
 0001:00023bd0       ?SocketItemMountSeedSphereMix@CChaosBox@@QAEXPAUOBJECTSTRUCT@@E@Z 00424bd0 f   ChaosBox.obj
 0001:000240f0       ?SocketItemUnMountSeedSphereMix@CChaosBox@@QAEXPAUOBJECTSTRUCT@@E@Z 004250f0 f   ChaosBox.obj
 0001:00024390       ?ImperialGuardianMix@CChaosBox@@QAEXPAUOBJECTSTRUCT@@@Z 00425390 f   ChaosBox.obj
 0001:000246d0       ?LuckyItemCreateMix@CChaosBox@@QAEXPAUOBJECTSTRUCT@@@Z 004256d0 f   ChaosBox.obj
 0001:00024b30       ?LuckyItemRefineMix@CChaosBox@@QAEXPAUOBJECTSTRUCT@@@Z 00425b30 f   ChaosBox.obj
 0001:00024d60       ?NewWingPart1Mix@CChaosBox@@QAEXPAUOBJECTSTRUCT@@@Z 00425d60 f   ChaosBox.obj
 0001:00025160       ?NewWingPart2Mix@CChaosBox@@QAEXPAUOBJECTSTRUCT@@@Z 00426160 f   ChaosBox.obj
 0001:00025610       ?CGChaosMixRecv@CChaosBox@@QAEXPAUPMSG_CHAOS_MIX_RECV@@H@Z 00426610 f   ChaosBox.obj
 0001:00025e40       ?GCChaosBoxSend@CChaosBox@@QAEXPAUOBJECTSTRUCT@@E@Z 00426e40 f   ChaosBox.obj
 0001:00025fc0       ?GCChaosMixSend@CChaosBox@@QAEXHEPAVCItem@@@Z 00426fc0 f   ChaosBox.obj
 0001:00026140       ??_GcChaosRecipe@@UAEPAXI@Z 00427140 f i ChaosBoxManager.obj
 0001:00026140       ??_EcChaosRecipe@@UAEPAXI@Z 00427140 f i * CIL library *:* CIL module *
 0001:00026200       ?Read@cChaosRecipe@@QAE_NPAD@Z 00427200 f   ChaosBoxManager.obj
 0001:000273f0       ??1ChaosCombination@@QAE@XZ 004283f0 f i ChaosBoxManager.obj
 0001:00027420       ?ActFail@cChaosRecipe@@SAXPAUOBJECTSTRUCT@@PAV1@PAUChaosCombination@@E@Z 00428420 f   ChaosBoxManager.obj
 0001:000274c0       ?ActSuccess@cChaosRecipe@@SAXPAUOBJECTSTRUCT@@PAV1@PAUChaosCombination@@PAUChaosProduce@@@Z 004284c0 f   ChaosBoxManager.obj
 0001:000277d0       ??_GcChaosBoxManager@@UAEPAXI@Z 004287d0 f i ChaosBoxManager.obj
 0001:000277d0       ??_EcChaosBoxManager@@UAEPAXI@Z 004287d0 f i * CIL library *:* CIL module *
 0001:00027800       ?Read@cChaosBoxManager@@QAEXPAD@Z 00428800 f   ChaosBoxManager.obj
 0001:00027aa0       ?StartMix@cChaosBoxManager@@QAE_NPAUOBJECTSTRUCT@@H@Z 00428aa0 f   ChaosBoxManager.obj
 0001:00028320       ??1?$vector@PAUINVASION_MONSTER_INFO@@V?$allocator@PAUINVASION_MONSTER_INFO@@@std@@@std@@QAE@XZ 00429320 f i InvasionManager.obj
 0001:00028320       ??1?$vector@PAUINVASION_RESPWAN_INFO@@V?$allocator@PAUINVASION_RESPWAN_INFO@@@std@@@std@@QAE@XZ 00429320 f i InvasionManager.obj
 0001:00028320       ?_Tidy@?$vector@HV?$allocator@H@std@@@std@@AAEXXZ 00429320 f i ComboSkillData.obj
 0001:00028320       ??1?$vector@PAVcChaosRecipe@@V?$allocator@PAVcChaosRecipe@@@std@@@std@@QAE@XZ 00429320 f i ChaosBoxManager.obj
 0001:00028320       ??1?$vector@PAVCMapServerData@@V?$allocator@PAVCMapServerData@@@std@@@std@@QAE@XZ 00429320 f i MapServerManager.obj
 0001:00028380       ??1?$vector@UChaosCombination@@V?$allocator@UChaosCombination@@@std@@@std@@QAE@XZ 00429380 f i ChaosBoxManager.obj
 0001:00028400       ??1?$vector@UChaosProduce@@V?$allocator@UChaosProduce@@@std@@@std@@QAE@XZ 00429400 f i ChaosBoxManager.obj
 0001:00028410       ??1?$vector@UChaosIngredient@@V?$allocator@UChaosIngredient@@@std@@@std@@QAE@XZ 00429410 f i ChaosBoxManager.obj
 0001:00028420       ?_Destroy@?$vector@UChaosCombination@@V?$allocator@UChaosCombination@@@std@@@std@@AAEXPAUChaosCombination@@0@Z 00429420 f i ChaosBoxManager.obj
 0001:00028440       ?_Tidy@?$vector@UChaosProduce@@V?$allocator@UChaosProduce@@@std@@@std@@AAEXXZ 00429440 f i ChaosBoxManager.obj
 0001:00028440       ??1?$vector@USUMMON_SCROLL_MONSTER_INFO@@V?$allocator@USUMMON_SCROLL_MONSTER_INFO@@@std@@@std@@QAE@XZ 00429440 f i SummonScroll.obj
 0001:00028440       ??1?$vector@UREGISTERED_GUILD_INFO@@V?$allocator@UREGISTERED_GUILD_INFO@@@std@@@std@@QAE@XZ 00429440 f i Diablo.obj
 0001:00028440       ?_Tidy@?$vector@UChaosTalisman@@V?$allocator@UChaosTalisman@@@std@@@std@@AAEXXZ 00429440 f i ChaosBoxManager.obj
 0001:00028440       ??1?$vector@UItemToPointsData@@V?$allocator@UItemToPointsData@@@std@@@std@@QAE@XZ 00429440 f i ItemToPoints.obj
 0001:00028440       ??1?$vector@UINVASION_MONSTER_INFO@@V?$allocator@UINVASION_MONSTER_INFO@@@std@@@std@@QAE@XZ 00429440 f i InvasionManager.obj
 0001:00028440       ??1?$vector@UITEM_STACK_INFO@@V?$allocator@UITEM_STACK_INFO@@@std@@@std@@QAE@XZ 00429440 f i ItemStack.obj
 0001:000284a0       ?_Tidy@?$vector@UChaosIngredient@@V?$allocator@UChaosIngredient@@@std@@@std@@AAEXXZ 004294a0 f i ChaosBoxManager.obj
 0001:00028510       ?deallocate@?$allocator@UChaosCombination@@@std@@QAEXQAUChaosCombination@@I@Z 00429510 f i ChaosBoxManager.obj
 0001:00028550       ??$_Emplace_reallocate@ABQAUINVASION_RESPWAN_INFO@@@?$vector@PAUINVASION_RESPWAN_INFO@@V?$allocator@PAUINVASION_RESPWAN_INFO@@@std@@@std@@QAEPAPAUINVASION_RESPWAN_INFO@@QAPAU2@ABQAU2@@Z 00429550 f i InvasionManager.obj
 0001:00028550       ??$_Emplace_reallocate@ABQAVCMapServerData@@@?$vector@PAVCMapServerData@@V?$allocator@PAVCMapServerData@@@std@@@std@@QAEPAPAVCMapServerData@@QAPAV2@ABQAV2@@Z 00429550 f i MapServerManager.obj
 0001:00028550       ??$_Emplace_reallocate@ABQAVcChaosRecipe@@@?$vector@PAVcChaosRecipe@@V?$allocator@PAVcChaosRecipe@@@std@@@std@@QAEPAPAVcChaosRecipe@@QAPAV2@ABQAV2@@Z 00429550 f i ChaosBoxManager.obj
 0001:00028550       ??$_Emplace_reallocate@PAUINVASION_MONSTER_INFO@@@?$vector@PAUINVASION_MONSTER_INFO@@V?$allocator@PAUINVASION_MONSTER_INFO@@@std@@@std@@QAEPAPAUINVASION_MONSTER_INFO@@QAPAU2@$$QAPAU2@@Z 00429550 f i InvasionManager.obj
 0001:000286b0       ??$_Emplace_reallocate@ABUChaosCombination@@@?$vector@UChaosCombination@@V?$allocator@UChaosCombination@@@std@@@std@@QAEPAUChaosCombination@@QAU2@ABU2@@Z 004296b0 f i ChaosBoxManager.obj
 0001:000288d0       ??$_Emplace_reallocate@ABUChaosTalisman@@@?$vector@UChaosTalisman@@V?$allocator@UChaosTalisman@@@std@@@std@@QAEPAUChaosTalisman@@QAU2@ABU2@@Z 004298d0 f i ChaosBoxManager.obj
 0001:000288d0       ??$_Emplace_reallocate@ABUChaosProduce@@@?$vector@UChaosProduce@@V?$allocator@UChaosProduce@@@std@@@std@@QAEPAUChaosProduce@@QAU2@ABU2@@Z 004298d0 f i ChaosBoxManager.obj
 0001:000289e0       ??$_Emplace_reallocate@ABUChaosIngredient@@@?$vector@UChaosIngredient@@V?$allocator@UChaosIngredient@@@std@@@std@@QAEPAUChaosIngredient@@QAU2@ABU2@@Z 004299e0 f i ChaosBoxManager.obj
 0001:00028b70       ??$_Destroy_range@V?$allocator@UChaosCombination@@@std@@@std@@YAXPAUChaosCombination@@QAU1@AAV?$allocator@UChaosCombination@@@0@@Z 00429b70 f i ChaosBoxManager.obj
 0001:00028bb0       ??0ChaosCombination@@QAE@ABU0@@Z 00429bb0 f i ChaosBoxManager.obj
 0001:00028db0       ?allocate@?$allocator@UChaosProduce@@@std@@QAEPAUChaosProduce@@I@Z 00429db0 f i ChaosBoxManager.obj
 0001:00028db0       ?allocate@?$allocator@UChaosTalisman@@@std@@QAEPAUChaosTalisman@@I@Z 00429db0 f i ChaosBoxManager.obj
 0001:00028e10       ?allocate@?$allocator@UChaosIngredient@@@std@@QAEPAUChaosIngredient@@I@Z 00429e10 f i ChaosBoxManager.obj
 0001:00028e80       ??$_Uninitialized_move@PAUChaosCombination@@V?$allocator@UChaosCombination@@@std@@@std@@YAPAUChaosCombination@@QAU1@0PAU1@AAV?$allocator@UChaosCombination@@@0@@Z 00429e80 f i ChaosBoxManager.obj
 0001:00028fd0       ??0CHAOS_CASTLE_LEVEL@@QAE@XZ 00429fd0 f i ChaosCastle.obj
 0001:00029000       ??_GCChaosCastle@@UAEPAXI@Z 0042a000 f i ChaosCastle.obj
 0001:00029000       ??_ECChaosCastle@@UAEPAXI@Z 0042a000 f i * CIL library *:* CIL module *
 0001:00029080       ??1CHAOS_CASTLE_LEVEL@@QAE@XZ 0042a080 f i ChaosCastle.obj
 0001:00029090       ?Init@CChaosCastle@@QAEXXZ 0042a090 f   ChaosCastle.obj
 0001:00029100       ?Load@CChaosCastle@@QAEXPAD@Z 0042a100 f   ChaosCastle.obj
 0001:00029440       ?MainProc@CChaosCastle@@QAEXXZ 0042a440 f   ChaosCastle.obj
 0001:000296f0       ?ProcState_EMPTY@CChaosCastle@@QAEXPAUCHAOS_CASTLE_LEVEL@@@Z 0042a6f0 f   ChaosCastle.obj
 0001:00029920       ?ProcState_START@CChaosCastle@@QAEXPAUCHAOS_CASTLE_LEVEL@@@Z 0042a920 f   ChaosCastle.obj
 0001:0002a0f0       ?SetState@CChaosCastle@@QAEXPAUCHAOS_CASTLE_LEVEL@@H@Z 0042b0f0 f   ChaosCastle.obj
 0001:0002a260       ?SetState_EMPTY@CChaosCastle@@QAEXPAUCHAOS_CASTLE_LEVEL@@@Z 0042b260 f   ChaosCastle.obj
 0001:0002a4e0       ?SetState_START@CChaosCastle@@QAEXPAUCHAOS_CASTLE_LEVEL@@@Z 0042b4e0 f   ChaosCastle.obj
 0001:0002a810       ?SetState_CLEAN@CChaosCastle@@QAEXPAUCHAOS_CASTLE_LEVEL@@@Z 0042b810 f   ChaosCastle.obj
 0001:0002ab40       ?CheckSync@CChaosCastle@@QAEXPAUCHAOS_CASTLE_LEVEL@@@Z 0042bb40 f   ChaosCastle.obj
 0001:0002ad10       ?GetRemainTime@CChaosCastle@@QAEHH@Z 0042bd10 f   ChaosCastle.obj
 0001:0002aed0       ?DelUser@CChaosCastle@@QAE_NPAUCHAOS_CASTLE_LEVEL@@H@Z 0042bed0 f   ChaosCastle.obj
 0001:0002af30       ?CheckUser@CChaosCastle@@QAEXPAUCHAOS_CASTLE_LEVEL@@@Z 0042bf30 f   ChaosCastle.obj
 0001:0002af80       ?GetUserAbleLevel@CChaosCastle@@QAEHPAUOBJECTSTRUCT@@@Z 0042bf80 f   ChaosCastle.obj
 0001:0002b0a0       ?GiveUserRewardExperience@CChaosCastle@@QAEXPAUCHAOS_CASTLE_LEVEL@@H@Z 0042c0a0 f   ChaosCastle.obj
 0001:0002b1a0       ?GiveUserRewardItem@CChaosCastle@@QAEXPAUCHAOS_CASTLE_LEVEL@@H@Z 0042c1a0 f   ChaosCastle.obj
 0001:0002b350       ?SetMonster@CChaosCastle@@QAEXPAUCHAOS_CASTLE_LEVEL@@H@Z 0042c350 f   ChaosCastle.obj
 0001:0002b430       ?SetHollowZone@CChaosCastle@@QAEXPAUCHAOS_CASTLE_LEVEL@@H@Z 0042c430 f   ChaosCastle.obj
 0001:0002b4f0       ?DelHollowZone@CChaosCastle@@QAEXPAUCHAOS_CASTLE_LEVEL@@H@Z 0042c4f0 f   ChaosCastle.obj
 0001:0002b5b0       ?SearchUserAndBlow@CChaosCastle@@QAEXPAUCHAOS_CASTLE_LEVEL@@HH@Z 0042c5b0 f   ChaosCastle.obj
 0001:0002b780       ?MonsterDieProc@CChaosCastle@@QAEXPAUOBJECTSTRUCT@@0@Z 0042c780 f   ChaosCastle.obj
 0001:0002b8e0       ?NoticeSendToAll@CChaosCastle@@QAAXPAUCHAOS_CASTLE_LEVEL@@HPADZZ 0042c8e0 f   ChaosCastle.obj
 0001:0002b970       ?CGChaosCastleEnterRecv@CChaosCastle@@QAEXPAUPMSG_CHAOS_CASTLE_ENTER_RECV@@H@Z 0042c970 f   ChaosCastle.obj
 0001:0002bdd0       ?GCChaosCastleScoreSend@CChaosCastle@@QAEXPAUCHAOS_CASTLE_LEVEL@@HH@Z 0042cdd0 f   ChaosCastle.obj
 0001:0002bea0       ?GCChaosCastleDelayScoreSend@CChaosCastle@@QAEXPAUCHAOS_CASTLE_LEVEL@@HH@Z 0042cea0 f   ChaosCastle.obj
 0001:0002bfb0       ?calculate_damage_class_vs_class@CCharacterCalc@@QAEHHH@Z 0042cfb0 f   CharacterCalc.obj
 0001:0002c070       ??0CClientManager@@QAE@XZ  0042d070 f   ClientManager.obj
 0001:0002c0b0       ??_GCClientManager@@UAEPAXI@Z 0042d0b0 f i ClientManager.obj
 0001:0002c0b0       ??_ECClientManager@@UAEPAXI@Z 0042d0b0 f i * CIL library *:* CIL module *
 0001:0002c0e0       ??1CClientManager@@UAE@XZ  0042d0e0 f   ClientManager.obj
 0001:0002c0f0       ?CheckCombo@CComboSkill@@QAE_NGH@Z 0042d0f0 f   ComboSkill.obj
 0001:0002c280       ??$_Find_lower_bound@E@?$_Tree@V?$_Tmap_traits@EUskill_data@CComboSkillData@@U?$less@E@std@@V?$allocator@U?$pair@$$CBEUskill_data@CComboSkillData@@@std@@@4@$0A@@std@@@std@@IBE?AU?$_Tree_find_result@PAU?$_Tree_node@U?$pair@$$CBEUskill_data@CComboSkillData@@@std@@PAX@std@@@1@ABE@Z 0042d280 f i ComboSkill.obj
 0001:0002c2d0       ?load@CComboSkillData@@QAEXPAD@Z 0042d2d0 f   ComboSkillData.obj
 0001:0002c920       ??1skill_data@CComboSkillData@@QAE@XZ 0042d920 f i ComboSkillData.obj
 0001:0002c940       ??1?$pair@EUskill_data@CComboSkillData@@@std@@QAE@XZ 0042d940 f i ComboSkillData.obj
 0001:0002c960       ??1?$vector@HV?$allocator@H@std@@@std@@QAE@XZ 0042d960 f i ComboSkillData.obj
 0001:0002c970       ??$_Erase_tree@V?$allocator@U?$_Tree_node@U?$pair@$$CBEUskill_data@CComboSkillData@@@std@@PAX@std@@@std@@@?$_Tree_val@U?$_Tree_simple_types@U?$pair@$$CBEUskill_data@CComboSkillData@@@std@@@std@@@std@@QAEXAAV?$allocator@U?$_Tree_node@U?$pair@$$CBEUskill_data@CComboSkillData@@@std@@PAX@std@@@1@PAU?$_Tree_node@U?$pair@$$CBEUskill_data@CComboSkillData@@@std@@PAX@1@@Z 0042d970 f i ComboSkillData.obj
 0001:0002c9d0       ??$_Emplace_reallocate@H@?$vector@HV?$allocator@H@std@@@std@@QAEPAHQAH$$QAH@Z 0042d9d0 f i ComboSkillData.obj
 0001:0002c9d0       ??$_Emplace_reallocate@ABH@?$vector@HV?$allocator@H@std@@@std@@QAEPAHQAHABH@Z 0042d9d0 f i RaklionBattleUserMng.obj
 0001:0002caa0       ?_Change_array@?$vector@HV?$allocator@H@std@@@std@@AAEXQAHII@Z 0042daa0 f i ComboSkillData.obj
 0001:0002cb00       ?allocate@?$allocator@H@std@@QAEPAHI@Z 0042db00 f i ComboSkillData.obj
 0001:0002cb60       ??1?$_Alloc_construct_ptr@V?$allocator@U?$_Tree_node@U?$pair@$$CBEUskill_data@CComboSkillData@@@std@@PAX@std@@@std@@@std@@QAE@XZ 0042db60 f i ComboSkillData.obj
 0001:0002cb60       ??1?$_Alloc_construct_ptr@V?$allocator@U?$_Tree_node@U?$pair@$$CBHUITEM_OPTION6_RATE_INFO@@@std@@PAX@std@@@std@@@std@@QAE@XZ 0042db60 f i ItemOptionRate.obj
 0001:0002cb60       ??1?$_Alloc_construct_ptr@V?$allocator@U?$_Tree_node@U?$pair@$$CBHUITEM_EXCELLENT_RATE_INFO@@@std@@PAX@std@@@std@@@std@@QAE@XZ 0042db60 f i ItemOptionRate.obj
 0001:0002cb80       ??_ECCommandManager@@UAEPAXI@Z 0042db80 f i * CIL library *:* CIL module *
 0001:0002cb80       ??_GCCommandManager@@UAEPAXI@Z 0042db80 f i CommandManager.obj
 0001:0002cbb0       ?Load@CCommandManager@@QAEXPAD@Z 0042dbb0 f   CommandManager.obj
 0001:0002d0b0       ?MainProc@CCommandManager@@QAEXXZ 0042e0b0 f   CommandManager.obj
 0001:0002d2c0       ?GetNumber@CCommandManager@@QAEJPADH@Z 0042e2c0 f   CommandManager.obj
 0001:0002d350       ?GetString@CCommandManager@@QAEXPAD0HH@Z 0042e350 f   CommandManager.obj
 0001:0002d3f0       ?ManagementCore@CCommandManager@@QAEXPAUOBJECTSTRUCT@@PAD@Z 0042e3f0 f   CommandManager.obj
 0001:0002dde0       ?CommandMove@CCommandManager@@QAEXPAUOBJECTSTRUCT@@PAD@Z 0042ede0 f   CommandManager.obj
 0001:0002de90       ?CommandPost@CCommandManager@@QAEXPAUOBJECTSTRUCT@@PAD@Z 0042ee90 f   CommandManager.obj
 0001:0002e550       ?CommandAddPoint@CCommandManager@@QAEXPAUOBJECTSTRUCT@@PADH@Z 0042f550 f   CommandManager.obj
 0001:0002e800       ?CommandAddPointAuto@CCommandManager@@QAEXPAUOBJECTSTRUCT@@PADH@Z 0042f800 f   CommandManager.obj
 0001:0002eaa0       ?CommandPKClear@CCommandManager@@QAEXPAUOBJECTSTRUCT@@PAD@Z 0042faa0 f   CommandManager.obj
 0001:0002eca0       ?CommandMoney@CCommandManager@@QAEXPAUOBJECTSTRUCT@@PAD@Z 0042fca0 f   CommandManager.obj
 0001:0002ee20       ?CommandChange@CCommandManager@@QAEXPAUOBJECTSTRUCT@@PAD@Z 0042fe20 f   CommandManager.obj
 0001:0002f0a0       ?CommandReset@CCommandManager@@QAEXPAUOBJECTSTRUCT@@PAD@Z 004300a0 f   CommandManager.obj
 0001:0002f690       ?CommandResetAuto@CCommandManager@@QAEXPAUOBJECTSTRUCT@@PAD@Z 00430690 f   CommandManager.obj
 0001:0002f840       ?CommandGMMove@CCommandManager@@QAEXPAUOBJECTSTRUCT@@PAD@Z 00430840 f   CommandManager.obj
 0001:0002f9f0       ?CommandGMPost@CCommandManager@@QAEXPAUOBJECTSTRUCT@@PAD@Z 004309f0 f   CommandManager.obj
 0001:0002fb10       ?CommandTrack@CCommandManager@@QAEXPAUOBJECTSTRUCT@@PAD@Z 00430b10 f   CommandManager.obj
 0001:0002fca0       ?CommandTrace@CCommandManager@@QAEXPAUOBJECTSTRUCT@@PAD@Z 00430ca0 f   CommandManager.obj
 0001:0002fe30       ?CommandDisconnect@CCommandManager@@QAEXPAUOBJECTSTRUCT@@PAD@Z 00430e30 f   CommandManager.obj
 0001:0002ffd0       ?CommandFireworks@CCommandManager@@QAEXPAUOBJECTSTRUCT@@PAD@Z 00430fd0 f   CommandManager.obj
 0001:00030140       ?CommandMake@CCommandManager@@QAEXPAUOBJECTSTRUCT@@PAD@Z 00431140 f   CommandManager.obj
 0001:00030450       ?CommandDrop@CCommandManager@@QAEXPAUOBJECTSTRUCT@@PAD@Z 00431450 f   CommandManager.obj
 0001:00030660       ?CommandSkin@CCommandManager@@QAEXPAUOBJECTSTRUCT@@PAD@Z 00431660 f   CommandManager.obj
 0001:00030820       ?CommandSetMoney@CCommandManager@@QAEXPAUOBJECTSTRUCT@@PAD@Z 00431820 f   CommandManager.obj
 0001:00030a40       ?CommandChatBan@CCommandManager@@QAEXPAUOBJECTSTRUCT@@PAD@Z 00431a40 f   CommandManager.obj
 0001:00030b80       ?CommandChatUnBan@CCommandManager@@QAEXPAUOBJECTSTRUCT@@PAD@Z 00431b80 f   CommandManager.obj
 0001:00030cb0       ?CommandNotice@CCommandManager@@QAEXPAUOBJECTSTRUCT@@PAD@Z 00431cb0 f   CommandManager.obj
 0001:00030e20       ?CommandSetCretits@CCommandManager@@QAEXPAUOBJECTSTRUCT@@PAD@Z 00431e20 f   CommandManager.obj
 0001:00031010       ?CommandRequest@CCommandManager@@QAEXPAUOBJECTSTRUCT@@PAD@Z 00432010 f   CommandManager.obj
 0001:00031260       ?CommandHide@CCommandManager@@QAEXPAUOBJECTSTRUCT@@PAD@Z 00432260 f   CommandManager.obj
 0001:000313e0       ?CommandAddPointAutoProc@CCommandManager@@QAEXPAUOBJECTSTRUCT@@@Z 004323e0 f   CommandManager.obj
 0001:00031550       ?CommandClearInventory@CCommandManager@@QAEXPAUOBJECTSTRUCT@@@Z 00432550 f   CommandManager.obj
 0001:000315b0       ?CommandDCFriend@CCommandManager@@QAEXPAUOBJECTSTRUCT@@PAD@Z 004325b0 f   CommandManager.obj
 0001:00031760       ?CommandQuest@CCommandManager@@QAEXPAUOBJECTSTRUCT@@@Z 00432760 f   CommandManager.obj
 0001:000317f0       ?CommandPartyLeader@CCommandManager@@QAEXPAUOBJECTSTRUCT@@PAD@Z 004327f0 f   CommandManager.obj
 0001:000318e0       ?DGCommandResetRecv@CCommandManager@@QAEXPAUSDHP_COMMAND_RESET_RECV@@@Z 004328e0 f   CommandManager.obj
 0001:00032330       ?CommandExchangeWcoinPCallback@CCommandManager@@SAXPAUOBJECTSTRUCT@@HHKKK@Z 00433330 f   CommandManager.obj
 0001:000324e0       ?CheckTraceMarryCondition@CCommandManager@@QAEHPAUOBJECTSTRUCT@@0@Z 004334e0 f   CommandManager.obj
 0001:000327b0       ?SendZenCustomVault@CCommandManager@@QAEXPAUOBJECTSTRUCT@@PAD@Z 004337b0 f   CommandManager.obj
 0001:00032880       ?RecvZenCustomVault@CCommandManager@@QAEXPAUOBJECTSTRUCT@@PAD@Z 00433880 f   CommandManager.obj
 0001:000329b0       ?SendBlessCustomVault@CCommandManager@@QAEXPAUOBJECTSTRUCT@@PAD@Z 004339b0 f   CommandManager.obj
 0001:00032a80       ?RecvBlessCustomVault@CCommandManager@@QAEXPAUOBJECTSTRUCT@@PAD@Z 00433a80 f   CommandManager.obj
 0001:00032bc0       ?SendSoulCustomVault@CCommandManager@@QAEXPAUOBJECTSTRUCT@@PAD@Z 00433bc0 f   CommandManager.obj
 0001:00032c90       ?RecvSoulCustomVault@CCommandManager@@QAEXPAUOBJECTSTRUCT@@PAD@Z 00433c90 f   CommandManager.obj
 0001:00032dd0       ?SendChaosCustomVault@CCommandManager@@QAEXPAUOBJECTSTRUCT@@PAD@Z 00433dd0 f   CommandManager.obj
 0001:00032ea0       ?RecvChaosCustomVault@CCommandManager@@QAEXPAUOBJECTSTRUCT@@PAD@Z 00433ea0 f   CommandManager.obj
 0001:00032fe0       ?SendLifeCustomVault@CCommandManager@@QAEXPAUOBJECTSTRUCT@@PAD@Z 00433fe0 f   CommandManager.obj
 0001:000330b0       ?RecvLifeCustomVault@CCommandManager@@QAEXPAUOBJECTSTRUCT@@PAD@Z 004340b0 f   CommandManager.obj
 0001:000331f0       ?SendCreationCustomVault@CCommandManager@@QAEXPAUOBJECTSTRUCT@@PAD@Z 004341f0 f   CommandManager.obj
 0001:000332c0       ?RecvCreationCustomVault@CCommandManager@@QAEXPAUOBJECTSTRUCT@@PAD@Z 004342c0 f   CommandManager.obj
 0001:00033400       ?SendGuardianCustomVault@CCommandManager@@QAEXPAUOBJECTSTRUCT@@PAD@Z 00434400 f   CommandManager.obj
 0001:000334d0       ?RecvGuardianCustomVault@CCommandManager@@QAEXPAUOBJECTSTRUCT@@PAD@Z 004344d0 f   CommandManager.obj
 0001:00033610       ?SendHarmonyCustomVault@CCommandManager@@QAEXPAUOBJECTSTRUCT@@PAD@Z 00434610 f   CommandManager.obj
 0001:000336e0       ?RecvHarmonyCustomVault@CCommandManager@@QAEXPAUOBJECTSTRUCT@@PAD@Z 004346e0 f   CommandManager.obj
 0001:00033820       ?SendLowStoneCustomVault@CCommandManager@@QAEXPAUOBJECTSTRUCT@@PAD@Z 00434820 f   CommandManager.obj
 0001:000338f0       ?RecvLowStoneCustomVault@CCommandManager@@QAEXPAUOBJECTSTRUCT@@PAD@Z 004348f0 f   CommandManager.obj
 0001:00033a30       ?SendHighStoneCustomVault@CCommandManager@@QAEXPAUOBJECTSTRUCT@@PAD@Z 00434a30 f   CommandManager.obj
 0001:00033b00       ?RecvHighStoneCustomVault@CCommandManager@@QAEXPAUOBJECTSTRUCT@@PAD@Z 00434b00 f   CommandManager.obj
 0001:00033c40       ?SendGemStoneCustomVault@CCommandManager@@QAEXPAUOBJECTSTRUCT@@PAD@Z 00434c40 f   CommandManager.obj
 0001:00033d10       ?RecvGemStoneCustomVault@CCommandManager@@QAEXPAUOBJECTSTRUCT@@PAD@Z 00434d10 f   CommandManager.obj
 0001:00033e50       ?PackIudexItem@CCommandManager@@QAEXPAUOBJECTSTRUCT@@PAD@Z 00434e50 f   CommandManager.obj
 0001:00033fe0       ?UnPackIudexItem@CCommandManager@@QAEXPAUOBJECTSTRUCT@@PAD@Z 00434fe0 f   CommandManager.obj
 0001:00034220       ??A?$map@HUQUEST_DATA@@U?$less@H@std@@V?$allocator@U?$pair@$$CBHUQUEST_DATA@@@std@@@3@@std@@QAEAAUQUEST_DATA@@ABH@Z 00435220 f i CommandManager.obj
 0001:000342f0       ??1?$_Alloc_construct_ptr@V?$allocator@U?$_Tree_node@U?$pair@$$CBHUQUEST_DATA@@@std@@PAX@std@@@std@@@std@@QAE@XZ 004352f0 f i CommandManager.obj
 0001:00034310       ??$_Find_lower_bound@H@?$_Tree@V?$_Tmap_traits@HUITEM_OPTION0_RATE_INFO@@U?$less@H@std@@V?$allocator@U?$pair@$$CBHUITEM_OPTION0_RATE_INFO@@@std@@@3@$0A@@std@@@std@@IBE?AU?$_Tree_find_result@PAU?$_Tree_node@U?$pair@$$CBHUITEM_OPTION0_RATE_INFO@@@std@@PAX@std@@@1@ABH@Z 00435310 f i ItemOptionRate.obj
 0001:00034310       ??$_Find_lower_bound@H@?$_Tree@V?$_Tmap_traits@HUITEM_OPTION5_RATE_INFO@@U?$less@H@std@@V?$allocator@U?$pair@$$CBHUITEM_OPTION5_RATE_INFO@@@std@@@3@$0A@@std@@@std@@IBE?AU?$_Tree_find_result@PAU?$_Tree_node@U?$pair@$$CBHUITEM_OPTION5_RATE_INFO@@@std@@PAX@std@@@1@ABH@Z 00435310 f i ItemOptionRate.obj
 0001:00034310       ??$_Find_lower_bound@H@?$_Tree@V?$_Tmap_traits@HUITEM_OPTION3_RATE_INFO@@U?$less@H@std@@V?$allocator@U?$pair@$$CBHUITEM_OPTION3_RATE_INFO@@@std@@@3@$0A@@std@@@std@@IBE?AU?$_Tree_find_result@PAU?$_Tree_node@U?$pair@$$CBHUITEM_OPTION3_RATE_INFO@@@std@@PAX@std@@@1@ABH@Z 00435310 f i ItemOptionRate.obj
 0001:00034310       ??$_Find_lower_bound@H@?$_Tree@V?$_Tmap_traits@HUITEM_INFO@@U?$less@H@std@@V?$allocator@U?$pair@$$CBHUITEM_INFO@@@std@@@3@$0A@@std@@@std@@IBE?AU?$_Tree_find_result@PAU?$_Tree_node@U?$pair@$$CBHUITEM_INFO@@@std@@PAX@std@@@1@ABH@Z 00435310 f i ItemManager.obj
 0001:00034310       ??$_Find_lower_bound@H@?$_Tree@V?$_Tmap_traits@HUITEM_OPTION4_RATE_INFO@@U?$less@H@std@@V?$allocator@U?$pair@$$CBHUITEM_OPTION4_RATE_INFO@@@std@@@3@$0A@@std@@@std@@IBE?AU?$_Tree_find_result@PAU?$_Tree_node@U?$pair@$$CBHUITEM_OPTION4_RATE_INFO@@@std@@PAX@std@@@1@ABH@Z 00435310 f i ItemOptionRate.obj
 0001:00034310       ??$_Find_lower_bound@H@?$_Tree@V?$_Tmap_traits@HPAUGUILD_INFO_STRUCT@@U?$less@H@std@@V?$allocator@U?$pair@$$CBHPAUGUILD_INFO_STRUCT@@@std@@@3@$0A@@std@@@std@@IBE?AU?$_Tree_find_result@PAU?$_Tree_node@U?$pair@$$CBHPAUGUILD_INFO_STRUCT@@@std@@PAX@std@@@1@ABH@Z 00435310 f i GuildClass.obj
 0001:00034310       ??$_Find_lower_bound@H@?$_Tree@V?$_Tmap_traits@HV?$vector@UITEM_OPTION_INFO@@V?$allocator@UITEM_OPTION_INFO@@@std@@@std@@U?$less@H@2@V?$allocator@U?$pair@$$CBHV?$vector@UITEM_OPTION_INFO@@V?$allocator@UITEM_OPTION_INFO@@@std@@@std@@@std@@@2@$0A@@std@@@std@@IBE?AU?$_Tree_find_result@PAU?$_Tree_node@U?$pair@$$CBHV?$vector@UITEM_OPTION_INFO@@V?$allocator@UITEM_OPTION_INFO@@@std@@@std@@@std@@PAX@std@@@1@ABH@Z 00435310 f i ItemOption.obj
 0001:00034310       ??$_Find_lower_bound@H@?$_Tree@V?$_Tmap_traits@HUQUEUE_TIMER_INFO@@U?$less@H@std@@V?$allocator@U?$pair@$$CBHUQUEUE_TIMER_INFO@@@std@@@3@$0A@@std@@@std@@IBE?AU?$_Tree_find_result@PAU?$_Tree_node@U?$pair@$$CBHUQUEUE_TIMER_INFO@@@std@@PAX@std@@@1@ABH@Z 00435310 f i QueueTimer.obj
 0001:00034310       ??$_Find_lower_bound@H@?$_Tree@V?$_Tmap_traits@HUMESSAGE_INFO@@U?$less@H@std@@V?$allocator@U?$pair@$$CBHUMESSAGE_INFO@@@std@@@3@$0A@@std@@@std@@IBE?AU?$_Tree_find_result@PAU?$_Tree_node@U?$pair@$$CBHUMESSAGE_INFO@@@std@@PAX@std@@@1@ABH@Z 00435310 f i Message.obj
 0001:00034310       ??$_Find_lower_bound@H@?$_Tree@V?$_Tmap_traits@HPAVCMapServerData@@U?$less@H@std@@V?$allocator@U?$pair@$$CBHPAVCMapServerData@@@std@@@3@$0A@@std@@@std@@IBE?AU?$_Tree_find_result@PAU?$_Tree_node@U?$pair@$$CBHPAVCMapServerData@@@std@@PAX@std@@@1@ABH@Z 00435310 f i MapServerManager.obj
 0001:00034310       ??$_Find_lower_bound@H@?$_Tree@V?$_Tmap_traits@HUITEM_OPTION2_RATE_INFO@@U?$less@H@std@@V?$allocator@U?$pair@$$CBHUITEM_OPTION2_RATE_INFO@@@std@@@3@$0A@@std@@@std@@IBE?AU?$_Tree_find_result@PAU?$_Tree_node@U?$pair@$$CBHUITEM_OPTION2_RATE_INFO@@@std@@PAX@std@@@1@ABH@Z 00435310 f i ItemOptionRate.obj
 0001:00034310       ??$_Find_lower_bound@H@?$_Tree@V?$_Tmap_traits@HUITEM_OPTION6_RATE_INFO@@U?$less@H@std@@V?$allocator@U?$pair@$$CBHUITEM_OPTION6_RATE_INFO@@@std@@@3@$0A@@std@@@std@@IBE?AU?$_Tree_find_result@PAU?$_Tree_node@U?$pair@$$CBHUITEM_OPTION6_RATE_INFO@@@std@@PAX@std@@@1@ABH@Z 00435310 f i ItemOptionRate.obj
 0001:00034310       ??$_Find_lower_bound@H@?$_Tree@V?$_Tmap_traits@HPAVCUnionInfo@@U?$less@H@std@@V?$allocator@U?$pair@$$CBHPAVCUnionInfo@@@std@@@3@$0A@@std@@@std@@IBE?AU?$_Tree_find_result@PAU?$_Tree_node@U?$pair@$$CBHPAVCUnionInfo@@@std@@PAX@std@@@1@ABH@Z 00435310 f i Union.obj
 0001:00034310       ??$_Find_lower_bound@H@?$_Tree@V?$_Tmap_traits@HUSKILL_INFO@@U?$less@H@std@@V?$allocator@U?$pair@$$CBHUSKILL_INFO@@@std@@@3@$0A@@std@@@std@@IBE?AU?$_Tree_find_result@PAU?$_Tree_node@U?$pair@$$CBHUSKILL_INFO@@@std@@PAX@std@@@1@ABH@Z 00435310 f i SkillManager.obj
 0001:00034310       ??$_Find_lower_bound@H@?$_Tree@V?$_Tmap_traits@HUMAP_MANAGER_INFO@@U?$less@H@std@@V?$allocator@U?$pair@$$CBHUMAP_MANAGER_INFO@@@std@@@3@$0A@@std@@@std@@IBE?AU?$_Tree_find_result@PAU?$_Tree_node@U?$pair@$$CBHUMAP_MANAGER_INFO@@@std@@PAX@std@@@1@ABH@Z 00435310 f i MapManager.obj
 0001:00034310       ??$_Find_lower_bound@H@?$_Tree@V?$_Tmap_traits@HUSHOP_MANAGER_INFO@@U?$less@H@std@@V?$allocator@U?$pair@$$CBHUSHOP_MANAGER_INFO@@@std@@@3@$0A@@std@@@std@@IBE?AU?$_Tree_find_result@PAU?$_Tree_node@U?$pair@$$CBHUSHOP_MANAGER_INFO@@@std@@PAX@std@@@1@ABH@Z 00435310 f i ShopManager.obj
 0001:00034310       ??$_Find_lower_bound@H@?$_Tree@V?$_Tmap_traits@HUCOSTUME_LIST@@U?$less@H@std@@V?$allocator@U?$pair@$$CBHUCOSTUME_LIST@@@std@@@3@$0A@@std@@@std@@IBE?AU?$_Tree_find_result@PAU?$_Tree_node@U?$pair@$$CBHUCOSTUME_LIST@@@std@@PAX@std@@@1@ABH@Z 00435310 f i CostumeSystem.obj
 0001:00034310       ??$_Find_lower_bound@H@?$_Tree@V?$_Tmap_traits@HUITEM_OPTION1_RATE_INFO@@U?$less@H@std@@V?$allocator@U?$pair@$$CBHUITEM_OPTION1_RATE_INFO@@@std@@@3@$0A@@std@@@std@@IBE?AU?$_Tree_find_result@PAU?$_Tree_node@U?$pair@$$CBHUITEM_OPTION1_RATE_INFO@@@std@@PAX@std@@@1@ABH@Z 00435310 f i ItemOptionRate.obj
 0001:00034310       ??$_Find_lower_bound@H@?$_Tree@V?$_Tmap_traits@H_NU?$less@H@std@@V?$allocator@U?$pair@$$CBH_N@std@@@2@$0A@@std@@@std@@IBE?AU?$_Tree_find_result@PAU?$_Tree_node@U?$pair@$$CBH_N@std@@PAX@std@@@1@ABH@Z 00435310 f i Protection.obj
 0001:00034310       ??$_Find_lower_bound@H@?$_Tree@V?$_Tmap_traits@HUMOVE_INFO@@U?$less@H@std@@V?$allocator@U?$pair@$$CBHUMOVE_INFO@@@std@@@3@$0A@@std@@@std@@IBE?AU?$_Tree_find_result@PAU?$_Tree_node@U?$pair@$$CBHUMOVE_INFO@@@std@@PAX@std@@@1@ABH@Z 00435310 f i Move.obj
 0001:00034310       ??$_Find_lower_bound@H@?$_Tree@V?$_Tmap_traits@HUMAP_INFO@@U?$less@H@std@@V?$allocator@U?$pair@$$CBHUMAP_INFO@@@std@@@3@$0A@@std@@@std@@IBE?AU?$_Tree_find_result@PAU?$_Tree_node@U?$pair@$$CBHUMAP_INFO@@@std@@PAX@std@@@1@ABH@Z 00435310 f i Message.obj
 0001:00034310       ??$_Find_lower_bound@H@?$_Tree@V?$_Tmap_traits@HV?$vector@UITEM_BAG_EX_ITEM_INFO@@V?$allocator@UITEM_BAG_EX_ITEM_INFO@@@std@@@std@@U?$less@H@2@V?$allocator@U?$pair@$$CBHV?$vector@UITEM_BAG_EX_ITEM_INFO@@V?$allocator@UITEM_BAG_EX_ITEM_INFO@@@std@@@std@@@std@@@2@$0A@@std@@@std@@IBE?AU?$_Tree_find_result@PAU?$_Tree_node@U?$pair@$$CBHV?$vector@UITEM_BAG_EX_ITEM_INFO@@V?$allocator@UITEM_BAG_EX_ITEM_INFO@@@std@@@std@@@std@@PAX@std@@@1@ABH@Z 00435310 f i ItemBagEx.obj
 0001:00034310       ??$_Find_lower_bound@H@?$_Tree@V?$_Tmap_traits@HUGATE_INFO@@U?$less@H@std@@V?$allocator@U?$pair@$$CBHUGATE_INFO@@@std@@@3@$0A@@std@@@std@@IBE?AU?$_Tree_find_result@PAU?$_Tree_node@U?$pair@$$CBHUGATE_INFO@@@std@@PAX@std@@@1@ABH@Z 00435310 f i Gate.obj
 0001:00034310       ??$_Find_lower_bound@H@?$_Tree@V?$_Tmap_traits@HUMASTER_SKILL_TREE_INFO@@U?$less@H@std@@V?$allocator@U?$pair@$$CBHUMASTER_SKILL_TREE_INFO@@@std@@@3@$0A@@std@@@std@@IBE?AU?$_Tree_find_result@PAU?$_Tree_node@U?$pair@$$CBHUMASTER_SKILL_TREE_INFO@@@std@@PAX@std@@@1@ABH@Z 00435310 f i MasterSkillTree.obj
 0001:00034310       ??$_Find_lower_bound@H@?$_Tree@V?$_Tmap_traits@HUITEM_MOVE_INFO@@U?$less@H@std@@V?$allocator@U?$pair@$$CBHUITEM_MOVE_INFO@@@std@@@3@$0A@@std@@@std@@IBE?AU?$_Tree_find_result@PAU?$_Tree_node@U?$pair@$$CBHUITEM_MOVE_INFO@@@std@@PAX@std@@@1@ABH@Z 00435310 f i ItemMove.obj
 0001:00034310       ??$_Find_lower_bound@H@?$_Tree@V?$_Tmap_traits@HUSOCKET_ITEM_TYPE_INFO@@U?$less@H@std@@V?$allocator@U?$pair@$$CBHUSOCKET_ITEM_TYPE_INFO@@@std@@@3@$0A@@std@@@std@@IBE?AU?$_Tree_find_result@PAU?$_Tree_node@U?$pair@$$CBHUSOCKET_ITEM_TYPE_INFO@@@std@@PAX@std@@@1@ABH@Z 00435310 f i SocketItemType.obj
 0001:00034310       ??$_Find_lower_bound@H@?$_Tree@V?$_Tmap_traits@HUQUEST_DATA@@U?$less@H@std@@V?$allocator@U?$pair@$$CBHUQUEST_DATA@@@std@@@3@$0A@@std@@@std@@IBE?AU?$_Tree_find_result@PAU?$_Tree_node@U?$pair@$$CBHUQUEST_DATA@@@std@@PAX@std@@@1@ABH@Z 00435310 f i CommandManager.obj
 0001:00034360       ??_D?$basic_stringstream@DU?$char_traits@D@std@@V?$allocator@D@2@@std@@QAEXXZ 00435360 f i computerHash.obj
 0001:00034430       ?machineHash@cComputerHash@@SA?AV?$basic_string@DU?$char_traits@D@std@@V?$allocator@D@2@@std@@XZ 00435430 f   computerHash.obj
 0001:000347d0       ?seekpos@?$basic_stringbuf@DU?$char_traits@D@std@@V?$allocator@D@2@@std@@MAE?AV?$fpos@U_Mbstatet@@@2@V32@H@Z 004357d0 f i computerHash.obj
 0001:000348e0       ?seekoff@?$basic_stringbuf@DU?$char_traits@D@std@@V?$allocator@D@2@@std@@MAE?AV?$fpos@U_Mbstatet@@@2@_JHH@Z 004358e0 f i computerHash.obj
 0001:00034a70       ?underflow@?$basic_stringbuf@DU?$char_traits@D@std@@V?$allocator@D@2@@std@@MAEHXZ 00435a70 f i computerHash.obj
 0001:00034ad0       ?pbackfail@?$basic_stringbuf@DU?$char_traits@D@std@@V?$allocator@D@2@@std@@MAEHH@Z 00435ad0 f i computerHash.obj
 0001:00034b30       ?overflow@?$basic_stringbuf@DU?$char_traits@D@std@@V?$allocator@D@2@@std@@MAEHH@Z 00435b30 f i computerHash.obj
 0001:00034d00       ??1?$basic_stringbuf@DU?$char_traits@D@std@@V?$allocator@D@2@@std@@UAE@XZ 00435d00 f i computerHash.obj
 0001:00034dd0       ?imbue@?$basic_streambuf@DU?$char_traits@D@std@@@std@@MAEXABVlocale@2@@Z 00435dd0 f i computerHash.obj
 0001:00034de0       __matherr                  00435de0 f i LIBCMT:matherr.obj
 0001:00034de0       ___scrt_exe_initialize_mta 00435de0 f i LIBCMT:utility_desktop.obj
 0001:00034de0       __get_startup_commit_mode  00435de0 f i LIBCMT:commit_mode.obj
 0001:00034de0       __get_startup_new_mode     00435de0 f i LIBCMT:new_mode.obj
 0001:00034de0       __get_startup_thread_locale_mode 00435de0 f i LIBCMT:thread_locale.obj
 0001:00034de0       ___scrt_initialize_winrt   00435de0 f i LIBCMT:utility_desktop.obj
 0001:00034de0       ___scrt_stub_for_initialize_mta 00435de0 f i LIBCMT:utility_desktop.obj
 0001:00034de0       ?sync@?$basic_streambuf@DU?$char_traits@D@std@@@std@@MAEHXZ 00435de0 f i computerHash.obj
 0001:00034df0       ?setbuf@?$basic_streambuf@DU?$char_traits@D@std@@@std@@MAEPAV12@PAD_J@Z 00435df0 f i computerHash.obj
 0001:00034e00       ?seekpos@?$basic_streambuf@DU?$char_traits@D@std@@@std@@MAE?AV?$fpos@U_Mbstatet@@@2@V32@H@Z 00435e00 f i computerHash.obj
 0001:00034e30       ?seekoff@?$basic_streambuf@DU?$char_traits@D@std@@@std@@MAE?AV?$fpos@U_Mbstatet@@@2@_JHH@Z 00435e30 f i computerHash.obj
 0001:00034e60       ?xsputn@?$basic_streambuf@DU?$char_traits@D@std@@@std@@MAE_JPBD_J@Z 00435e60 f i computerHash.obj
 0001:00034f40       ?xsgetn@?$basic_streambuf@DU?$char_traits@D@std@@@std@@MAE_JPAD_J@Z 00435f40 f i computerHash.obj
 0001:00035020       ?uflow@?$basic_streambuf@DU?$char_traits@D@std@@@std@@MAEHXZ 00436020 f i computerHash.obj
 0001:00035050       ?underflow@?$basic_streambuf@DU?$char_traits@D@std@@@std@@MAEHXZ 00436050 f i computerHash.obj
 0001:00035060       ?showmanyc@?$basic_streambuf@DU?$char_traits@D@std@@@std@@MAE_JXZ 00436060 f i computerHash.obj
 0001:00035070       ?overflow@?$basic_streambuf@DU?$char_traits@D@std@@@std@@MAEHH@Z 00436070 f i computerHash.obj
 0001:00035070       ?pbackfail@?$basic_streambuf@DU?$char_traits@D@std@@@std@@MAEHH@Z 00436070 f i computerHash.obj
 0001:00035080       __initialize_invalid_parameter_handler 00436080 f i LIBCMT:invalid_parameter_handler.obj
 0001:00035080       ?_Unlock@?$basic_streambuf@DU?$char_traits@D@std@@@std@@UAEXXZ 00436080 f i computerHash.obj
 0001:00035080       @_guard_check_icall_nop@4  00436080 f i LIBCMT:guard_support.obj
 0001:00035080       __initialize_denormal_control 00436080 f i LIBCMT:denormal_control.obj
 0001:00035080       ?_Lock@?$basic_streambuf@DU?$char_traits@D@std@@@std@@UAEXXZ 00436080 f i computerHash.obj
 0001:00035090       ??1?$basic_streambuf@DU?$char_traits@D@std@@@std@@UAE@XZ 00436090 f i computerHash.obj
 0001:000350d0       ?str@?$basic_stringstream@DU?$char_traits@D@std@@V?$allocator@D@2@@std@@QBE?AV?$basic_string@DU?$char_traits@D@std@@V?$allocator@D@2@@2@XZ 004360d0 f i computerHash.obj
 0001:000351b0       ??0?$basic_stringstream@DU?$char_traits@D@std@@V?$allocator@D@2@@std@@QAE@XZ 004361b0 f i computerHash.obj
 0001:00035290       ??1?$basic_iostream@DU?$char_traits@D@std@@@std@@UAE@XZ 00436290 f i computerHash.obj
 0001:000352f0       ??6?$basic_ostream@DU?$char_traits@D@std@@@std@@QAEAAV01@K@Z 004362f0 f i computerHash.obj
 0001:000354d0       ??6?$basic_ostream@DU?$char_traits@D@std@@@std@@QAEAAV01@G@Z 004364d0 f i computerHash.obj
 0001:000356c0       ??1?$basic_ostream@DU?$char_traits@D@std@@@std@@UAE@XZ 004366c0 f i computerHash.obj
 0001:000356e0       ??1?$basic_istream@DU?$char_traits@D@std@@@std@@UAE@XZ 004366e0 f i computerHash.obj
 0001:00035700       ??1?$basic_ios@DU?$char_traits@D@std@@@std@@UAE@XZ 00436700 f i computerHash.obj
 0001:00035750       ??_G?$basic_stringbuf@DU?$char_traits@D@std@@V?$allocator@D@2@@std@@UAEPAXI@Z 00436750 f i computerHash.obj
 0001:00035750       ??_E?$basic_stringbuf@DU?$char_traits@D@std@@V?$allocator@D@2@@std@@UAEPAXI@Z 00436750 f i * CIL library *:* CIL module *
 0001:00035780       ??_G?$basic_streambuf@DU?$char_traits@D@std@@@std@@UAEPAXI@Z 00436780 f i computerHash.obj
 0001:00035780       ??_E?$basic_streambuf@DU?$char_traits@D@std@@@std@@UAEPAXI@Z 00436780 f i * CIL library *:* CIL module *
 0001:000357d0       ??_E?$basic_stringstream@DU?$char_traits@D@std@@V?$allocator@D@2@@std@@UAEPAXI@Z 004367d0 f i * CIL library *:* CIL module *
 0001:000357d0       ??_G?$basic_stringstream@DU?$char_traits@D@std@@V?$allocator@D@2@@std@@UAEPAXI@Z 004367d0 f i computerHash.obj
 0001:00035800       ??_G?$basic_iostream@DU?$char_traits@D@std@@@std@@UAEPAXI@Z 00436800 f i computerHash.obj
 0001:00035800       ??_E?$basic_iostream@DU?$char_traits@D@std@@@std@@UAEPAXI@Z 00436800 f i * CIL library *:* CIL module *
 0001:000358c0       ??_G?$basic_ostream@DU?$char_traits@D@std@@@std@@UAEPAXI@Z 004368c0 f i computerHash.obj
 0001:000358c0       ??_E?$basic_ostream@DU?$char_traits@D@std@@@std@@UAEPAXI@Z 004368c0 f i * CIL library *:* CIL module *
 0001:00035940       ??_G?$basic_istream@DU?$char_traits@D@std@@@std@@UAEPAXI@Z 00436940 f i computerHash.obj
 0001:00035940       ??_E?$basic_istream@DU?$char_traits@D@std@@@std@@UAEPAXI@Z 00436940 f i * CIL library *:* CIL module *
 0001:000359c0       ??_G?$basic_ios@DU?$char_traits@D@std@@@std@@UAEPAXI@Z 004369c0 f i computerHash.obj
 0001:000359c0       ??_E?$basic_ios@DU?$char_traits@D@std@@@std@@UAEPAXI@Z 004369c0 f i * CIL library *:* CIL module *
 0001:00035a30       ?do_put@?$num_put@DV?$ostreambuf_iterator@DU?$char_traits@D@std@@@std@@@std@@MBE?AV?$ostreambuf_iterator@DU?$char_traits@D@std@@@2@V32@AAVios_base@2@DPBX@Z 00436a30 f i computerHash.obj
 0001:00035aa0       ?do_put@?$num_put@DV?$ostreambuf_iterator@DU?$char_traits@D@std@@@std@@@std@@MBE?AV?$ostreambuf_iterator@DU?$char_traits@D@std@@@2@V32@AAVios_base@2@DO@Z 00436aa0 f i computerHash.obj
 0001:00035c60       ?do_put@?$num_put@DV?$ostreambuf_iterator@DU?$char_traits@D@std@@@std@@@std@@MBE?AV?$ostreambuf_iterator@DU?$char_traits@D@std@@@2@V32@AAVios_base@2@DN@Z 00436c60 f i computerHash.obj
 0001:00035e20       ?do_put@?$num_put@DV?$ostreambuf_iterator@DU?$char_traits@D@std@@@std@@@std@@MBE?AV?$ostreambuf_iterator@DU?$char_traits@D@std@@@2@V32@AAVios_base@2@D_K@Z 00436e20 f i computerHash.obj
 0001:00035ea0       ?do_put@?$num_put@DV?$ostreambuf_iterator@DU?$char_traits@D@std@@@std@@@std@@MBE?AV?$ostreambuf_iterator@DU?$char_traits@D@std@@@2@V32@AAVios_base@2@D_J@Z 00436ea0 f i computerHash.obj
 0001:00035f20       ?do_put@?$num_put@DV?$ostreambuf_iterator@DU?$char_traits@D@std@@@std@@@std@@MBE?AV?$ostreambuf_iterator@DU?$char_traits@D@std@@@2@V32@AAVios_base@2@DK@Z 00436f20 f i computerHash.obj
 0001:00035fa0       ?do_put@?$num_put@DV?$ostreambuf_iterator@DU?$char_traits@D@std@@@std@@@std@@MBE?AV?$ostreambuf_iterator@DU?$char_traits@D@std@@@2@V32@AAVios_base@2@DJ@Z 00436fa0 f i computerHash.obj
 0001:00036020       ?do_put@?$num_put@DV?$ostreambuf_iterator@DU?$char_traits@D@std@@@std@@@std@@MBE?AV?$ostreambuf_iterator@DU?$char_traits@D@std@@@2@V32@AAVios_base@2@D_N@Z 00437020 f i computerHash.obj
 0001:00036230       ??1sentry@?$basic_ostream@DU?$char_traits@D@std@@@std@@QAE@XZ 00437230 f i computerHash.obj
 0001:000362a0       ??0sentry@?$basic_ostream@DU?$char_traits@D@std@@@std@@QAE@AAV12@@Z 004372a0 f i computerHash.obj
 0001:00036340       ?_Pnavail@?$basic_streambuf@DU?$char_traits@D@std@@@std@@IBE_JXZ 00437340 f i computerHash.obj
 0001:00036360       ?_Gnavail@?$basic_streambuf@DU?$char_traits@D@std@@@std@@IBE_JXZ 00437360 f i computerHash.obj
 0001:00036380       ??0?$basic_iostream@DU?$char_traits@D@std@@@std@@QAE@PAV?$basic_streambuf@DU?$char_traits@D@std@@@1@@Z 00437380 f i computerHash.obj
 0001:00036430       ??_E?$num_put@DV?$ostreambuf_iterator@DU?$char_traits@D@std@@@std@@@std@@MAEPAXI@Z 00437430 f i * CIL library *:* CIL module *
 0001:00036430       ??_G?$num_put@DV?$ostreambuf_iterator@DU?$char_traits@D@std@@@std@@@std@@MAEPAXI@Z 00437430 f i computerHash.obj
 0001:00036430       ??_G?$codecvt@DDU_Mbstatet@@@std@@MAEPAXI@Z 00437430 f i MMOTOP.obj
 0001:00036430       ??_E?$codecvt@DDU_Mbstatet@@@std@@MAEPAXI@Z 00437430 f i * CIL library *:* CIL module *
 0001:00036460       ?do_truename@?$numpunct@D@std@@MBE?AV?$basic_string@DU?$char_traits@D@std@@V?$allocator@D@2@@2@XZ 00437460 f i computerHash.obj
 0001:000364b0       ?do_falsename@?$numpunct@D@std@@MBE?AV?$basic_string@DU?$char_traits@D@std@@V?$allocator@D@2@@2@XZ 004374b0 f i computerHash.obj
 0001:00036500       ?do_grouping@?$numpunct@D@std@@MBE?AV?$basic_string@DU?$char_traits@D@std@@V?$allocator@D@2@@2@XZ 00437500 f i computerHash.obj
 0001:00036550       ?do_thousands_sep@?$numpunct@D@std@@MBEDXZ 00437550 f i computerHash.obj
 0001:00036560       ?do_decimal_point@?$numpunct@D@std@@MBEDXZ 00437560 f i computerHash.obj
 0001:00036570       ?_Rep@?$num_put@DV?$ostreambuf_iterator@DU?$char_traits@D@std@@@std@@@std@@ABA?AV?$ostreambuf_iterator@DU?$char_traits@D@std@@@2@V32@DI@Z 00437570 f i computerHash.obj
 0001:000365e0       ?_Put@?$num_put@DV?$ostreambuf_iterator@DU?$char_traits@D@std@@@std@@@std@@ABA?AV?$ostreambuf_iterator@DU?$char_traits@D@std@@@2@V32@PBDI@Z 004375e0 f i computerHash.obj
 0001:00036660       ?_Iput@?$num_put@DV?$ostreambuf_iterator@DU?$char_traits@D@std@@@std@@@std@@ABA?AV?$ostreambuf_iterator@DU?$char_traits@D@std@@@2@V32@AAVios_base@2@DPADI@Z 00437660 f i computerHash.obj
 0001:00036a60       ?_Ifmt@?$num_put@DV?$ostreambuf_iterator@DU?$char_traits@D@std@@@std@@@std@@ABAPADPADPBDH@Z 00437a60 f i computerHash.obj
 0001:00036af0       ?_Fput@?$num_put@DV?$ostreambuf_iterator@DU?$char_traits@D@std@@@std@@@std@@ABA?AV?$ostreambuf_iterator@DU?$char_traits@D@std@@@2@V32@AAVios_base@2@DPBDI@Z 00437af0 f i computerHash.obj
 0001:00036f50       ?_Ffmt@?$num_put@DV?$ostreambuf_iterator@DU?$char_traits@D@std@@@std@@@std@@ABAPADPADDH@Z 00437f50 f i computerHash.obj
 0001:00037010       ??1_Sentry_base@?$basic_istream@DU?$char_traits@D@std@@@std@@QAE@XZ 00438010 f i MMOTOP.obj
 0001:00037010       ??1_Sentry_base@?$basic_ostream@DU?$char_traits@D@std@@@std@@QAE@XZ 00438010 f i computerHash.obj
 0001:00037060       ??0?$basic_streambuf@DU?$char_traits@D@std@@@std@@IAE@XZ 00438060 f i computerHash.obj
 0001:00037130       ?flush@?$basic_ostream@DU?$char_traits@D@std@@@std@@QAEAAV12@XZ 00438130 f i computerHash.obj
 0001:000371f0       ?_Osfx@?$basic_ostream@DU?$char_traits@D@std@@@std@@QAEXXZ 004381f0 f i computerHash.obj
 0001:00037280       ??_G?$numpunct@D@std@@MAEPAXI@Z 00438280 f i computerHash.obj
 0001:00037280       ??_E?$numpunct@D@std@@MAEPAXI@Z 00438280 f i * CIL library *:* CIL module *
 0001:000372d0       ?init@?$basic_ios@DU?$char_traits@D@std@@@std@@IAEXPAV?$basic_streambuf@DU?$char_traits@D@std@@@2@_N@Z 004382d0 f i computerHash.obj
 0001:000373f0       ??$?6U?$char_traits@D@std@@@std@@YAAAV?$basic_ostream@DU?$char_traits@D@std@@@0@AAV10@D@Z 004383f0 f i computerHash.obj
 0001:000376d0       ??$?6U?$char_traits@D@std@@@std@@YAAAV?$basic_ostream@DU?$char_traits@D@std@@@0@AAV10@PBD@Z 004386d0 f i computerHash.obj
 0001:00037980       ??$use_facet@V?$num_put@DV?$ostreambuf_iterator@DU?$char_traits@D@std@@@std@@@std@@@std@@YAABV?$num_put@DV?$ostreambuf_iterator@DU?$char_traits@D@std@@@std@@@0@ABVlocale@0@@Z 00438980 f i computerHash.obj
 0001:00037ac0       ??$use_facet@V?$numpunct@D@std@@@std@@YAABV?$numpunct@D@0@ABVlocale@0@@Z 00438ac0 f i computerHash.obj
 0001:00037ce0       ??$_Reallocate_grow_by@V<lambda_6607a66f2a10a1261ff9db96cba1015b>@@IID@?$basic_string@DU?$char_traits@D@std@@V?$allocator@D@2@@std@@AAEAAV01@IV<lambda_6607a66f2a10a1261ff9db96cba1015b>@@IID@Z 00438ce0 f i computerHash.obj
 0001:00037e60       ?sputn@?$basic_streambuf@DU?$char_traits@D@std@@@std@@QAE_JPBD_J@Z 00438e60 f i computerHash.obj
 0001:00037e80       ??0?$basic_string@DU?$char_traits@D@std@@V?$allocator@D@2@@std@@QAE@U_String_constructor_concat_tag@1@ABV01@QBDI2I@Z 00438e80 f i computerHash.obj
 0001:00037f70       ??1?$_Tidy_guard@V?$numpunct@D@std@@@std@@QAE@XZ 00438f70 f i computerHash.obj
 0001:00037f94       ??_E?$basic_ostream@DU?$char_traits@D@std@@@std@@$4PPPPPPPM@A@AEPAXI@Z 00438f94 f i computerHash.obj
 0001:00037f9c       ??_E?$basic_stringstream@DU?$char_traits@D@std@@V?$allocator@D@2@@std@@$4PPPPPPPM@A@AEPAXI@Z 00438f9c f i computerHash.obj
 0001:00037fa4       ??_E?$basic_istream@DU?$char_traits@D@std@@@std@@$4PPPPPPPM@A@AEPAXI@Z 00438fa4 f i computerHash.obj
 0001:00037fac       ??_E?$basic_iostream@DU?$char_traits@D@std@@@std@@$4PPPPPPPM@A@AEPAXI@Z 00438fac f i computerHash.obj
 0001:00037fc0       ??0exception@std@@QAE@QBD@Z 00438fc0 f i computerHash.obj
 0001:00038000       ??0_System_error@std@@IAE@Verror_code@1@ABV?$basic_string@DU?$char_traits@D@std@@V?$allocator@D@2@@1@@Z 00439000 f i computerHash.obj
 0001:000381d0       ??0failure@ios_base@std@@QAE@PBDABVerror_code@2@@Z 004391d0 f i computerHash.obj
 0001:000382c0       ??_G_System_error_category@std@@UAEPAXI@Z 004392c0 f i MonsterManager.obj
 0001:000382c0       ??_G_Generic_error_category@std@@UAEPAXI@Z 004392c0 f i MonsterManager.obj
 0001:000382c0       ??_E_System_error_category@std@@UAEPAXI@Z 004392c0 f i * CIL library *:* CIL module *
 0001:000382c0       ??_G_Iostream_error_category2@std@@UAEPAXI@Z 004392c0 f i computerHash.obj
 0001:000382c0       ??_E_Iostream_error_category2@std@@UAEPAXI@Z 004392c0 f i * CIL library *:* CIL module *
 0001:000382c0       ??_E_Generic_error_category@std@@UAEPAXI@Z 004392c0 f i * CIL library *:* CIL module *
 0001:000382e0       ?name@_Iostream_error_category2@std@@UBEPBDXZ 004392e0 f i computerHash.obj
 0001:000382f0       ?message@_Iostream_error_category2@std@@UBE?AV?$basic_string@DU?$char_traits@D@std@@V?$allocator@D@2@@2@H@Z 004392f0 f i computerHash.obj
 0001:00038370       ?equivalent@error_category@std@@UBE_NABVerror_code@2@H@Z 00439370 f i computerHash.obj
 0001:000383a0       ?default_error_condition@error_category@std@@UBE?AVerror_condition@2@H@Z 004393a0 f i computerHash.obj
 0001:000383c0       ?equivalent@error_category@std@@UBE_NHABVerror_condition@2@@Z 004393c0 f i computerHash.obj
 0001:00038400       ?make_error_code@std@@YA?AVerror_code@1@W4io_errc@1@@Z 00439400 f i computerHash.obj
 0001:00038410       ??_Gsystem_error@std@@UAEPAXI@Z 00439410 f i computerHash.obj
 0001:00038410       ??_Gfailure@ios_base@std@@UAEPAXI@Z 00439410 f i computerHash.obj
 0001:00038410       ??_Efailure@ios_base@std@@UAEPAXI@Z 00439410 f i * CIL library *:* CIL module *
 0001:00038410       ??_Esystem_error@std@@UAEPAXI@Z 00439410 f i * CIL library *:* CIL module *
 0001:00038410       ??_G_System_error@std@@UAEPAXI@Z 00439410 f i computerHash.obj
 0001:00038410       ??_E_System_error@std@@UAEPAXI@Z 00439410 f i * CIL library *:* CIL module *
 0001:00038440       ??0failure@ios_base@std@@QAE@ABV012@@Z 00439440 f i computerHash.obj
 0001:00038490       ??0system_error@std@@QAE@ABV01@@Z 00439490 f i computerHash.obj
 0001:000384e0       ??0_System_error@std@@QAE@ABV01@@Z 004394e0 f i computerHash.obj
 0001:00038530       ??0runtime_error@std@@QAE@ABV01@@Z 00439530 f i computerHash.obj
 0001:00038570       ?clear@ios_base@std@@QAEXH_N@Z 00439570 f i computerHash.obj
 0001:000385e0       ?assign@?$basic_string@DU?$char_traits@D@std@@V?$allocator@D@2@@std@@QAEAAV12@ID@Z 004395e0 f i computerHash.obj
 0001:00038710       ??_E?$ctype@D@std@@MAEPAXI@Z 00439710 f i * CIL library *:* CIL module *
 0001:00038710       ??_G?$ctype@D@std@@MAEPAXI@Z 00439710 f i computerHash.obj
 0001:00038770       ?do_tolower@?$ctype@D@std@@MBEPBDPADPBD@Z 00439770 f i computerHash.obj
 0001:000387a0       ?do_tolower@?$ctype@D@std@@MBEDD@Z 004397a0 f i computerHash.obj
 0001:000387c0       ?do_toupper@?$ctype@D@std@@MBEPBDPADPBD@Z 004397c0 f i computerHash.obj
 0001:000387f0       ?do_toupper@?$ctype@D@std@@MBEDD@Z 004397f0 f i computerHash.obj
 0001:00038810       ?do_widen@?$ctype@D@std@@MBEPBDPBD0PAD@Z 00439810 f i computerHash.obj
 0001:00038830       ?do_widen@?$ctype@D@std@@MBEDD@Z 00439830 f i computerHash.obj
 0001:00038840       ?do_narrow@?$ctype@D@std@@MBEPBDPBD0DPAD@Z 00439840 f i computerHash.obj
 0001:00038860       ?do_narrow@?$ctype@D@std@@MBEDDD@Z 00439860 f i computerHash.obj
 0001:00038870       ??0_Locinfo@std@@QAE@PBD@Z 00439870 f i computerHash.obj
 0001:00038920       ??1?$_Yarn@_W@std@@QAE@XZ  00439920 f i computerHash.obj
 0001:00038920       ??1?$_Yarn@D@std@@QAE@XZ   00439920 f i computerHash.obj
 0001:00038940       ??1_Locinfo@std@@QAE@XZ    00439940 f i computerHash.obj
 0001:00038a20       ??1?$unique_ptr@V_Facet_base@std@@U?$default_delete@V_Facet_base@std@@@2@@std@@QAE@XZ 00439a20 f i computerHash.obj
 0001:00038a30       ??$use_facet@V?$ctype@D@std@@@std@@YAABV?$ctype@D@0@ABVlocale@0@@Z 00439a30 f i computerHash.obj
 0001:00038ba0       ??1facet@locale@std@@MAE@XZ 00439ba0 f i computerHash.obj
 0001:00038bb0       ??$_Reallocate_grow_by@V<lambda_c1b8c41cb4019640539cfd828748c4d4>@@ID@?$basic_string@DU?$char_traits@D@std@@V?$allocator@D@2@@std@@AAEAAV01@IV<lambda_c1b8c41cb4019640539cfd828748c4d4>@@ID@Z 00439bb0 f i computerHash.obj
 0001:00038d10       ?resize@?$basic_string@DU?$char_traits@D@std@@V?$allocator@D@2@@std@@QAEXID@Z 00439d10 f i computerHash.obj
 0001:00038d90       _sprintf_s                 00439d90 f i computerHash.obj
 0001:00038db0       ??_Eios_base@std@@UAEPAXI@Z 00439db0 f i * CIL library *:* CIL module *
 0001:00038db0       ??_Gios_base@std@@UAEPAXI@Z 00439db0 f i computerHash.obj
 0001:00038e20       ?_Incref@facet@locale@std@@UAEXXZ 00439e20 f i computerHash.obj
 0001:00038e30       ?_Decref@facet@locale@std@@UAEPAV_Facet_base@3@XZ 00439e30 f i computerHash.obj
 0001:00038e50       ??_E_Facet_base@std@@UAEPAXI@Z 00439e50 f i * CIL library *:* CIL module *
 0001:00038e50       ??_G_Facet_base@std@@UAEPAXI@Z 00439e50 f i computerHash.obj
 0001:00038e80       ??1locale@std@@QAE@XZ      00439e80 f i computerHash.obj
 0001:00038ea0       ??_ECConnection@@UAEPAXI@Z 00439ea0 f i * CIL library *:* CIL module *
 0001:00038ea0       ??_GCConnection@@UAEPAXI@Z 00439ea0 f i Connection.obj
 0001:00038f00       ?Connect@CConnection@@QAE_NPADGK@Z 00439f00 f   Connection.obj
 0001:00039040       ?DataRecv@CConnection@@QAE_NXZ 0043a040 f   Connection.obj
 0001:000391a0       ?DataSend@CConnection@@QAE_NPAEH@Z 0043a1a0 f   Connection.obj
 0001:000392e0       ?DataSendEx@CConnection@@QAE_NXZ 0043a2e0 f   Connection.obj
 0001:000393d0       ??_GCCostumeSystem@@UAEPAXI@Z 0043a3d0 f i CostumeSystem.obj
 0001:000393d0       ??_ECCostumeSystem@@UAEPAXI@Z 0043a3d0 f i * CIL library *:* CIL module *
 0001:00039400       ?UnHandledExceptionFilter@CrashReporter@@CGJPAU_EXCEPTION_POINTERS@@@Z 0043a400 f   crash-report.obj
 0001:00039550       ??$_snwprintf_s@$0BAE@@@YAHAAY0BAE@_WIPB_WZZ 0043a550 f i crash-report.obj
 0001:00039590       ??_ECCriticalSection@@UAEPAXI@Z 0043a590 f i * CIL library *:* CIL module *
 0001:00039590       ??_GCCriticalSection@@UAEPAXI@Z 0043a590 f i CriticalSection.obj
 0001:000395c0       ??1CCriticalSection@@UAE@XZ 0043a5c0 f   CriticalSection.obj
 0001:000395e0       ??_ECCrywolf@@UAEPAXI@Z    0043a5e0 f i * CIL library *:* CIL module *
 0001:000395e0       ??_GCCrywolf@@UAEPAXI@Z    0043a5e0 f i Crywolf.obj
 0001:00039660       ?CGCrywolfAltarContractRecv@CCrywolf@@QAEXPAUPMSG_CRYWOLF_ALTAR_CONTRACT_RECV@@H@Z 0043a660 f   Crywolf.obj
 0001:00039810       ?SetCrywolfMapAttr@CCrywolf@@QAEXH@Z 0043a810 f   Crywolf.obj
 0001:00039870       ?SetCrywolfCommonNPC@CCrywolf@@QAEXH@Z 0043a870 f   Crywolf.obj
 0001:000398e0       ??0CCrywolfAltarInfo@@QAE@XZ 0043a8e0 f i CrywolfAltar.obj
 0001:00039920       ??_ECCrywolfAltar@@UAEPAXI@Z 0043a920 f i * CIL library *:* CIL module *
 0001:00039920       ??_GCCrywolfAltar@@UAEPAXI@Z 0043a920 f i CrywolfAltar.obj
 0001:00039950       ?SetAltarUserIndex@CCrywolfAltar@@QAE_NHHH@Z 0043a950 f   CrywolfAltar.obj
 0001:00039d60       ??0CCrywolfStateTimeInfo@@QAE@XZ 0043ad60 f   CrywolfStateTimeInfo.obj
 0001:00039db0       ??0CTime@ATL@@QAE@HHHHHHH@Z 0043adb0 f i CrywolfStateTimeInfo.obj
 0001:00039e60       ??_GCCrywolfStatue@@UAEPAXI@Z 0043ae60 f i CrywolfStatue.obj
 0001:00039e60       ??_ECCrywolfStatue@@UAEPAXI@Z 0043ae60 f i * CIL library *:* CIL module *
 0001:00039e90       ??_GCCrywolfSync@@UAEPAXI@Z 0043ae90 f i CrywolfSync.obj
 0001:00039e90       ??_ECCrywolfSync@@UAEPAXI@Z 0043ae90 f i * CIL library *:* CIL module *
 0001:00039ec0       ??_GCCrywolfUtil@@UAEPAXI@Z 0043aec0 f i CrywolfUtil.obj
 0001:00039ec0       ??_ECCrywolfUtil@@UAEPAXI@Z 0043aec0 f i * CIL library *:* CIL module *
 0001:00039ef0       ?SendCrywolfUserAnyMsg@CCrywolfUtil@@QAAXHPADZZ 0043aef0 f   CrywolfUtil.obj
 0001:00039fb0       ?CSDataSend@@YAXPAEH@Z     0043afb0 f   CSProtocol.obj
 0001:0003a080       ?CSDataRecv@@YAXEPAEH@Z    0043b080 f   CSProtocol.obj
 0001:0003a140       ?ChatServerProtocolCore@@YAXEPAEH@Z 0043b140 f   CSProtocol.obj
 0001:0003a6e0       ?FriendListRequest@@YAXH@Z 0043b6e0 f   CSProtocol.obj
 0001:0003a770       ?FriendMessageSend@@YAXPAUPMSG_FRIEND_MEMO1@@HH@Z 0043b770 f   CSProtocol.obj
 0001:0003a930       ?FriendMemoSendResult@@YAXPAUFHP_FRIEND_MEMO_SEND_RESULT@@@Z 0043b930 f   CSProtocol.obj
 0001:0003a9c0       ?GEMailMessageSend@@YAXPAD00EEPAE0@Z 0043b9c0 f   CSProtocol.obj
 0001:0003aaf0       ??0CUSTOM_ARENA_INFO@@QAE@XZ 0043baf0 f i CustomArena.obj
 0001:0003ab20       ??_ECCustomArena@@UAEPAXI@Z 0043bb20 f i * CIL library *:* CIL module *
 0001:0003ab20       ??_GCCustomArena@@UAEPAXI@Z 0043bb20 f i CustomArena.obj
 0001:0003aba0       ??1CUSTOM_ARENA_INFO@@QAE@XZ 0043bba0 f i CustomArena.obj
 0001:0003abb0       ?ReadCustomArenaInfo@CCustomArena@@QAEXPAD0@Z 0043bbb0 f   CustomArena.obj
 0001:0003ae70       ?Load@CCustomArena@@QAEXPAD@Z 0043be70 f   CustomArena.obj
 0001:0003b2b0       ?MainProc@CCustomArena@@QAEXXZ 0043c2b0 f   CustomArena.obj
 0001:0003b5c0       ?SetState@CCustomArena@@QAEXPAUCUSTOM_ARENA_INFO@@H@Z 0043c5c0 f   CustomArena.obj
 0001:0003b660       ?SetState_EMPTY@CCustomArena@@QAEXPAUCUSTOM_ARENA_INFO@@@Z 0043c660 f   CustomArena.obj
 0001:0003b8b0       ?SetState_CLEAN@CCustomArena@@QAEXPAUCUSTOM_ARENA_INFO@@@Z 0043c8b0 f   CustomArena.obj
 0001:0003ba90       ?CheckEnterEnabled@CCustomArena@@QAE_NPAUOBJECTSTRUCT@@H@Z 0043ca90 f   CustomArena.obj
 0001:0003bed0       ?CheckPlayerJoined@CCustomArena@@QAE_NPAUOBJECTSTRUCT@@0@Z 0043ced0 f   CustomArena.obj
 0001:0003bf50       ?CheckPlayerTarget@CCustomArena@@QAE_NPAUOBJECTSTRUCT@@0@Z 0043cf50 f   CustomArena.obj
 0001:0003bfd0       ?DelUser@CCustomArena@@QAE_NPAUCUSTOM_ARENA_INFO@@H@Z 0043cfd0 f   CustomArena.obj
 0001:0003c040       ?CheckUser@CCustomArena@@QAEXPAUCUSTOM_ARENA_INFO@@@Z 0043d040 f   CustomArena.obj
 0001:0003c090       ?NoticeSendToAll@CCustomArena@@QAAXPAUCUSTOM_ARENA_INFO@@HPADZZ 0043d090 f   CustomArena.obj
 0001:0003c120       ??_ECCustomAttack@@UAEPAXI@Z 0043d120 f i * CIL library *:* CIL module *
 0001:0003c120       ??_GCCustomAttack@@UAEPAXI@Z 0043d120 f i CustomAttack.obj
 0001:0003c160       ?Load@CCustomAttack@@QAEXPAD@Z 0043d160 f   CustomAttack.obj
 0001:0003c2e0       ?ReadCustomAttackInfo@CCustomAttack@@QAEXPAD0@Z 0043d2e0 f   CustomAttack.obj
 0001:0003cc00       ?CommandCustomAttack@CCustomAttack@@QAEXPAUOBJECTSTRUCT@@PAD@Z 0043dc00 f   CustomAttack.obj
 0001:0003cef0       ?CommandCustomAttackOffline@CCustomAttack@@QAEXPAUOBJECTSTRUCT@@PAD@Z 0043def0 f   CustomAttack.obj
 0001:0003d1f0       ?GetAttackSkill@CCustomAttack@@QAE_NPAUOBJECTSTRUCT@@PAH@Z 0043e1f0 f   CustomAttack.obj
 0001:0003d830       ?GetTargetMonster@CCustomAttack@@QAE_NPAUOBJECTSTRUCT@@HPAH@Z 0043e830 f   CustomAttack.obj
 0001:0003dae0       ?OnAttackClose@CCustomAttack@@QAEXPAUOBJECTSTRUCT@@@Z 0043eae0 f   CustomAttack.obj
 0001:0003dbb0       ?OnAttackMonsterAndMsgProc@CCustomAttack@@QAEXPAUOBJECTSTRUCT@@@Z 0043ebb0 f   CustomAttack.obj
 0001:0003e5a0       ?ElfBuffs@CCustomAttack@@QAEXPAUOBJECTSTRUCT@@@Z 0043f5a0 f   CustomAttack.obj
 0001:0003eb00       ?SendDurationSkillAttack@CCustomAttack@@QAEXPAUOBJECTSTRUCT@@HH@Z 0043fb00 f   CustomAttack.obj
 0001:0003ec80       ?GetItemOnFloor@CCustomAttack@@QAEXPAUOBJECTSTRUCT@@@Z 0043fc80 f   CustomAttack.obj
 0001:0003eeb0       ??0CUSTOM_EVENT_DROP_INFO@@QAE@XZ 0043feb0 f i CustomEventDrop.obj
 0001:0003eee0       ??_GCCustomEventDrop@@UAEPAXI@Z 0043fee0 f i CustomEventDrop.obj
 0001:0003eee0       ??_ECCustomEventDrop@@UAEPAXI@Z 0043fee0 f i * CIL library *:* CIL module *
 0001:0003ef60       ??1CUSTOM_EVENT_DROP_INFO@@QAE@XZ 0043ff60 f i CustomEventDrop.obj
 0001:0003ef80       ?Init@CCustomEventDrop@@QAEXXZ 0043ff80 f   CustomEventDrop.obj
 0001:0003efd0       ?Load@CCustomEventDrop@@QAEXPAD@Z 0043ffd0 f   CustomEventDrop.obj
 0001:0003f4a0       ?ProcState_START@CCustomEventDrop@@QAEXPAUCUSTOM_EVENT_DROP_INFO@@@Z 004404a0 f   CustomEventDrop.obj
 0001:0003f7b0       ?SetState@CCustomEventDrop@@QAEXPAUCUSTOM_EVENT_DROP_INFO@@H@Z 004407b0 f   CustomEventDrop.obj
 0001:0003f820       ?SetState_EMPTY@CCustomEventDrop@@QAEXPAUCUSTOM_EVENT_DROP_INFO@@@Z 00440820 f   CustomEventDrop.obj
 0001:0003fa00       ?GetDummyUserIndex@CCustomEventDrop@@QAEJXZ 00440a00 f   CustomEventDrop.obj
 0001:0003fa50       ??1?$vector@UCUSTOM_EVENT_DROP_ITEM_INFO@@V?$allocator@UCUSTOM_EVENT_DROP_ITEM_INFO@@@std@@@std@@QAE@XZ 00440a50 f i CustomEventDrop.obj
 0001:0003fa50       ??1?$vector@UOPTION_REPLACE_INFO@@V?$allocator@UOPTION_REPLACE_INFO@@@std@@@std@@QAE@XZ 00440a50 f i OptionReplace.obj
 0001:0003fa50       ??1?$vector@UEVENTTIMER_INFO@@V?$allocator@UEVENTTIMER_INFO@@@std@@@std@@QAE@XZ 00440a50 f i EventTimer.obj
 0001:0003fac0       ??$_Emplace_reallocate@ABUEVENTTIMER_INFO@@@?$vector@UEVENTTIMER_INFO@@V?$allocator@UEVENTTIMER_INFO@@@std@@@std@@QAEPAUEVENTTIMER_INFO@@QAU2@ABU2@@Z 00440ac0 f i EventTimer.obj
 0001:0003fac0       ??$_Emplace_reallocate@ABUCUSTOM_EVENT_DROP_ITEM_INFO@@@?$vector@UCUSTOM_EVENT_DROP_ITEM_INFO@@V?$allocator@UCUSTOM_EVENT_DROP_ITEM_INFO@@@std@@@std@@QAEPAUCUSTOM_EVENT_DROP_ITEM_INFO@@QAU2@ABU2@@Z 00440ac0 f i CustomEventDrop.obj
 0001:0003fc70       ?CGItemMove@CCustomItemMove@@QAEXPAUPMSG_CUSTOM_ITEM_MOVE@@H@Z 00440c70 f   CustomItemMove.obj
 0001:0003fee0       ??0CUSTOM_JEWEL_INFO@@QAE@XZ 00440ee0 f i CustomJewel.obj
 0001:0003ff10       ??_ECCustomJewel@@UAEPAXI@Z 00440f10 f i * CIL library *:* CIL module *
 0001:0003ff10       ??_GCCustomJewel@@UAEPAXI@Z 00440f10 f i CustomJewel.obj
 0001:0003ff90       ??1CUSTOM_JEWEL_INFO@@QAE@XZ 00440f90 f i CustomJewel.obj
 0001:00040010       ?Load@CCustomJewel@@QAEXPAD@Z 00441010 f   CustomJewel.obj
 0001:00040b50       ?CheckCustomJewelByItem@CCustomJewel@@QAE_NH@Z 00441b50 f   CustomJewel.obj
 0001:00040b90       ?CheckCustomJewelApplyItem@CCustomJewel@@QAE_NHPAVCItem@@@Z 00441b90 f   CustomJewel.obj
 0001:00040fc0       ?CheckCustomJewelApplyItemSocketOption@CCustomJewel@@QAE_NPAUCUSTOM_JEWEL_INFO@@PAVCItem@@@Z 00441fc0 f   CustomJewel.obj
 0001:00041190       ?GetCustomJewelNewOption@CCustomJewel@@QAEHPAVCItem@@H@Z 00442190 f   CustomJewel.obj
 0001:00041360       ?GetCustomJewelSetOption@CCustomJewel@@QAEHPAVCItem@@H@Z 00442360 f   CustomJewel.obj
 0001:000414e0       ?allocate@?$allocator@UCUSTOM_JEWEL_ITEM_REPLACE_INFO@@@std@@QAEPAUCUSTOM_JEWEL_ITEM_REPLACE_INFO@@I@Z 004424e0 f i CustomJewel.obj
 0001:00041540       ??$_Emplace_reallocate@ABUCUSTOM_JEWEL_ITEM_REPLACE_INFO@@@?$vector@UCUSTOM_JEWEL_ITEM_REPLACE_INFO@@V?$allocator@UCUSTOM_JEWEL_ITEM_REPLACE_INFO@@@std@@@std@@QAEPAUCUSTOM_JEWEL_ITEM_REPLACE_INFO@@QAU2@ABU2@@Z 00442540 f i CustomJewel.obj
 0001:000416a0       ?_Clear_and_reserve_geometric@?$vector@UCUSTOM_JEWEL_ITEM_REPLACE_INFO@@V?$allocator@UCUSTOM_JEWEL_ITEM_REPLACE_INFO@@@std@@@std@@AAEXI@Z 004426a0 f i CustomJewel.obj
 0001:00041760       ??_GCCustomJewelMix@@UAEPAXI@Z 00442760 f i CustomJewelMix.obj
 0001:00041760       ??_ECCustomJewelMix@@UAEPAXI@Z 00442760 f i * CIL library *:* CIL module *
 0001:00041790       ??_ECCustomMonster@@UAEPAXI@Z 00442790 f i * CIL library *:* CIL module *
 0001:00041790       ??_GCCustomMonster@@UAEPAXI@Z 00442790 f i CustomMonster.obj
 0001:000417c0       ?Load@CCustomMonster@@QAEXPAD@Z 004427c0 f   CustomMonster.obj
 0001:00041a70       ?MonsterDieProc@CCustomMonster@@QAEXPAUOBJECTSTRUCT@@0@Z 00442a70 f   CustomMonster.obj
 0001:00041df0       ?GetCustomMonsterInfo@CCustomMonster@@QAE_NHHPAUCUSTOM_MONSTER_INFO@@@Z 00442df0 f   CustomMonster.obj
 0001:00041e60       ??1?$vector@UCUSTOM_MONSTER_INFO@@V?$allocator@UCUSTOM_MONSTER_INFO@@@std@@@std@@QAE@XZ 00442e60 f i CustomMonster.obj
 0001:00041ed0       ??$_Emplace_reallocate@ABUCUSTOM_MONSTER_INFO@@@?$vector@UCUSTOM_MONSTER_INFO@@V?$allocator@UCUSTOM_MONSTER_INFO@@@std@@@std@@QAEPAUCUSTOM_MONSTER_INFO@@QAU2@ABU2@@Z 00442ed0 f i CustomMonster.obj
 0001:000420b0       ??_GCCustomPets@@UAEPAXI@Z 004430b0 f i CustomPets.obj
 0001:000420b0       ??_ECCustomPets@@UAEPAXI@Z 004430b0 f i * CIL library *:* CIL module *
 0001:000420e0       ?Init@CCustomPets@@QAEXXZ  004430e0 f   CustomPets.obj
 0001:00042150       ?Load@CCustomPets@@QAEXPAD@Z 00443150 f   CustomPets.obj
 0001:000423b0       ?GetInfoByItem@CCustomPets@@QAEPAUCUSTOM_PETS_INFO@@H@Z 004433b0 f   CustomPets.obj
 0001:00042430       ?CalcCustomPetOption@CCustomPets@@QAEXPAUOBJECTSTRUCT@@_N@Z 00443430 f   CustomPets.obj
 0001:00042590       ?Load@CCustomStartItem@@QAEXPAD@Z 00443590 f   CustomStartItem.obj
 0001:00042db0       ??1?$vector@UStartItemData@@V?$allocator@UStartItemData@@@std@@@std@@QAE@XZ 00443db0 f i CustomStartItem.obj
 0001:00042e20       ??$_Emplace_reallocate@AAUStartItemData@@@?$vector@UStartItemData@@V?$allocator@UStartItemData@@@std@@@std@@QAEPAUStartItemData@@QAU2@AAU2@@Z 00443e20 f i CustomStartItem.obj
 0001:00042fe0       ??_ECCustomStore@@UAEPAXI@Z 00443fe0 f i * CIL library *:* CIL module *
 0001:00042fe0       ??_GCCustomStore@@UAEPAXI@Z 00443fe0 f i CustomStore.obj
 0001:00043010       ?ReadCustomStoreInfo@CCustomStore@@QAEXPAD0@Z 00444010 f   CustomStore.obj
 0001:00043880       ?CommandCustomStore@CCustomStore@@QAEXPAUOBJECTSTRUCT@@PAD@Z 00444880 f   CustomStore.obj
 0001:00043b50       ?CommandCustomStoreOffline@CCustomStore@@QAEXPAUOBJECTSTRUCT@@PAD@Z 00444b50 f   CustomStore.obj
 0001:00043dd0       ?OpenCustomStore@CCustomStore@@QAEXPAUOBJECTSTRUCT@@H@Z 00444dd0 f   CustomStore.obj
 0001:00044190       ?OnPShopBuyItemRecv@CCustomStore@@QAE_NPAUPMSG_PSHOP_BUY_ITEM_RECV@@H@Z 00445190 f   CustomStore.obj
 0001:000452a0       ?OnPShopBuyItemCallbackRecv@CCustomStore@@SAXPAUOBJECTSTRUCT@@0KKKK@Z 004462a0 f   CustomStore.obj
 0001:000457c0       ?SendNamesToClient@CCustomStore@@QAEXH@Z 004467c0 f   CustomStore.obj
 0001:000458f0       ?load@CCustomMove@@QAEXPAD@Z 004468f0 f   CustomMove.obj
 0001:00045db0       ?move_data_send@CCustomMove@@QAEXH@Z 00446db0 f   CustomMove.obj
 0001:00045eb0       ?clear@?$_Tree@V?$_Tmap_traits@GUCUSTOM_MOVE_INFO@@U?$less@G@std@@V?$allocator@U?$pair@$$CBGUCUSTOM_MOVE_INFO@@@std@@@3@$0A@@std@@@std@@QAEXXZ 00446eb0 f i CustomMove.obj
 0001:00045f00       ??1?$_Tree@V?$_Tmap_traits@GUCUSTOM_MOVE_INFO@@U?$less@G@std@@V?$allocator@U?$pair@$$CBGUCUSTOM_MOVE_INFO@@@std@@@3@$0A@@std@@@std@@QAE@XZ 00446f00 f i CustomMove.obj
 0001:00045f40       ??$_Erase_tree@V?$allocator@U?$_Tree_node@U?$pair@$$CBGUCUSTOM_MOVE_INFO@@@std@@PAX@std@@@std@@@?$_Tree_val@U?$_Tree_simple_types@U?$pair@$$CBGUCUSTOM_MOVE_INFO@@@std@@@std@@@std@@QAEXAAV?$allocator@U?$_Tree_node@U?$pair@$$CBGUCUSTOM_MOVE_INFO@@@std@@PAX@std@@@1@PAU?$_Tree_node@U?$pair@$$CBGUCUSTOM_MOVE_INFO@@@std@@PAX@1@@Z 00446f40 f i CustomMove.obj
 0001:00045f80       ??1?$_Tree_temp_node@V?$allocator@U?$_Tree_node@U?$pair@$$CBGUCUSTOM_MOVE_INFO@@@std@@PAX@std@@@std@@@std@@QAE@XZ 00446f80 f i CustomMove.obj
 0001:00045f80       ??1?$_Alloc_construct_ptr@V?$allocator@U?$_Tree_node@U?$pair@$$CBGUCUSTOM_MOVE_INFO@@@std@@PAX@std@@@std@@@std@@QAE@XZ 00446f80 f i CustomMove.obj
 0001:00045f80       ??1?$_Alloc_construct_ptr@V?$allocator@U?$_Tree_node@U?$pair@$$CBV?$basic_string@DU?$char_traits@D@std@@V?$allocator@D@2@@std@@UREGION_DATA@@@std@@PAX@std@@@std@@@std@@QAE@XZ 00446f80 f i RegionSystem.obj
 0001:00045fa0       ??_GCCustomWing@@UAEPAXI@Z 00446fa0 f i CustomWing.obj
 0001:00045fa0       ??_ECCustomWing@@UAEPAXI@Z 00446fa0 f i * CIL library *:* CIL module *
 0001:00045fd0       ?Load@CCustomWing@@QAEXPAD@Z 00446fd0 f   CustomWing.obj
 0001:00046310       ?GetInfoByItem@CCustomWing@@QAEPAUCUSTOM_WING_INFO@@H@Z 00447310 f   CustomWing.obj
 0001:00046390       ??1?$vector@UCUSTOM_WING_INFO@@V?$allocator@UCUSTOM_WING_INFO@@@std@@@std@@QAE@XZ 00447390 f i CustomWing.obj
 0001:00046400       ??$_Emplace_reallocate@ABUCUSTOM_WING_INFO@@@?$vector@UCUSTOM_WING_INFO@@V?$allocator@UCUSTOM_WING_INFO@@@std@@@std@@QAEPAUCUSTOM_WING_INFO@@QAU2@ABU2@@Z 00447400 f i CustomWing.obj
 0001:000465c0       ??_GCDailyReward@@UAEPAXI@Z 004475c0 f i DailyReward.obj
 0001:000465c0       ??_ECDailyReward@@UAEPAXI@Z 004475c0 f i * CIL library *:* CIL module *
 0001:000465f0       ?Load@CDailyReward@@QAEXPAD@Z 004475f0 f   DailyReward.obj
 0001:00046890       ?SendInfo@CDailyReward@@QAEXH@Z 00447890 f   DailyReward.obj
 0001:000469a0       ?MakeReward@CDailyReward@@QAEXHH@Z 004479a0 f   DailyReward.obj
 0001:00046b80       ??0CDarkSpirit@@QAE@XZ     00447b80 f   DarkSpirit.obj
 0001:00046bd0       ??_GCDarkSpirit@@UAEPAXI@Z 00447bd0 f i DarkSpirit.obj
 0001:00046bd0       ??_ECDarkSpirit@@UAEPAXI@Z 00447bd0 f i * CIL library *:* CIL module *
 0001:00046c00       ??1CDarkSpirit@@UAE@XZ     00447c00 f   DarkSpirit.obj
 0001:00046c10       ?MainProc@CDarkSpirit@@QAEXXZ 00447c10 f   DarkSpirit.obj
 0001:00046fd0       ?ModeAttackRandom@CDarkSpirit@@QAEXXZ 00447fd0 f   DarkSpirit.obj
 0001:000471e0       ?RangeAttack@CDarkSpirit@@QAEXHH@Z 004481e0 f   DarkSpirit.obj
 0001:000473e0       ?ResetTarget@CDarkSpirit@@QAEXH@Z 004483e0 f   DarkSpirit.obj
 0001:00047470       ?ChangeCommand@CDarkSpirit@@QAEXHH@Z 00448470 f   DarkSpirit.obj
 0001:000475e0       ?Attack@CDarkSpirit@@QAE_NPAUOBJECTSTRUCT@@0PAVCSkill@@_NEE@Z 004485e0 f   DarkSpirit.obj
 0001:00048970       ?GetAttackDamage@CDarkSpirit@@QAEHPAUOBJECTSTRUCT@@0PAVCSkill@@PAGH@Z 00449970 f   DarkSpirit.obj
 0001:00048b10       ??_ECDefaultClassInfo@@UAEPAXI@Z 00449b10 f i * CIL library *:* CIL module *
 0001:00048b10       ??_GCDefaultClassInfo@@UAEPAXI@Z 00449b10 f i DefaultClassInfo.obj
 0001:00048b40       ?Load@CDefaultClassInfo@@QAEXPAD@Z 00449b40 f   DefaultClassInfo.obj
 0001:000490d0       ?GetCharacterDefaultStat@CDefaultClassInfo@@QAEHHH@Z 0044a0d0 f   DefaultClassInfo.obj
 0001:00049170       ??_GCDevilSquare@@UAEPAXI@Z 0044a170 f i DevilSquare.obj
 0001:00049170       ??_ECDevilSquare@@UAEPAXI@Z 0044a170 f i * CIL library *:* CIL module *
 0001:000491b0       ?Init@CDevilSquare@@QAEXXZ 0044a1b0 f   DevilSquare.obj
 0001:00049210       ?Load@CDevilSquare@@QAEXPAD@Z 0044a210 f   DevilSquare.obj
 0001:00049720       ?MainProc@CDevilSquare@@QAEXXZ 0044a720 f   DevilSquare.obj
 0001:00049900       ?ProcState_EMPTY@CDevilSquare@@QAEXPAUDEVIL_SQUARE_LEVEL@@@Z 0044a900 f   DevilSquare.obj
 0001:00049b90       ?ProcState_START@CDevilSquare@@QAEXPAUDEVIL_SQUARE_LEVEL@@@Z 0044ab90 f   DevilSquare.obj
 0001:00049f00       ?SetState@CDevilSquare@@QAEXPAUDEVIL_SQUARE_LEVEL@@H@Z 0044af00 f   DevilSquare.obj
 0001:0004a160       ?SetState_CLEAN@CDevilSquare@@QAEXPAUDEVIL_SQUARE_LEVEL@@@Z 0044b160 f   DevilSquare.obj
 0001:0004a3d0       ?CheckSync@CDevilSquare@@QAEXPAUDEVIL_SQUARE_LEVEL@@@Z 0044b3d0 f   DevilSquare.obj
 0001:0004a5a0       ?GetRemainTime@CDevilSquare@@QAEHH@Z 0044b5a0 f   DevilSquare.obj
 0001:0004a760       ?DelUser@CDevilSquare@@QAE_NPAUDEVIL_SQUARE_LEVEL@@H@Z 0044b760 f   DevilSquare.obj
 0001:0004a7c0       ?CheckUser@CDevilSquare@@QAEXPAUDEVIL_SQUARE_LEVEL@@@Z 0044b7c0 f   DevilSquare.obj
 0001:0004a810       ?GetUserCount@CDevilSquare@@QAEHPAUDEVIL_SQUARE_LEVEL@@@Z 0044b810 f   DevilSquare.obj
 0001:0004a840       ?GetUserAbleLevel@CDevilSquare@@QAEHPAUOBJECTSTRUCT@@@Z 0044b840 f   DevilSquare.obj
 0001:0004a9b0       ?GetUserAbleLevelNew@CDevilSquare@@QAEHPAUOBJECTSTRUCT@@@Z 0044b9b0 f   DevilSquare.obj
 0001:0004ab20       ?GiveUserRewardMoney@CDevilSquare@@QAEXPAUDEVIL_SQUARE_LEVEL@@@Z 0044bb20 f   DevilSquare.obj
 0001:0004acb0       ?SetMonster@CDevilSquare@@QAEXPAUDEVIL_SQUARE_LEVEL@@H@Z 0044bcb0 f   DevilSquare.obj
 0001:0004adb0       ?NpcCharon@CDevilSquare@@QAEXPAUOBJECTSTRUCT@@@Z 0044bdb0 f   DevilSquare.obj
 0001:0004af60       ?NoticeSendToAll@CDevilSquare@@QAAXPAUDEVIL_SQUARE_LEVEL@@HPADZZ 0044bf60 f   DevilSquare.obj
 0001:0004aff0       ?CGDevilSquareEnterRecv@CDevilSquare@@QAEXPAUPMSG_DEVIL_SQUARE_ENTER_RECV@@H@Z 0044bff0 f   DevilSquare.obj
 0001:0004b400       ?GCDevilSquareScoreSend@CDevilSquare@@QAEXPAUDEVIL_SQUARE_LEVEL@@@Z 0044c400 f   DevilSquare.obj
 0001:0004b660       ??_EcDiablo@@UAEPAXI@Z     0044c660 f i * CIL library *:* CIL module *
 0001:0004b660       ??_GcDiablo@@UAEPAXI@Z     0044c660 f i Diablo.obj
 0001:0004b6a0       ?LoadIni@cDiablo@@QAEXPAD@Z 0044c6a0 f   Diablo.obj
 0001:0004b820       ?SendDialog@cDiablo@@QAEXPAUOBJECTSTRUCT@@W4eDiabloDialog@@@Z 0044c820 f   Diablo.obj
 0001:0004b9c0       ?RegisterRena@cDiablo@@QAEXPAUDIABLO_RENARECV@@H@Z 0044c9c0 f   Diablo.obj
 0001:0004bdd0       ?Teleport@cDiablo@@QAEXPAUDIABLO_RENARECV@@H@Z 0044cdd0 f   Diablo.obj
 0001:0004c050       ?GetRegCountByUserIndex@cDiablo@@QAEHH@Z 0044d050 f   Diablo.obj
 0001:0004c150       ?MainProc@cDiablo@@QAEXXZ  0044d150 f   Diablo.obj
 0001:0004c5a0       ?SetState@cDiablo@@QAEXPAUDIABLO_INFO@@H@Z 0044d5a0 f   Diablo.obj
 0001:0004c830       ?SetState_CLEAN@cDiablo@@QAEXPAUDIABLO_INFO@@@Z 0044d830 f   Diablo.obj
 0001:0004ca30       ?CheckSync@cDiablo@@QAEXPAUDIABLO_INFO@@@Z 0044da30 f   Diablo.obj
 0001:0004cc30       ?GDChangeDate@cDiablo@@QAEXXZ 0044dc30 f   Diablo.obj
 0001:0004cf00       ?CheckUser@cDiablo@@QAEXPAUDIABLO_INFO@@@Z 0044df00 f   Diablo.obj
 0001:0004d0f0       ?GetUser@cDiablo@@QAEPAUDIABLO_USER@@PAUDIABLO_INFO@@H@Z 0044e0f0 f   Diablo.obj
 0001:0004d170       ?GetUserCount@cDiablo@@QAEHPAUDIABLO_INFO@@@Z 0044e170 f   Diablo.obj
 0001:0004d1f0       ?NoticeSendToAll@cDiablo@@QAAXPAUDIABLO_INFO@@HPADZZ 0044e1f0 f   Diablo.obj
 0001:0004d2d0       ??$_Emplace_reallocate@ABUREGISTERED_GUILD_INFO@@@?$vector@UREGISTERED_GUILD_INFO@@V?$allocator@UREGISTERED_GUILD_INFO@@@std@@@std@@QAEPAUREGISTERED_GUILD_INFO@@QAU2@ABU2@@Z 0044e2d0 f i Diablo.obj
 0001:0004d2d0       ??$_Emplace_reallocate@ABUINVASION_MONSTER_INFO@@@?$vector@UINVASION_MONSTER_INFO@@V?$allocator@UINVASION_MONSTER_INFO@@@std@@@std@@QAEPAUINVASION_MONSTER_INFO@@QAU2@ABU2@@Z 0044e2d0 f i InvasionManager.obj
 0001:0004d2d0       ??$_Emplace_reallocate@ABUITEM_STACK_INFO@@@?$vector@UITEM_STACK_INFO@@V?$allocator@UITEM_STACK_INFO@@@std@@@std@@QAEPAUITEM_STACK_INFO@@QAU2@ABU2@@Z 0044e2d0 f i ItemStack.obj
 0001:0004d430       ??$_Sort_unchecked@PAUREGISTERED_GUILD_INFO@@U?$less@X@std@@@std@@YAXPAUREGISTERED_GUILD_INFO@@0HU?$less@X@0@@Z 0044e430 f i Diablo.obj
 0001:0004d610       ??$_Partition_by_median_guess_unchecked@PAUREGISTERED_GUILD_INFO@@U?$less@X@std@@@std@@YA?AU?$pair@PAUREGISTERED_GUILD_INFO@@PAU1@@0@PAUREGISTERED_GUILD_INFO@@0U?$less@X@0@@Z 0044e610 f i Diablo.obj
 0001:0004d770       ??$_Pop_heap_hole_by_index@PAUREGISTERED_GUILD_INFO@@U1@U?$less@X@std@@@std@@YAXPAUREGISTERED_GUILD_INFO@@HH$$QAU1@U?$less@X@0@@Z 0044e770 f i Diablo.obj
 0001:0004d830       ??$_Guess_median_unchecked@PAUREGISTERED_GUILD_INFO@@U?$less@X@std@@@std@@YAXPAUREGISTERED_GUILD_INFO@@00U?$less@X@0@@Z 0044e830 f i Diablo.obj
 0001:0004d9b0       ?GCSendDonateItems@cDonateShop@@QAEXH@Z 0044e9b0 f   DonateShop.obj
 0001:0004dc10       ??_ECDoubleGoer@@UAEPAXI@Z 0044ec10 f i * CIL library *:* CIL module *
 0001:0004dc10       ??_GCDoubleGoer@@UAEPAXI@Z 0044ec10 f i DoubleGoer.obj
 0001:0004dc40       ?Load@CDoubleGoer@@QAEXPAD@Z 0044ec40 f   DoubleGoer.obj
 0001:0004e0c0       ?MainProc@CDoubleGoer@@QAEXXZ 0044f0c0 f   DoubleGoer.obj
 0001:0004e250       ?ProcState_START@CDoubleGoer@@QAEXXZ 0044f250 f   DoubleGoer.obj
 0001:0004e780       ?SetState@CDoubleGoer@@QAEXH@Z 0044f780 f   DoubleGoer.obj
 0001:0004ea10       ?SetState_EMPTY@CDoubleGoer@@QAEXXZ 0044fa10 f   DoubleGoer.obj
 0001:0004ebf0       ?SetState_CLEAN@CDoubleGoer@@QAEXXZ 0044fbf0 f   DoubleGoer.obj
 0001:0004ef10       ?AddUser@CDoubleGoer@@QAE_NH@Z 0044ff10 f   DoubleGoer.obj
 0001:0004ef70       ?DelUser@CDoubleGoer@@QAE_NH@Z 0044ff70 f   DoubleGoer.obj
 0001:0004f000       ?CheckUser@CDoubleGoer@@QAEXXZ 00450000 f   DoubleGoer.obj
 0001:0004f050       ?GetUserCount@CDoubleGoer@@QAEHXZ 00450050 f   DoubleGoer.obj
 0001:0004f0c0       ?SetSlaughterer@CDoubleGoer@@QAEXXZ 004500c0 f   DoubleGoer.obj
 0001:0004f470       ?SetMadSlaughterer@CDoubleGoer@@QAEXXZ 00450470 f   DoubleGoer.obj
 0001:0004f820       ?SetIceWalker@CDoubleGoer@@QAEXXZ 00450820 f   DoubleGoer.obj
 0001:0004fbd0       ?SetSilverRewardChest@CDoubleGoer@@QAEXHH@Z 00450bd0 f   DoubleGoer.obj
 0001:0004fca0       ?SetMonster@CDoubleGoer@@QAEXH@Z 00450ca0 f   DoubleGoer.obj
 0001:00050080       ?NpcSilverRewardChest@CDoubleGoer@@QAEXPAUOBJECTSTRUCT@@0@Z 00451080 f   DoubleGoer.obj
 0001:00050200       ?NpcGoldenRewardChest@CDoubleGoer@@QAEXPAUOBJECTSTRUCT@@0@Z 00451200 f   DoubleGoer.obj
 0001:00050380       ?CheckMonsterPosition@CDoubleGoer@@QAEXXZ 00451380 f   DoubleGoer.obj
 0001:00050740       ?DelEntranceZone@CDoubleGoer@@QAEXXZ 00451740 f   DoubleGoer.obj
 0001:00050810       ?NoticeSendToAll@CDoubleGoer@@QAAXHPADZZ 00451810 f   DoubleGoer.obj
 0001:000508a0       ?CGDoubleGoerEnterRecv@CDoubleGoer@@QAEXPAUPMSG_DOUBLE_GOER_ENTER_RECV@@H@Z 004518a0 f   DoubleGoer.obj
 0001:00050c40       ?scan@CDupeScanner@@QAEXXZ 00451c40 f   DupeScanner.obj
 0001:00051630       ??_GCEventTimer@@UAEPAXI@Z 00452630 f i EventTimer.obj
 0001:00051630       ??_ECEventTimer@@UAEPAXI@Z 00452630 f i * CIL library *:* CIL module *
 0001:00051660       ?Load@CEventTimer@@QAEXPAD@Z 00452660 f   EventTimer.obj
 0001:00051870       ?CG_RequestEvents@CEventTimer@@QAEXPAUCG_EVENTTIMER_REQ@@H@Z 00452870 f   EventTimer.obj
 0001:000519b0       ?ReadQuest@ExWinQuestSystem@@QAEXHPAD@Z 004529b0 f   ExWinQuestSystem.obj
 0001:00051cd0       ?ReadDrop@ExWinQuestSystem@@QAEXPAD@Z 00452cd0 f   ExWinQuestSystem.obj
 0001:00051fc0       ?GC_MainInfo@ExWinQuestSystem@@QAEXH_N@Z 00452fc0 f   ExWinQuestSystem.obj
 0001:000523e0       ?MonsterKiller@ExWinQuestSystem@@QAE_NHH@Z 004533e0 f   ExWinQuestSystem.obj
 0001:000526d0       ?PickUpItem@ExWinQuestSystem@@QAEHHH@Z 004536d0 f   ExWinQuestSystem.obj
 0001:00052810       ?SearchItem@ExWinQuestSystem@@QAE_NHHH@Z 00453810 f   ExWinQuestSystem.obj
 0001:00052910       ?RewardQuest@ExWinQuestSystem@@QAEXHH@Z 00453910 f   ExWinQuestSystem.obj
 0001:00053130       ?NewDrop@ExWinQuestSystem@@QBE_NHH@Z 00454130 f   ExWinQuestSystem.obj
 0001:00053380       __vfprintf_l               00454380 f i ExWinQuestSystem.obj
 0001:000533b0       _printf                    004543b0 f i ExWinQuestSystem.obj
 0001:000533e0       ?Load@CFileCheck@@QAEXPAD@Z 004543e0 f   FileCheck.obj
 0001:000535b0       ?GCChecksumListSend@CFileCheck@@QAEXH@Z 004545b0 f   FileCheck.obj
 0001:00053710       ??1?$vector@UCSUM_LIST_INFO@@V?$allocator@UCSUM_LIST_INFO@@@std@@@std@@QAE@XZ 00454710 f i FileCheck.obj
 0001:00053780       ??$_Emplace_reallocate@ABUCSUM_LIST_INFO@@@?$vector@UCSUM_LIST_INFO@@V?$allocator@UCSUM_LIST_INFO@@@std@@@std@@QAEPAUCSUM_LIST_INFO@@QAU2@ABU2@@Z 00454780 f i FileCheck.obj
 0001:00053960       ??_ECGoldenArcher@@UAEPAXI@Z 00454960 f i * CIL library *:* CIL module *
 0001:00053960       ??_GCGoldenArcher@@UAEPAXI@Z 00454960 f i GoldenArcher.obj
 0001:00053990       ?CGRegEventChipRecv@CGoldenArcher@@QAEXPAUPMSG_REGEVENTCHIP@@H@Z 00454990 f   GoldenArcher.obj
 0001:00053b80       ?DataServerProtocolCore@@YAXEPAEH@Z 00454b80 f   DSProtocol.obj
 0001:00056570       ?DGCharacterListRecv@@YAXPAUSDHP_CHARACTER_LIST_RECV@@@Z 00457570 f   DSProtocol.obj
 0001:00057540       ?DGCharacterInfoRecv@@YAXPAUSDHP_CHARACTER_INFO_RECV@@@Z 00458540 f   DSProtocol.obj
 0001:00058ba0       ?DGCreateItemRecv@@YAXPAUSDHP_CREATE_ITEM_RECV@@@Z 00459ba0 f   DSProtocol.obj
 0001:000591a0       ?DGPetItemInfoRecv@@YAXPAUSDHP_PET_ITEM_INFO_RECV@@@Z 0045a1a0 f   DSProtocol.obj
 0001:000592e0       ?DGGlobalPostRecv@@YAXPAUSDHP_GLOBAL_POST_RECV@@@Z 0045a2e0 f   DSProtocol.obj
 0001:00059500       ?GDCharacterInfoSend@@YAXHPAD@Z 0045a500 f   DSProtocol.obj
 0001:000595b0       ?GDCreateItemSend@@YAXHEEEHEEEEEHEEEEQAEEK@Z 0045a5b0 f   DSProtocol.obj
 0001:00059890       ?GDPetItemInfoSend@@YAXHH@Z 0045a890 f   DSProtocol.obj
 0001:00059a80       ?GDCharacterInfoSaveSend@@YAXH@Z 0045aa80 f   DSProtocol.obj
 0001:0005a630       ?GDInventoryItemSaveSend@@YAXH@Z 0045b630 f   DSProtocol.obj
 0001:0005a710       ?GDPetItemInfoSaveSend@@YAXHH@Z 0045b710 f   DSProtocol.obj
 0001:0005a950       ?GDResetInfoSaveSend@@YAXHHHH@Z 0045b950 f   DSProtocol.obj
 0001:0005aa00       ?GDRankingDuelSaveSend@@YAXHKK@Z 0045ba00 f   DSProtocol.obj
 0001:0005aaa0       ?GDRankingBloodCastleSaveSend@@YAXHK@Z 0045baa0 f   DSProtocol.obj
 0001:0005ab30       ?GDRankingChaosCastleSaveSend@@YAXHK@Z 0045bb30 f   DSProtocol.obj
 0001:0005abc0       ?GDRankingCustomArenaSaveSend@@YAXHKKK@Z 0045bbc0 f   DSProtocol.obj
 0001:0005ac60       ??_ECDuel@@UAEPAXI@Z       0045bc60 f i * CIL library *:* CIL module *
 0001:0005ac60       ??_GCDuel@@UAEPAXI@Z       0045bc60 f i Duel.obj
 0001:0005ac90       ?SetState@CDuel@@QAEXPAUDUEL_ARENA_INFO@@H@Z 0045bc90 f   Duel.obj
 0001:0005ae20       ?GetDuelArenaByGladiator@CDuel@@QAEPAUDUEL_ARENA_INFO@@H@Z 0045be20 f   Duel.obj
 0001:0005ae90       ?GetDuelArenaBySpectator@CDuel@@QAEPAUDUEL_ARENA_INFO@@H@Z 0045be90 f   Duel.obj
 0001:0005af00       ?AddDuelArenaGladiator@CDuel@@QAE_NPAUDUEL_ARENA_INFO@@H@Z 0045bf00 f   Duel.obj
 0001:0005af60       ?CheckDuelArenaGladiator@CDuel@@QAEXPAUDUEL_ARENA_INFO@@@Z 0045bf60 f   Duel.obj
 0001:0005b0d0       ?CheckDuelArenaSpectator@CDuel@@QAEXPAUDUEL_ARENA_INFO@@@Z 0045c0d0 f   Duel.obj
 0001:0005b1d0       ?GetDuelArenaSpectatorCount@CDuel@@QAEHPAUDUEL_ARENA_INFO@@@Z 0045c1d0 f   Duel.obj
 0001:0005b280       ?CheckDuelScore@CDuel@@QAEXPAUOBJECTSTRUCT@@0@Z 0045c280 f   Duel.obj
 0001:0005b6f0       ?CheckDuelUser@CDuel@@QAEXXZ 0045c6f0 f   Duel.obj
 0001:0005ba70       ?RespawnDuelUser@CDuel@@QAEXPAUOBJECTSTRUCT@@@Z 0045ca70 f   Duel.obj
 0001:0005bc30       ?CGDuelStartRecv@CDuel@@QAEXPAUPMSG_DUEL_START_RECV@@H@Z 0045cc30 f   Duel.obj
 0001:0005c300       ?CGDuelOkRecv@CDuel@@QAEXPAUPMSG_DUEL_OK_RECV@@H@Z 0045d300 f   Duel.obj
 0001:0005ca80       ?CGDuelEndRecv@CDuel@@QAEXH@Z 0045da80 f   Duel.obj
 0001:0005cd60       ?CGDuelWatchRecv@CDuel@@QAEXPAUPMSG_DUEL_WATCH_RECV@@H@Z 0045dd60 f   Duel.obj
 0001:0005d060       ?GCDuelScoreSend@CDuel@@QAEXHH@Z 0045e060 f   Duel.obj
 0001:0005d0f0       ?GCDuelScoreSend@CDuel@@QAEXPAUDUEL_ARENA_INFO@@@Z 0045e0f0 f   Duel.obj
 0001:0005d190       ?GCDuelInterfaceSend@CDuel@@QAEXPAUDUEL_ARENA_INFO@@@Z 0045e190 f   Duel.obj
 0001:0005d2c0       ?GCDuelSpectatorDelSend@CDuel@@QAEXHPAUDUEL_ARENA_INFO@@@Z 0045e2c0 f   Duel.obj
 0001:0005d350       ?GCDuelSpectatorListSend@CDuel@@QAEXHPAUDUEL_ARENA_INFO@@@Z 0045e350 f   Duel.obj
 0001:0005d5c0       ??0CEffect@@QAE@XZ         0045e5c0 f   Effect.obj
 0001:0005d5f0       ??1CEffect@@UAE@XZ         0045e5f0 f   Effect.obj
 0001:0005d600       ?Set@CEffect@@QAE_NEEEEEKKGGGG@Z 0045e600 f   Effect.obj
 0001:0005d6b0       ??_GCEffectManager@@UAEPAXI@Z 0045e6b0 f i EffectManager.obj
 0001:0005d6b0       ??_ECEffectManager@@UAEPAXI@Z 0045e6b0 f i * CIL library *:* CIL module *
 0001:0005d6e0       ?Load@CEffectManager@@QAEXPAD@Z 0045e6e0 f   EffectManager.obj
 0001:0005db20       ?AddEffect@CEffectManager@@QAE_NPAUOBJECTSTRUCT@@_NHHGGGG@Z 0045eb20 f   EffectManager.obj
 0001:0005de00       ?DelEffect@CEffectManager@@QAE_NPAUOBJECTSTRUCT@@H@Z 0045ee00 f   EffectManager.obj
 0001:0005de90       ?DelEffectByGroup@CEffectManager@@QAE_NPAUOBJECTSTRUCT@@H@Z 0045ee90 f   EffectManager.obj
 0001:0005df20       ?InsertEffect@CEffectManager@@QAEXPAUOBJECTSTRUCT@@PAVCEffect@@@Z 0045ef20 f   EffectManager.obj
 0001:0005ea80       ?RemoveEffect@CEffectManager@@QAEXPAUOBJECTSTRUCT@@PAVCEffect@@@Z 0045fa80 f   EffectManager.obj
 0001:0005f2e0       ?CheckStunEffect@CEffectManager@@QAE_NPAUOBJECTSTRUCT@@@Z 004602e0 f   EffectManager.obj
 0001:0005f370       ?CheckImmobilizeEffect@CEffectManager@@QAE_NPAUOBJECTSTRUCT@@@Z 00460370 f   EffectManager.obj
 0001:0005f3e0       ?ClearAllEffect@CEffectManager@@QAEXPAUOBJECTSTRUCT@@@Z 004603e0 f   EffectManager.obj
 0001:0005f460       ?PeriodicEffect@CEffectManager@@QAEXPAUOBJECTSTRUCT@@PAVCEffect@@@Z 00460460 f   EffectManager.obj
 0001:0005f720       ?GCPeriodicEffectSend@CEffectManager@@QAEXPAUOBJECTSTRUCT@@GGEKE@Z 00460720 f   EffectManager.obj
 0001:0005f900       ?GCPartyEffectListSend@CEffectManager@@QAEXPAUOBJECTSTRUCT@@@Z 00460900 f   EffectManager.obj
 0001:0005fa50       ?ESDataSend@@YAXPAEH@Z     00460a50 f   ESProtocol.obj
 0001:0005fb20       ?ESDataRecv@@YAXEPAEH@Z    00460b20 f   ESProtocol.obj
 0001:0005fbe0       ?ExDBServerProtocolCore@@YAXEPAEH@Z 00460be0 f   ESProtocol.obj
 0001:000606c0       ?GDGuildCreateRecv@@YAXPAUSDHP_GUILDCREATE_RESULT@@@Z 004616c0 f   ESProtocol.obj
 0001:000608e0       ?GDGuildDestroyRecv@@YAXPAUSDHP_GUILDDESTROY_RESULT@@@Z 004618e0 f   ESProtocol.obj
 0001:00060c20       ?GDGuildMemberDelResult@@YAXPAUSDHP_GUILDMEMBERDEL_RESULT@@@Z 00461c20 f   ESProtocol.obj
 0001:00060ef0       ?DGGuildMemberInfo@@YAXPAUSDHP_GUILDMEMBER_INFO@@@Z 00461ef0 f   ESProtocol.obj
 0001:000612e0       ?DGGuildAnsAssignStatus@@YAXPAUEXSDHP_GUILD_ASSIGN_STATUS_RESULT@@@Z 004622e0 f   ESProtocol.obj
 0001:00061670       ?DGGuildAnsAssignType@@YAXPAUEXSDHP_GUILD_ASSIGN_TYPE_RESULT@@@Z 00462670 f   ESProtocol.obj
 0001:000618e0       ?DGRelationShipAnsJoin@@YAXPAUEXSDHP_RELATIONSHIP_JOIN_RESULT@@@Z 004628e0 f   ESProtocol.obj
 0001:00061d10       ?DGUnionBreakOff@@YAXPAUEXSDHP_RELATIONSHIP_BREAKOFF_RESULT@@@Z 00462d10 f   ESProtocol.obj
 0001:00061fd0       ?DGRelationShipAnsBreakOff@@YAXPAUEXSDHP_RELATIONSHIP_BREAKOFF_RESULT@@@Z 00462fd0 f   ESProtocol.obj
 0001:00062280       ?DGRelationShipNotificationRecv@@YAXPAUEXSDHP_NOTIFICATION_RELATIONSHIP@@@Z 00463280 f   ESProtocol.obj
 0001:00062410       ?DGRelationShipListRecv@@YAXPAUEXSDHP_UNION_RELATIONSHIP_LIST@@@Z 00463410 f   ESProtocol.obj
 0001:00062560       ?DGRelationShipAnsKickOutUnionMember@@YAXPAUEXSDHP_KICKOUT_UNIONMEMBER_RESULT@@@Z 00463560 f   ESProtocol.obj
 0001:000627b0       ??_ECEventInventory@@UAEPAXI@Z 004637b0 f i * CIL library *:* CIL module *
 0001:000627b0       ??_GCEventInventory@@UAEPAXI@Z 004637b0 f i EventInventory.obj
 0001:000627e0       ??_GCExperienceTable@@UAEPAXI@Z 004637e0 f i ExperienceTable.obj
 0001:000627e0       ??_ECExperienceTable@@UAEPAXI@Z 004637e0 f i * CIL library *:* CIL module *
 0001:00062810       ?Load@CExperienceTable@@QAEXPAD@Z 00463810 f   ExperienceTable.obj
 0001:00062a20       ?GetExperienceRate@CExperienceTable@@QAEHPAUOBJECTSTRUCT@@@Z 00463a20 f   ExperienceTable.obj
 0001:00062ac0       ?GetMasterExperienceRate@CExperienceTable@@QAEHPAUOBJECTSTRUCT@@@Z 00463ac0 f   ExperienceTable.obj
 0001:00062b50       ?_Tidy@?$vector@UITEM_OPTION_INFO@@V?$allocator@UITEM_OPTION_INFO@@@std@@@std@@AAEXXZ 00463b50 f i ItemOption.obj
 0001:00062b50       ??1?$vector@UMINING_INFO@@V?$allocator@UMINING_INFO@@@std@@@std@@QAE@XZ 00463b50 f i MiningSystem.obj
 0001:00062b50       ??1?$vector@UEXPERIENCE_TABLE_INFO@@V?$allocator@UEXPERIENCE_TABLE_INFO@@@std@@@std@@QAE@XZ 00463b50 f i ExperienceTable.obj
 0001:00062bc0       ??$_Emplace_reallocate@ABUEXPERIENCE_TABLE_INFO@@@?$vector@UEXPERIENCE_TABLE_INFO@@V?$allocator@UEXPERIENCE_TABLE_INFO@@@std@@@std@@QAEPAUEXPERIENCE_TABLE_INFO@@QAU2@ABU2@@Z 00463bc0 f i ExperienceTable.obj
 0001:00062bc0       ??$_Emplace_reallocate@ABUITEM_OPTION_INFO@@@?$vector@UITEM_OPTION_INFO@@V?$allocator@UITEM_OPTION_INFO@@@std@@@std@@QAEPAUITEM_OPTION_INFO@@QAU2@ABU2@@Z 00463bc0 f i ItemOption.obj
 0001:00062d80       ??_ECFilter@@UAEPAXI@Z     00463d80 f i * CIL library *:* CIL module *
 0001:00062d80       ??_GCFilter@@UAEPAXI@Z     00463d80 f i Filter.obj
 0001:00062db0       ?Load@CFilter@@QAEXPAD@Z   00463db0 f   Filter.obj
 0001:00062ff0       ??1?$vector@V?$basic_string@DU?$char_traits@D@std@@V?$allocator@D@2@@std@@V?$allocator@V?$basic_string@DU?$char_traits@D@std@@V?$allocator@D@2@@std@@@2@@std@@QAE@XZ 00463ff0 f i Filter.obj
 0001:00063070       ?_Destroy@?$vector@V?$basic_string@DU?$char_traits@D@std@@V?$allocator@D@2@@std@@V?$allocator@V?$basic_string@DU?$char_traits@D@std@@V?$allocator@D@2@@std@@@2@@std@@AAEXPAV?$basic_string@DU?$char_traits@D@std@@V?$allocator@D@2@@2@0@Z 00464070 f i Filter.obj
 0001:00063090       ?deallocate@?$allocator@V?$basic_string@DU?$char_traits@D@std@@V?$allocator@D@2@@std@@@std@@QAEXQAV?$basic_string@DU?$char_traits@D@std@@V?$allocator@D@2@@2@I@Z 00464090 f i Filter.obj
 0001:000630d0       ??$_Emplace_reallocate@ABV?$basic_string@DU?$char_traits@D@std@@V?$allocator@D@2@@std@@@?$vector@V?$basic_string@DU?$char_traits@D@std@@V?$allocator@D@2@@std@@V?$allocator@V?$basic_string@DU?$char_traits@D@std@@V?$allocator@D@2@@std@@@2@@std@@QAEPAV?$basic_string@DU?$char_traits@D@std@@V?$allocator@D@2@@1@QAV21@ABV21@@Z 004640d0 f i Filter.obj
 0001:000632e0       ??$_Destroy_range@V?$allocator@V?$basic_string@DU?$char_traits@D@std@@V?$allocator@D@2@@std@@@std@@@std@@YAXPAV?$basic_string@DU?$char_traits@D@std@@V?$allocator@D@2@@0@QAV10@AAV?$allocator@V?$basic_string@DU?$char_traits@D@std@@V?$allocator@D@2@@std@@@0@@Z 004642e0 f i Filter.obj
 0001:00063340       ??$_Uninitialized_move@PAV?$basic_string@DU?$char_traits@D@std@@V?$allocator@D@2@@std@@V?$allocator@V?$basic_string@DU?$char_traits@D@std@@V?$allocator@D@2@@std@@@2@@std@@YAPAV?$basic_string@DU?$char_traits@D@std@@V?$allocator@D@2@@0@QAV10@0PAV10@AAV?$allocator@V?$basic_string@DU?$char_traits@D@std@@V?$allocator@D@2@@std@@@0@@Z 00464340 f i Filter.obj
 0001:000633b0       ??_ECFruit@@UAEPAXI@Z      004643b0 f i * CIL library *:* CIL module *
 0001:000633b0       ??_GCFruit@@UAEPAXI@Z      004643b0 f i Fruit.obj
 0001:000633e0       ?UseFruitAddPoint@CFruit@@QAE_NPAUOBJECTSTRUCT@@H@Z 004643e0 f   Fruit.obj
 0001:000638c0       ?UseFruitSubPoint@CFruit@@QAE_NPAUOBJECTSTRUCT@@H@Z 004648c0 f   Fruit.obj
 0001:00063dc0       ?UseFruitResetPoint@CFruit@@QAE_NPAUOBJECTSTRUCT@@HH@Z 00464dc0 f   Fruit.obj
 0001:00063fb0       ?GCFruitResultSend@CFruit@@QAEXPAUOBJECTSTRUCT@@HHH@Z 00464fb0 f   Fruit.obj
 0001:00064050       ?GameMainInit@@YAXPAUHWND__@@@Z 00465050 f   GameMain.obj
 0001:00064490       ?JoinServerConnect@@YA_NK@Z 00465490 f   GameMain.obj
 0001:00064530       ?DataServerConnect@@YA_NK@Z 00465530 f   GameMain.obj
 0001:000645d0       ?QueueTimerCallback@@YGXPAXE@Z 004655d0 f   GameMain.obj
 0001:00064900       ??_ECGameMaster@@UAEPAXI@Z 00465900 f i * CIL library *:* CIL module *
 0001:00064900       ??_GCGameMaster@@UAEPAXI@Z 00465900 f i GameMaster.obj
 0001:00064930       ?Load@CGameMaster@@QAEXPAD@Z 00465930 f   GameMaster.obj
 0001:00064af0       ?CheckGameMasterLevel@CGameMaster@@QAE_NPAUOBJECTSTRUCT@@H@Z 00465af0 f   GameMaster.obj
 0001:00064bb0       _WinMain@16                00465bb0 f   GameServer.obj
 0001:00065160       ?WndProc@@YGJPAUHWND__@@IIJ@Z 00466160 f   GameServer.obj
 0001:000660f0       ?About@@YGJPAUHWND__@@IIJ@Z 004670f0 f   GameServer.obj
 0001:00066130       ?Disconnect@@YGJPAUHWND__@@IIJ@Z 00467130 f   GameServer.obj
 0001:000663a0       ?wstrtostr@@YA?AV?$basic_string@DU?$char_traits@D@std@@V?$allocator@D@2@@std@@ABV?$basic_string@_WU?$char_traits@_W@std@@V?$allocator@_W@2@@2@@Z 004673a0 f   GameServer.obj
 0001:00066440       ?AdminChat@@YGJPAUHWND__@@IIJ@Z 00467440 f   GameServer.obj
 0001:00067010       ?LicenseBox@@YGJPAUHWND__@@IIJ@Z 00468010 f   GameServer.obj
 0001:00067060       ??0?$basic_string@_WU?$char_traits@_W@std@@V?$allocator@_W@2@@std@@QAE@QB_W@Z 00468060 f i GameServer.obj
 0001:00067120       ?allocate@?$allocator@_W@std@@QAEPA_WI@Z 00468120 f i GameServer.obj
 0001:00067180       ??1?$basic_string@_WU?$char_traits@_W@std@@V?$allocator@_W@2@@std@@QAE@XZ 00468180 f i GameServer.obj
 0001:000671e0       _fprintf                   004681e0 f i GameServer.obj
 0001:00067210       ??_GCGate@@UAEPAXI@Z       00468210 f i Gate.obj
 0001:00067210       ??_ECGate@@UAEPAXI@Z       00468210 f i * CIL library *:* CIL module *
 0001:00067240       ?Load@CGate@@QAEXPAD@Z     00468240 f   Gate.obj
 0001:000675a0       ?GetInfo@CGate@@QAE_NHPAUGATE_INFO@@@Z 004685a0 f   Gate.obj
 0001:00067610       ?GetGate@CGate@@QAE_NHPAH00000@Z 00468610 f   Gate.obj
 0001:00067730       ?clear@?$_Tree@V?$_Tmap_traits@HUGATE_INFO@@U?$less@H@std@@V?$allocator@U?$pair@$$CBHUGATE_INFO@@@std@@@3@$0A@@std@@@std@@QAEXXZ 00468730 f i Gate.obj
 0001:00067780       ??1?$_Tree@V?$_Tmap_traits@HUGATE_INFO@@U?$less@H@std@@V?$allocator@U?$pair@$$CBHUGATE_INFO@@@std@@@3@$0A@@std@@@std@@QAE@XZ 00468780 f i Gate.obj
 0001:000677c0       ??$_Erase_tree@V?$allocator@U?$_Tree_node@U?$pair@$$CBHUGATE_INFO@@@std@@PAX@std@@@std@@@?$_Tree_val@U?$_Tree_simple_types@U?$pair@$$CBHUGATE_INFO@@@std@@@std@@@std@@QAEXAAV?$allocator@U?$_Tree_node@U?$pair@$$CBHUGATE_INFO@@@std@@PAX@std@@@1@PAU?$_Tree_node@U?$pair@$$CBHUGATE_INFO@@@std@@PAX@1@@Z 004687c0 f i Gate.obj
 0001:00067800       ??1?$_Alloc_construct_ptr@V?$allocator@U?$_Tree_node@U?$pair@$$CBHUGATE_INFO@@@std@@PAX@std@@@std@@@std@@QAE@XZ 00468800 f i Gate.obj
 0001:00067820       ??_GCGensSystem@@UAEPAXI@Z 00468820 f i GensSystem.obj
 0001:00067820       ??_ECGensSystem@@UAEPAXI@Z 00468820 f i * CIL library *:* CIL module *
 0001:00067850       ?CalcGensMemberInfo@CGensSystem@@QAEXPAUOBJECTSTRUCT@@@Z 00468850 f   GensSystem.obj
 0001:00067a80       ?GetGensRewardSymbol@CGensSystem@@QAEHH@Z 00468a80 f   GensSystem.obj
 0001:00067b10       ?UserDieProc@CGensSystem@@QAEXPAUOBJECTSTRUCT@@0@Z 00468b10 f   GensSystem.obj
 0001:00067d90       ?CheckGens@CGensSystem@@QAE_NPAUOBJECTSTRUCT@@0@Z 00468d90 f   GensSystem.obj
 0001:00067e70       ?CGGensSystemInsertRecv@CGensSystem@@QAEXPAUPMSG_GENS_SYSTEM_INSERT_RECV@@H@Z 00468e70 f   GensSystem.obj
 0001:000681c0       ?CGGensSystemDeleteRecv@CGensSystem@@QAEXPAUPMSG_GENS_SYSTEM_DELETE_RECV@@H@Z 004691c0 f   GensSystem.obj
 0001:00068450       ?CGGensSystemRewardRecv@CGensSystem@@QAEXPAUPMSG_GENS_SYSTEM_REWARD_RECV@@H@Z 00469450 f   GensSystem.obj
 0001:00068630       ?DGGensSystemRewardRecv@CGensSystem@@QAEXPAUSDHP_GENS_SYSTEM_REWARD_RECV@@@Z 00469630 f   GensSystem.obj
 0001:00068890       ?GDGensSystemMemberSend@CGensSystem@@QAEXH@Z 00469890 f   GensSystem.obj
 0001:00068930       ?GDGensSystemUpdateSend@CGensSystem@@QAEXH@Z 00469930 f   GensSystem.obj
 0001:00068a00       ??_EGRSystem@@UAEPAXI@Z    00469a00 f i * CIL library *:* CIL module *
 0001:00068a00       ??_GGRSystem@@UAEPAXI@Z    00469a00 f i GrandResetSystem.obj
 0001:00068a30       ?Load@GRSystem@@QAEXXZ     00469a30 f   GrandResetSystem.obj
 0001:00068c50       ?ReadGroupFile@GRSystem@@QAEXPAD@Z 00469c50 f   GrandResetSystem.obj
 0001:00069030       ?GetResetMoney@GRSystem@@QAEHPAUOBJECTSTRUCT@@@Z 0046a030 f   GrandResetSystem.obj
 0001:000690a0       ?GetGRGroup@GRSystem@@QAEHPAUOBJECTSTRUCT@@@Z 0046a0a0 f   GrandResetSystem.obj
 0001:000690f0       ?SearchQuestItem@GRSystem@@QAE_NPAUOBJECTSTRUCT@@E@Z 0046a0f0 f   GrandResetSystem.obj
 0001:000692c0       ?DeleteQuestItem@GRSystem@@QAE_NPAUOBJECTSTRUCT@@E@Z 0046a2c0 f   GrandResetSystem.obj
 0001:000694c0       ?CheckAllReq@GRSystem@@QAE_NPAUOBJECTSTRUCT@@@Z 0046a4c0 f   GrandResetSystem.obj
 0001:00069660       ?SendResetData@GRSystem@@QAEXPAUOBJECTSTRUCT@@_N@Z 0046a660 f   GrandResetSystem.obj
 0001:00069850       ?FinishResetReq@GRSystem@@QAEXPAUOBJECTSTRUCT@@@Z 0046a850 f   GrandResetSystem.obj
 0001:0006a190       ??_GCGuild@@UAEPAXI@Z      0046b190 f i Guild.obj
 0001:0006a190       ??_ECGuild@@UAEPAXI@Z      0046b190 f i * CIL library *:* CIL module *
 0001:0006a1c0       ?GetMaxGuildUser@CGuild@@QAEHPAUOBJECTSTRUCT@@@Z 0046b1c0 f   Guild.obj
 0001:0006a260       ?CGGuildRequestRecv@CGuild@@QAEXPAUPMSG_GUILD_REQUEST_RECV@@H@Z 0046b260 f   Guild.obj
 0001:0006a510       ?CGGuildResultRecv@CGuild@@QAEXPAUPMSG_GUILD_RESULT_RECV@@H@Z 0046b510 f   Guild.obj
 0001:0006a860       ?CGGuildDeleteRecv@CGuild@@QAEXPAUPMSG_GUILD_DELETE_RECV@@H@Z 0046b860 f   Guild.obj
 0001:0006ac30       ?CGGuildAssignStatusRecv@CGuild@@QAEXPAUPMSG_GUILD_ASSIGN_STATUS_RECV@@H@Z 0046bc30 f   Guild.obj
 0001:0006b020       ?GCServerMsgStringSendGuild@@YAXPAUGUILD_INFO_STRUCT@@PADE@Z 0046c020 f   Guild.obj
 0001:0006b080       ?GCGuildWarRequestResult@@YAXPADHH@Z 0046c080 f   Guild.obj
 0001:0006b3c0       ?GCGuildWarRequestSendRecv@@YAXPAUPMSG_GUILDWARSEND_RESULT@@H@Z 0046c3c0 f   Guild.obj
 0001:0006baf0       ?CGRelationShipReqJoinBreakOff@@YAXPAUPMSG_RELATIONSHIP_JOIN_BREAKOFF_REQ@@H@Z 0046caf0 f   Guild.obj
 0001:0006c0b0       ?CGRelationShipAnsJoinBreakOff@@YAXPAUPMSG_RELATIONSHIP_JOIN_BREAKOFF_ANS@@H@Z 0046d0b0 f   Guild.obj
 0001:0006c2f0       ?CGRelationShipReqKickOutUnionMember@@YAXPAUPMSG_KICKOUT_UNIONMEMBER_REQ@@H@Z 0046d2f0 f   Guild.obj
 0001:0006c4c0       ??_ECGuildClass@@UAEPAXI@Z 0046d4c0 f i * CIL library *:* CIL module *
 0001:0006c4c0       ??_GCGuildClass@@UAEPAXI@Z 0046d4c0 f i GuildClass.obj
 0001:0006c4f0       ??1?$map@V?$basic_string@DU?$char_traits@D@std@@V?$allocator@D@2@@std@@PAUGUILD_INFO_STRUCT@@U?$less@V?$basic_string@DU?$char_traits@D@std@@V?$allocator@D@2@@std@@@2@V?$allocator@U?$pair@$$CBV?$basic_string@DU?$char_traits@D@std@@V?$allocator@D@2@@std@@PAUGUILD_INFO_STRUCT@@@std@@@2@@std@@QAE@XZ 0046d4f0 f i GuildClass.obj
 0001:0006c510       ??1CGuildClass@@UAE@XZ     0046d510 f   GuildClass.obj
 0001:0006c5b0       ?AddGuild@CGuildClass@@QAEPAUGUILD_INFO_STRUCT@@HPADPAE0H@Z 0046d5b0 f   GuildClass.obj
 0001:0006c710       ?AddTail@CGuildClass@@QAEXPAUGUILD_INFO_STRUCT@@@Z 0046d710 f   GuildClass.obj
 0001:0006c980       ?DeleteGuild@CGuildClass@@QAEHPAD0@Z 0046d980 f   GuildClass.obj
 0001:0006cba0       ?SearchGuild@CGuildClass@@QAEPAUGUILD_INFO_STRUCT@@PAD@Z 0046dba0 f   GuildClass.obj
 0001:0006cc90       ?ConnectUser@CGuildClass@@QAEHPAUGUILD_INFO_STRUCT@@PAD1HH@Z 0046dc90 f   GuildClass.obj
 0001:0006ced0       ?AddMember@CGuildClass@@QAEPAUGUILD_INFO_STRUCT@@PAD0HHHH@Z 0046ded0 f   GuildClass.obj
 0001:0006d0b0       ?SetGuildMemberStatus@CGuildClass@@QAEHPAD0H@Z 0046e0b0 f   GuildClass.obj
 0001:0006d330       ?SetGuildType@CGuildClass@@QAEHPADH@Z 0046e330 f   GuildClass.obj
 0001:0006d3f0       ?AddGuildBuff@CGuildClass@@QAEXPAUGUILD_INFO_STRUCT@@@Z 0046e3f0 f   GuildClass.obj
 0001:0006d5a0       ?clear@?$_Tree@V?$_Tmap_traits@HPAUGUILD_INFO_STRUCT@@U?$less@H@std@@V?$allocator@U?$pair@$$CBHPAUGUILD_INFO_STRUCT@@@std@@@3@$0A@@std@@@std@@QAEXXZ 0046e5a0 f i GuildClass.obj
 0001:0006d5a0       ?clear@?$_Tree@V?$_Tmap_traits@HPAVCUnionInfo@@U?$less@H@std@@V?$allocator@U?$pair@$$CBHPAVCUnionInfo@@@std@@@3@$0A@@std@@@std@@QAEXXZ 0046e5a0 f i Union.obj
 0001:0006d5f0       ??1?$_Tree@V?$_Tmap_traits@H_NU?$less@H@std@@V?$allocator@U?$pair@$$CBH_N@std@@@2@$0A@@std@@@std@@QAE@XZ 0046e5f0 f i Protection.obj
 0001:0006d5f0       ??1?$_Tree@V?$_Tmap_traits@HPAVCMapServerData@@U?$less@H@std@@V?$allocator@U?$pair@$$CBHPAVCMapServerData@@@std@@@3@$0A@@std@@@std@@QAE@XZ 0046e5f0 f i MapServerManager.obj
 0001:0006d5f0       ??1?$_Tree@V?$_Tmap_traits@HPAUGUILD_INFO_STRUCT@@U?$less@H@std@@V?$allocator@U?$pair@$$CBHPAUGUILD_INFO_STRUCT@@@std@@@3@$0A@@std@@@std@@QAE@XZ 0046e5f0 f i GuildClass.obj
 0001:0006d5f0       ??1?$_Tree@V?$_Tmap_traits@HHU?$less@H@std@@V?$allocator@U?$pair@$$CBHH@std@@@2@$0A@@std@@@std@@QAE@XZ 0046e5f0 f i ItemBagManager.obj
 0001:0006d5f0       ??1?$_Tree@V?$_Tmap_traits@HPAVCUnionInfo@@U?$less@H@std@@V?$allocator@U?$pair@$$CBHPAVCUnionInfo@@@std@@@3@$0A@@std@@@std@@QAE@XZ 0046e5f0 f i Union.obj
 0001:0006d630       ??$_Erase_tree@V?$allocator@U?$_Tree_node@U?$pair@$$CBHPAUGUILD_INFO_STRUCT@@@std@@PAX@std@@@std@@@?$_Tree_val@U?$_Tree_simple_types@U?$pair@$$CBHPAUGUILD_INFO_STRUCT@@@std@@@std@@@std@@QAEXAAV?$allocator@U?$_Tree_node@U?$pair@$$CBHPAUGUILD_INFO_STRUCT@@@std@@PAX@std@@@1@PAU?$_Tree_node@U?$pair@$$CBHPAUGUILD_INFO_STRUCT@@@std@@PAX@1@@Z 0046e630 f i GuildClass.obj
 0001:0006d630       ??$_Erase_tree@V?$allocator@U?$_Tree_node@U?$pair@$$CBHH@std@@PAX@std@@@std@@@?$_Tree_val@U?$_Tree_simple_types@U?$pair@$$CBHH@std@@@std@@@std@@QAEXAAV?$allocator@U?$_Tree_node@U?$pair@$$CBHH@std@@PAX@std@@@1@PAU?$_Tree_node@U?$pair@$$CBHH@std@@PAX@1@@Z 0046e630 f i ItemBagManager.obj
 0001:0006d630       ??$_Erase_tree@V?$allocator@U?$_Tree_node@U?$pair@$$CBHPAVCMapServerData@@@std@@PAX@std@@@std@@@?$_Tree_val@U?$_Tree_simple_types@U?$pair@$$CBHPAVCMapServerData@@@std@@@std@@@std@@QAEXAAV?$allocator@U?$_Tree_node@U?$pair@$$CBHPAVCMapServerData@@@std@@PAX@std@@@1@PAU?$_Tree_node@U?$pair@$$CBHPAVCMapServerData@@@std@@PAX@1@@Z 0046e630 f i MapServerManager.obj
 0001:0006d630       ??$_Erase_tree@V?$allocator@U?$_Tree_node@U?$pair@$$CBH_N@std@@PAX@std@@@std@@@?$_Tree_val@U?$_Tree_simple_types@U?$pair@$$CBH_N@std@@@std@@@std@@QAEXAAV?$allocator@U?$_Tree_node@U?$pair@$$CBH_N@std@@PAX@std@@@1@PAU?$_Tree_node@U?$pair@$$CBH_N@std@@PAX@1@@Z 0046e630 f i Protection.obj
 0001:0006d630       ??$_Erase_tree@V?$allocator@U?$_Tree_node@U?$pair@$$CBHPAVCUnionInfo@@@std@@PAX@std@@@std@@@?$_Tree_val@U?$_Tree_simple_types@U?$pair@$$CBHPAVCUnionInfo@@@std@@@std@@@std@@QAEXAAV?$allocator@U?$_Tree_node@U?$pair@$$CBHPAVCUnionInfo@@@std@@PAX@std@@@1@PAU?$_Tree_node@U?$pair@$$CBHPAVCUnionInfo@@@std@@PAX@1@@Z 0046e630 f i Union.obj
 0001:0006d670       ??$_Erase_tree@V?$allocator@U?$_Tree_node@U?$pair@$$CBV?$basic_string@DU?$char_traits@D@std@@V?$allocator@D@2@@std@@PAUGUILD_INFO_STRUCT@@@std@@PAX@std@@@std@@@?$_Tree_val@U?$_Tree_simple_types@U?$pair@$$CBV?$basic_string@DU?$char_traits@D@std@@V?$allocator@D@2@@std@@PAUGUILD_INFO_STRUCT@@@std@@@std@@@std@@QAEXAAV?$allocator@U?$_Tree_node@U?$pair@$$CBV?$basic_string@DU?$char_traits@D@std@@V?$allocator@D@2@@std@@PAUGUILD_INFO_STRUCT@@@std@@PAX@std@@@1@PAU?$_Tree_node@U?$pair@$$CBV?$basic_string@DU?$char_traits@D@std@@V?$allocator@D@2@@std@@PAUGUILD_INFO_STRUCT@@@std@@PAX@1@@Z 0046e670 f i GuildClass.obj
 0001:0006d700       ??1?$_Alloc_construct_ptr@V?$allocator@U?$_Tree_node@U?$pair@$$CBV?$basic_string@DU?$char_traits@D@std@@V?$allocator@D@2@@std@@PAUGUILD_INFO_STRUCT@@@std@@PAX@std@@@std@@@std@@QAE@XZ 0046e700 f i GuildClass.obj
 0001:0006d720       ??1?$_Alloc_construct_ptr@V?$allocator@U?$_Tree_node@U?$pair@$$CBHPAUGUILD_INFO_STRUCT@@@std@@PAX@std@@@std@@@std@@QAE@XZ 0046e720 f i GuildClass.obj
 0001:0006d720       ??1?$_Alloc_construct_ptr@V?$allocator@U?$_Tree_node@U?$pair@$$CBHPAVCMapServerData@@@std@@PAX@std@@@std@@@std@@QAE@XZ 0046e720 f i MapServerManager.obj
 0001:0006d720       ??1?$_Alloc_construct_ptr@V?$allocator@U?$_Tree_node@U?$pair@$$CBHH@std@@PAX@std@@@std@@@std@@QAE@XZ 0046e720 f i ItemBagManager.obj
 0001:0006d720       ??1?$_Alloc_construct_ptr@V?$allocator@U?$_Tree_node@U?$pair@$$CBH_N@std@@PAX@std@@@std@@@std@@QAE@XZ 0046e720 f i Protection.obj
 0001:0006d720       ??1?$_Alloc_construct_ptr@V?$allocator@U?$_Tree_node@U?$pair@$$CBHPAVCUnionInfo@@@std@@PAX@std@@@std@@@std@@QAE@XZ 0046e720 f i Union.obj
 0001:0006d740       ??E?$_Tree_unchecked_const_iterator@V?$_Tree_val@U?$_Tree_simple_types@U?$pair@$$CBV?$basic_string@DU?$char_traits@D@std@@V?$allocator@D@2@@std@@UHardwareId_INFO@@@std@@@std@@@std@@U_Iterator_base0@2@@std@@QAEAAV01@XZ 0046e740 f i HwidManager.obj
 0001:0006d740       ??E?$_Tree_unchecked_const_iterator@V?$_Tree_val@U?$_Tree_simple_types@U?$pair@$$CBV?$basic_string@DU?$char_traits@D@std@@V?$allocator@D@2@@std@@UREGISTERED_INFO@@@std@@@std@@@std@@U_Iterator_base0@2@@std@@QAEAAV01@XZ 0046e740 f i PartySearch.obj
 0001:0006d740       ??E?$_Tree_unchecked_const_iterator@V?$_Tree_val@U?$_Tree_simple_types@U?$pair@$$CBHPAUGUILD_INFO_STRUCT@@@std@@@std@@@std@@U_Iterator_base0@2@@std@@QAEAAV01@XZ 0046e740 f i GuildClass.obj
 0001:0006d740       ??E?$_Tree_unchecked_const_iterator@V?$_Tree_val@U?$_Tree_simple_types@U?$pair@$$CBV?$basic_string@DU?$char_traits@D@std@@V?$allocator@D@2@@std@@UIP_ADDRESS_INFO@@@std@@@std@@@std@@U_Iterator_base0@2@@std@@QAEAAV01@XZ 0046e740 f i IpManager.obj
 0001:0006d740       ??E?$_Tree_unchecked_const_iterator@V?$_Tree_val@U?$_Tree_simple_types@U?$pair@$$CBV?$basic_string@DU?$char_traits@D@std@@V?$allocator@D@2@@std@@PAUGUILD_INFO_STRUCT@@@std@@@std@@@std@@U_Iterator_base0@2@@std@@QAEAAV01@XZ 0046e740 f i GuildClass.obj
 0001:0006d7a0       ?_Extract@?$_Tree_val@U?$_Tree_simple_types@U?$pair@$$CBV?$basic_string@DU?$char_traits@D@std@@V?$allocator@D@2@@std@@UREGISTERED_INFO@@@std@@@std@@@std@@QAEPAU?$_Tree_node@U?$pair@$$CBV?$basic_string@DU?$char_traits@D@std@@V?$allocator@D@2@@std@@UREGISTERED_INFO@@@std@@PAX@2@V?$_Tree_unchecked_const_iterator@V?$_Tree_val@U?$_Tree_simple_types@U?$pair@$$CBV?$basic_string@DU?$char_traits@D@std@@V?$allocator@D@2@@std@@UREGISTERED_INFO@@@std@@@std@@@std@@U_Iterator_base0@2@@2@@Z 0046e7a0 f i PartySearch.obj
 0001:0006d7a0       ?_Extract@?$_Tree_val@U?$_Tree_simple_types@U?$pair@$$CBV?$basic_string@DU?$char_traits@D@std@@V?$allocator@D@2@@std@@UIP_ADDRESS_INFO@@@std@@@std@@@std@@QAEPAU?$_Tree_node@U?$pair@$$CBV?$basic_string@DU?$char_traits@D@std@@V?$allocator@D@2@@std@@UIP_ADDRESS_INFO@@@std@@PAX@2@V?$_Tree_unchecked_const_iterator@V?$_Tree_val@U?$_Tree_simple_types@U?$pair@$$CBV?$basic_string@DU?$char_traits@D@std@@V?$allocator@D@2@@std@@UIP_ADDRESS_INFO@@@std@@@std@@@std@@U_Iterator_base0@2@@2@@Z 0046e7a0 f i IpManager.obj
 0001:0006d7a0       ?_Extract@?$_Tree_val@U?$_Tree_simple_types@U?$pair@$$CBV?$basic_string@DU?$char_traits@D@std@@V?$allocator@D@2@@std@@UHardwareId_INFO@@@std@@@std@@@std@@QAEPAU?$_Tree_node@U?$pair@$$CBV?$basic_string@DU?$char_traits@D@std@@V?$allocator@D@2@@std@@UHardwareId_INFO@@@std@@PAX@2@V?$_Tree_unchecked_const_iterator@V?$_Tree_val@U?$_Tree_simple_types@U?$pair@$$CBV?$basic_string@DU?$char_traits@D@std@@V?$allocator@D@2@@std@@UHardwareId_INFO@@@std@@@std@@@std@@U_Iterator_base0@2@@2@@Z 0046e7a0 f i HwidManager.obj
 0001:0006d7a0       ?_Extract@?$_Tree_val@U?$_Tree_simple_types@U?$pair@$$CBV?$basic_string@DU?$char_traits@D@std@@V?$allocator@D@2@@std@@PAUGUILD_INFO_STRUCT@@@std@@@std@@@std@@QAEPAU?$_Tree_node@U?$pair@$$CBV?$basic_string@DU?$char_traits@D@std@@V?$allocator@D@2@@std@@PAUGUILD_INFO_STRUCT@@@std@@PAX@2@V?$_Tree_unchecked_const_iterator@V?$_Tree_val@U?$_Tree_simple_types@U?$pair@$$CBV?$basic_string@DU?$char_traits@D@std@@V?$allocator@D@2@@std@@PAUGUILD_INFO_STRUCT@@@std@@@std@@@std@@U_Iterator_base0@2@@2@@Z 0046e7a0 f i GuildClass.obj
 0001:0006d7a0       ?_Extract@?$_Tree_val@U?$_Tree_simple_types@U?$pair@$$CBHPAUGUILD_INFO_STRUCT@@@std@@@std@@@std@@QAEPAU?$_Tree_node@U?$pair@$$CBHPAUGUILD_INFO_STRUCT@@@std@@PAX@2@V?$_Tree_unchecked_const_iterator@V?$_Tree_val@U?$_Tree_simple_types@U?$pair@$$CBHPAUGUILD_INFO_STRUCT@@@std@@@std@@@std@@U_Iterator_base0@2@@2@@Z 0046e7a0 f i GuildClass.obj
 0001:0006db80       ??$_Find_lower_bound@V?$basic_string@DU?$char_traits@D@std@@V?$allocator@D@2@@std@@@?$_Tree@V?$_Tmap_traits@V?$basic_string@DU?$char_traits@D@std@@V?$allocator@D@2@@std@@PAUGUILD_INFO_STRUCT@@U?$less@V?$basic_string@DU?$char_traits@D@std@@V?$allocator@D@2@@std@@@2@V?$allocator@U?$pair@$$CBV?$basic_string@DU?$char_traits@D@std@@V?$allocator@D@2@@std@@PAUGUILD_INFO_STRUCT@@@std@@@2@$0A@@std@@@std@@IBE?AU?$_Tree_find_result@PAU?$_Tree_node@U?$pair@$$CBV?$basic_string@DU?$char_traits@D@std@@V?$allocator@D@2@@std@@PAUGUILD_INFO_STRUCT@@@std@@PAX@std@@@1@ABV?$basic_string@DU?$char_traits@D@std@@V?$allocator@D@2@@1@@Z 0046eb80 f i GuildClass.obj
 0001:0006db80       ??$_Find_lower_bound@V?$basic_string@DU?$char_traits@D@std@@V?$allocator@D@2@@std@@@?$_Tree@V?$_Tmap_traits@V?$basic_string@DU?$char_traits@D@std@@V?$allocator@D@2@@std@@UREGION_DATA@@U?$less@V?$basic_string@DU?$char_traits@D@std@@V?$allocator@D@2@@std@@@2@V?$allocator@U?$pair@$$CBV?$basic_string@DU?$char_traits@D@std@@V?$allocator@D@2@@std@@UREGION_DATA@@@std@@@2@$0A@@std@@@std@@IBE?AU?$_Tree_find_result@PAU?$_Tree_node@U?$pair@$$CBV?$basic_string@DU?$char_traits@D@std@@V?$allocator@D@2@@std@@UREGION_DATA@@@std@@PAX@std@@@1@ABV?$basic_string@DU?$char_traits@D@std@@V?$allocator@D@2@@1@@Z 0046eb80 f i RegionSystem.obj
 0001:0006db80       ??$_Find_lower_bound@V?$basic_string@DU?$char_traits@D@std@@V?$allocator@D@2@@std@@@?$_Tree@V?$_Tmap_traits@V?$basic_string@DU?$char_traits@D@std@@V?$allocator@D@2@@std@@UIP_ADDRESS_INFO@@U?$less@V?$basic_string@DU?$char_traits@D@std@@V?$allocator@D@2@@std@@@2@V?$allocator@U?$pair@$$CBV?$basic_string@DU?$char_traits@D@std@@V?$allocator@D@2@@std@@UIP_ADDRESS_INFO@@@std@@@2@$0A@@std@@@std@@IBE?AU?$_Tree_find_result@PAU?$_Tree_node@U?$pair@$$CBV?$basic_string@DU?$char_traits@D@std@@V?$allocator@D@2@@std@@UIP_ADDRESS_INFO@@@std@@PAX@std@@@1@ABV?$basic_string@DU?$char_traits@D@std@@V?$allocator@D@2@@1@@Z 0046eb80 f i IpManager.obj
 0001:0006db80       ??$_Find_lower_bound@V?$basic_string@DU?$char_traits@D@std@@V?$allocator@D@2@@std@@@?$_Tree@V?$_Tmap_traits@V?$basic_string@DU?$char_traits@D@std@@V?$allocator@D@2@@std@@UREGISTERED_INFO@@U?$less@V?$basic_string@DU?$char_traits@D@std@@V?$allocator@D@2@@std@@@2@V?$allocator@U?$pair@$$CBV?$basic_string@DU?$char_traits@D@std@@V?$allocator@D@2@@std@@UREGISTERED_INFO@@@std@@@2@$0A@@std@@@std@@IBE?AU?$_Tree_find_result@PAU?$_Tree_node@U?$pair@$$CBV?$basic_string@DU?$char_traits@D@std@@V?$allocator@D@2@@std@@UREGISTERED_INFO@@@std@@PAX@std@@@1@ABV?$basic_string@DU?$char_traits@D@std@@V?$allocator@D@2@@1@@Z 0046eb80 f i PartySearch.obj
 0001:0006db80       ??$_Find_lower_bound@V?$basic_string@DU?$char_traits@D@std@@V?$allocator@D@2@@std@@@?$_Tree@V?$_Tmap_traits@V?$basic_string@DU?$char_traits@D@std@@V?$allocator@D@2@@std@@URECONNECT_INFO@@U?$less@V?$basic_string@DU?$char_traits@D@std@@V?$allocator@D@2@@std@@@2@V?$allocator@U?$pair@$$CBV?$basic_string@DU?$char_traits@D@std@@V?$allocator@D@2@@std@@URECONNECT_INFO@@@std@@@2@$0A@@std@@@std@@IBE?AU?$_Tree_find_result@PAU?$_Tree_node@U?$pair@$$CBV?$basic_string@DU?$char_traits@D@std@@V?$allocator@D@2@@std@@URECONNECT_INFO@@@std@@PAX@std@@@1@ABV?$basic_string@DU?$char_traits@D@std@@V?$allocator@D@2@@1@@Z 0046eb80 f i Reconnect.obj
 0001:0006db80       ??$_Find_lower_bound@V?$basic_string@DU?$char_traits@D@std@@V?$allocator@D@2@@std@@@?$_Tree@V?$_Tmap_traits@V?$basic_string@DU?$char_traits@D@std@@V?$allocator@D@2@@std@@UHardwareId_INFO@@U?$less@V?$basic_string@DU?$char_traits@D@std@@V?$allocator@D@2@@std@@@2@V?$allocator@U?$pair@$$CBV?$basic_string@DU?$char_traits@D@std@@V?$allocator@D@2@@std@@UHardwareId_INFO@@@std@@@2@$0A@@std@@@std@@IBE?AU?$_Tree_find_result@PAU?$_Tree_node@U?$pair@$$CBV?$basic_string@DU?$char_traits@D@std@@V?$allocator@D@2@@std@@UHardwareId_INFO@@@std@@PAX@std@@@1@ABV?$basic_string@DU?$char_traits@D@std@@V?$allocator@D@2@@1@@Z 0046eb80 f i HwidManager.obj
 0001:0006dbe0       ??_GCGuildMatching@@UAEPAXI@Z 0046ebe0 f i GuildMatching.obj
 0001:0006dbe0       ??_ECGuildMatching@@UAEPAXI@Z 0046ebe0 f i * CIL library *:* CIL module *
 0001:0006dc10       ??_EcGuildWarehouse@@UAEPAXI@Z 0046ec10 f i * CIL library *:* CIL module *
 0001:0006dc10       ??_GcGuildWarehouse@@UAEPAXI@Z 0046ec10 f i GuildWarehouse.obj
 0001:0006dc40       ?DGGuildWarehouseItemRecv@cGuildWarehouse@@QAEXPAUSDHP_GUILDWAREHOUSE_ITEM_RECV@@@Z 0046ec40 f   GuildWarehouse.obj
 0001:0006df50       ?CGGuildWarehouseMoneyRecv@cGuildWarehouse@@QAEXPAUPMSG_WAREHOUSE_MONEY_RECV@@H@Z 0046ef50 f   GuildWarehouse.obj
 0001:0006e0c0       ?DecryptData@@YAXPAEHH@Z   0046f0c0 f   HackCheck.obj
 0001:0006e3d0       ?EncryptData@@YAXPAEH@Z    0046f3d0 f   HackCheck.obj
 0001:0006e560       ?InitHackCheck@@YAXXZ      0046f560 f   HackCheck.obj
 0001:0006e760       ??_ECHackPacketCheck@@UAEPAXI@Z 0046f760 f i * CIL library *:* CIL module *
 0001:0006e760       ??_GCHackPacketCheck@@UAEPAXI@Z 0046f760 f i HackPacketCheck.obj
 0001:0006e790       ?Init@CHackPacketCheck@@QAEXXZ 0046f790 f   HackPacketCheck.obj
 0001:0006e810       ?Load@CHackPacketCheck@@QAEXPAD@Z 0046f810 f   HackPacketCheck.obj
 0001:0006ea00       ?CheckPacketHack@CHackPacketCheck@@QAE_NHHHHH@Z 0046fa00 f   HackPacketCheck.obj
 0001:0006ec60       ??_ECHelper@@UAEPAXI@Z     0046fc60 f i * CIL library *:* CIL module *
 0001:0006ec60       ??_GCHelper@@UAEPAXI@Z     0046fc60 f i Helper.obj
 0001:0006ec90       ?MainProc@CHelper@@QAEXXZ  0046fc90 f   Helper.obj
 0001:0006eec0       ?GCHelperStartSend@CHelper@@QAEXHHHH@Z 0046fec0 f   Helper.obj
 0001:0006ef20       ??_GCHwidManager@@UAEPAXI@Z 0046ff20 f i HwidManager.obj
 0001:0006ef20       ??_ECHwidManager@@UAEPAXI@Z 0046ff20 f i * CIL library *:* CIL module *
 0001:0006ef70       ?InsertHwid@CHwidManager@@QAEXPADH@Z 0046ff70 f   HwidManager.obj
 0001:0006f2c0       ?ConnectHwid@CHwidManager@@QAEXPAUCG_HWID_SEND@@PAUOBJECTSTRUCT@@@Z 004702c0 f   HwidManager.obj
 0001:0006f4a0       ??$_Erase_tree@V?$allocator@U?$_Tree_node@U?$pair@$$CBV?$basic_string@DU?$char_traits@D@std@@V?$allocator@D@2@@std@@UHardwareId_INFO@@@std@@PAX@std@@@std@@@?$_Tree_val@U?$_Tree_simple_types@U?$pair@$$CBV?$basic_string@DU?$char_traits@D@std@@V?$allocator@D@2@@std@@UHardwareId_INFO@@@std@@@std@@@std@@QAEXAAV?$allocator@U?$_Tree_node@U?$pair@$$CBV?$basic_string@DU?$char_traits@D@std@@V?$allocator@D@2@@std@@UHardwareId_INFO@@@std@@PAX@std@@@1@PAU?$_Tree_node@U?$pair@$$CBV?$basic_string@DU?$char_traits@D@std@@V?$allocator@D@2@@std@@UHardwareId_INFO@@@std@@PAX@1@@Z 004704a0 f i HwidManager.obj
 0001:0006f530       ??1?$_Alloc_construct_ptr@V?$allocator@U?$_Tree_node@U?$pair@$$CBHUMAP_MANAGER_INFO@@@std@@PAX@std@@@std@@@std@@QAE@XZ 00470530 f i MapManager.obj
 0001:0006f530       ??1?$_Alloc_construct_ptr@V?$allocator@U?$_Tree_node@U?$pair@$$CBHUITEM_OPTION0_RATE_INFO@@@std@@PAX@std@@@std@@@std@@QAE@XZ 00470530 f i ItemOptionRate.obj
 0001:0006f530       ??1?$_Alloc_construct_ptr@V?$allocator@U?$_Tree_node@U?$pair@$$CBV?$basic_string@DU?$char_traits@D@std@@V?$allocator@D@2@@std@@UHardwareId_INFO@@@std@@PAX@std@@@std@@@std@@QAE@XZ 00470530 f i HwidManager.obj
 0001:0006f530       ??1?$_Alloc_construct_ptr@V?$allocator@U?$_Tree_node@U?$pair@$$CBHUMAP_INFO@@@std@@PAX@std@@@std@@@std@@QAE@XZ 00470530 f i Message.obj
 0001:0006f550       ??0CIllusionTemple@@QAE@XZ 00470550 f   IllusionTemple.obj
 0001:0006f880       ??_ECIllusionTemple@@UAEPAXI@Z 00470880 f i * CIL library *:* CIL module *
 0001:0006f880       ??_GCIllusionTemple@@UAEPAXI@Z 00470880 f i IllusionTemple.obj
 0001:0006f8c0       ?Init@CIllusionTemple@@QAEXXZ 004708c0 f   IllusionTemple.obj
 0001:0006f920       ?Load@CIllusionTemple@@QAEXPAD@Z 00470920 f   IllusionTemple.obj
 0001:0006fd00       ?ProcState_EMPTY@CIllusionTemple@@QAEXPAUILLUSION_TEMPLE_LEVEL@@@Z 00470d00 f   IllusionTemple.obj
 0001:0006ff50       ?ProcState_STAND@CIllusionTemple@@QAEXPAUILLUSION_TEMPLE_LEVEL@@@Z 00470f50 f   IllusionTemple.obj
 0001:000702a0       ?ProcState_START@CIllusionTemple@@QAEXPAUILLUSION_TEMPLE_LEVEL@@@Z 004712a0 f   IllusionTemple.obj
 0001:00070590       ?SetState@CIllusionTemple@@QAEXPAUILLUSION_TEMPLE_LEVEL@@H@Z 00471590 f   IllusionTemple.obj
 0001:00070610       ?SetState_EMPTY@CIllusionTemple@@QAEXPAUILLUSION_TEMPLE_LEVEL@@@Z 00471610 f   IllusionTemple.obj
 0001:000707f0       ?SetState_STAND@CIllusionTemple@@QAEXPAUILLUSION_TEMPLE_LEVEL@@@Z 004717f0 f   IllusionTemple.obj
 0001:00070970       ?SetState_START@CIllusionTemple@@QAEXPAUILLUSION_TEMPLE_LEVEL@@@Z 00471970 f   IllusionTemple.obj
 0001:00070b00       ?SetState_CLEAN@CIllusionTemple@@QAEXPAUILLUSION_TEMPLE_LEVEL@@@Z 00471b00 f   IllusionTemple.obj
 0001:00070f50       ?CheckSync@CIllusionTemple@@QAEXPAUILLUSION_TEMPLE_LEVEL@@@Z 00471f50 f   IllusionTemple.obj
 0001:00071120       ?GetRemainTime@CIllusionTemple@@QAEHH@Z 00472120 f   IllusionTemple.obj
 0001:000712e0       ?DelUser@CIllusionTemple@@QAE_NPAUILLUSION_TEMPLE_LEVEL@@H@Z 004722e0 f   IllusionTemple.obj
 0001:000713d0       ?CheckUser@CIllusionTemple@@QAEXPAUILLUSION_TEMPLE_LEVEL@@@Z 004723d0 f   IllusionTemple.obj
 0001:00071420       ?GetUserAbleLevel@CIllusionTemple@@QAEHPAUOBJECTSTRUCT@@@Z 00472420 f   IllusionTemple.obj
 0001:00071580       ?SearchUserDropEventItem@CIllusionTemple@@QAEXH@Z 00472580 f   IllusionTemple.obj
 0001:00071720       ?SearchUserDeleteEventItem@CIllusionTemple@@QAEXH@Z 00472720 f   IllusionTemple.obj
 0001:00071820       ?GiveUserRewardExperience@CIllusionTemple@@QAEXPAUILLUSION_TEMPLE_LEVEL@@@Z 00472820 f   IllusionTemple.obj
 0001:000719d0       ?SetStoneStatue@CIllusionTemple@@QAEXPAUILLUSION_TEMPLE_LEVEL@@@Z 004729d0 f   IllusionTemple.obj
 0001:00071ac0       ?SetMonster@CIllusionTemple@@QAEXPAUILLUSION_TEMPLE_LEVEL@@H@Z 00472ac0 f   IllusionTemple.obj
 0001:00071bb0       ?NpcMirageTheMummy@CIllusionTemple@@QAEXPAUOBJECTSTRUCT@@0@Z 00472bb0 f   IllusionTemple.obj
 0001:00071df0       ?NoticeSendToAll@CIllusionTemple@@QAAXPAUILLUSION_TEMPLE_LEVEL@@HPADZZ 00472df0 f   IllusionTemple.obj
 0001:00071e80       ?CGIllusionTempleEnterRecv@CIllusionTemple@@QAEXPAUPMSG_ILLUSION_TEMPLE_ENTER_RECV@@H@Z 00472e80 f   IllusionTemple.obj
 0001:00072160       ?CGIllusionTempleSkillRecv@CIllusionTemple@@QAEXPAUPMSG_ILLUSION_TEMPLE_SKILL_RECV@@H@Z 00473160 f   IllusionTemple.obj
 0001:00072630       ?CGIllusionTempleButtonClickRecv@CIllusionTemple@@QAEXH@Z 00473630 f   IllusionTemple.obj
 0001:00072840       ?GCIllusionTempleBattleInfoSend@CIllusionTemple@@QAEXPAUILLUSION_TEMPLE_LEVEL@@@Z 00473840 f   IllusionTemple.obj
 0001:00072d20       ?GCIllusionTempleChangeScenarioSend@CIllusionTemple@@QAEXPAUILLUSION_TEMPLE_LEVEL@@HH@Z 00473d20 f   IllusionTemple.obj
 0001:00072da0       ??_ECImperialGuardian@@UAEPAXI@Z 00473da0 f i * CIL library *:* CIL module *
 0001:00072da0       ??_GCImperialGuardian@@UAEPAXI@Z 00473da0 f i ImperialGuardian.obj
 0001:00072dd0       ?Load@CImperialGuardian@@QAEXPAD@Z 00473dd0 f   ImperialGuardian.obj
 0001:00073180       ?MainProc@CImperialGuardian@@QAEXXZ 00474180 f   ImperialGuardian.obj
 0001:00073860       ?SetState@CImperialGuardian@@QAEXH@Z 00474860 f   ImperialGuardian.obj
 0001:00073e00       ?SetState_PLAY3@CImperialGuardian@@QAEXXZ 00474e00 f   ImperialGuardian.obj
 0001:00073fa0       ?SetState_CLEAN@CImperialGuardian@@QAEXXZ 00474fa0 f   ImperialGuardian.obj
 0001:000742b0       ?AddUser@CImperialGuardian@@QAE_NH@Z 004752b0 f   ImperialGuardian.obj
 0001:00074320       ?DelUser@CImperialGuardian@@QAE_NH@Z 00475320 f   ImperialGuardian.obj
 0001:000743b0       ?CheckUser@CImperialGuardian@@QAEXXZ 004753b0 f   ImperialGuardian.obj
 0001:00074400       ?GetUserCount@CImperialGuardian@@QAEHXZ 00475400 f   ImperialGuardian.obj
 0001:00074470       ?GiveUserRewardExperience@CImperialGuardian@@QAEXH@Z 00475470 f   ImperialGuardian.obj
 0001:000745d0       ?ClearMonster@CImperialGuardian@@QAEXXZ 004755d0 f   ImperialGuardian.obj
 0001:00074600       ?ClearMonsterTrap@CImperialGuardian@@QAEXXZ 00475600 f   ImperialGuardian.obj
 0001:00074650       ?SetSideGate@CImperialGuardian@@QAEXXZ 00475650 f   ImperialGuardian.obj
 0001:00074a30       ?SetLockGate@CImperialGuardian@@QAEXXZ 00475a30 f   ImperialGuardian.obj
 0001:00074e10       ?SetMainGate@CImperialGuardian@@QAEXXZ 00475e10 f   ImperialGuardian.obj
 0001:000751f0       ?SetSideBoss@CImperialGuardian@@QAEXH@Z 004761f0 f   ImperialGuardian.obj
 0001:00075620       ?SetMainBoss@CImperialGuardian@@QAEXH@Z 00476620 f   ImperialGuardian.obj
 0001:00075a50       ?SetMonster@CImperialGuardian@@QAEXH@Z 00476a50 f   ImperialGuardian.obj
 0001:00075eb0       ?SetMonsterTrap@CImperialGuardian@@QAEXH@Z 00476eb0 f   ImperialGuardian.obj
 0001:00076200       ?DropSideBossItem@CImperialGuardian@@QAEXPAUOBJECTSTRUCT@@0@Z 00477200 f   ImperialGuardian.obj
 0001:000763f0       ?SetSideGateZone@CImperialGuardian@@QAEXXZ 004773f0 f   ImperialGuardian.obj
 0001:000764f0       ?SetLockGateZone@CImperialGuardian@@QAEXXZ 004774f0 f   ImperialGuardian.obj
 0001:000765f0       ?SetMainGateZone@CImperialGuardian@@QAEXXZ 004775f0 f   ImperialGuardian.obj
 0001:000766f0       ?DelSideGateZone@CImperialGuardian@@QAEXXZ 004776f0 f   ImperialGuardian.obj
 0001:000767f0       ?DelLockGateZone@CImperialGuardian@@QAEXXZ 004777f0 f   ImperialGuardian.obj
 0001:000768f0       ?DelMainGateZone@CImperialGuardian@@QAEXXZ 004778f0 f   ImperialGuardian.obj
 0001:000769f0       ?MonsterDieProc@CImperialGuardian@@QAEXPAUOBJECTSTRUCT@@0@Z 004779f0 f   ImperialGuardian.obj
 0001:00076bd0       ?CGImperialGuardianEnterRecv@CImperialGuardian@@QAEXPAUPMSG_IMPERIAL_GUARDIAN_ENTER_RECV@@H@Z 00477bd0 f   ImperialGuardian.obj
 0001:00076f00       ?GCImperialGuardianStateSend@CImperialGuardian@@QAEXHH@Z 00477f00 f   ImperialGuardian.obj
 0001:00077000       ?GCImperialGuardianInterfaceSend@CImperialGuardian@@QAEXXZ 00478000 f   ImperialGuardian.obj
 0001:000770e0       ??0INVASION_INFO@@QAE@XZ   004780e0 f i InvasionManager.obj
 0001:000771c0       ??_GCInvasionManager@@UAEPAXI@Z 004781c0 f i InvasionManager.obj
 0001:000771c0       ??_ECInvasionManager@@UAEPAXI@Z 004781c0 f i * CIL library *:* CIL module *
 0001:00077240       ??1INVASION_INFO@@QAE@XZ   00478240 f i InvasionManager.obj
 0001:000772c0       ?Load@CInvasionManager@@QAEXPAD@Z 004782c0 f   InvasionManager.obj
 0001:000778c0       ?ProcState_EMPTY@CInvasionManager@@QAEXPAUINVASION_INFO@@@Z 004788c0 f   InvasionManager.obj
 0001:00077aa0       ?SetState@CInvasionManager@@QAEXPAUINVASION_INFO@@H@Z 00478aa0 f   InvasionManager.obj
 0001:00077b70       ?SetState_EMPTY@CInvasionManager@@QAEXPAUINVASION_INFO@@@Z 00478b70 f   InvasionManager.obj
 0001:00077e60       ?SetMonster@CInvasionManager@@QAEXPAUINVASION_INFO@@PAUINVASION_RESPWAN_INFO@@PAUINVASION_MONSTER_INFO@@@Z 00478e60 f   InvasionManager.obj
 0001:00078180       ?MonsterDieProc@CInvasionManager@@QAEXPAUOBJECTSTRUCT@@0@Z 00479180 f   InvasionManager.obj
 0001:00078490       ??0?$vector@UINVASION_RESPWAN_INFO@@V?$allocator@UINVASION_RESPWAN_INFO@@@std@@@std@@QAE@XZ 00479490 f i InvasionManager.obj
 0001:000784b0       ??_ECInventoryEquipment@@UAEPAXI@Z 004794b0 f i * CIL library *:* CIL module *
 0001:000784b0       ??_GCInventoryEquipment@@UAEPAXI@Z 004794b0 f i InventoryEquipment.obj
 0001:000784e0       ?CGInventoryEquipmentRecv@CInventoryEquipment@@QAEXPAUPMSG_INVENTORY_EQUIPMENT_RECV@@H@Z 004794e0 f   InventoryEquipment.obj
 0001:000786e0       ??_GCIpManager@@UAEPAXI@Z  004796e0 f i IpManager.obj
 0001:000786e0       ??_ECIpManager@@UAEPAXI@Z  004796e0 f i * CIL library *:* CIL module *
 0001:00078730       ?CheckIpAddress@CIpManager@@QAE_NPAD@Z 00479730 f   IpManager.obj
 0001:00078830       ?InsertIpAddress@CIpManager@@QAEXPAD@Z 00479830 f   IpManager.obj
 0001:00078af0       ?RemoveIpAddress@CIpManager@@QAEXPAD@Z 00479af0 f   IpManager.obj
 0001:00078c30       ??$_Erase_tree@V?$allocator@U?$_Tree_node@U?$pair@$$CBV?$basic_string@DU?$char_traits@D@std@@V?$allocator@D@2@@std@@UIP_ADDRESS_INFO@@@std@@PAX@std@@@std@@@?$_Tree_val@U?$_Tree_simple_types@U?$pair@$$CBV?$basic_string@DU?$char_traits@D@std@@V?$allocator@D@2@@std@@UIP_ADDRESS_INFO@@@std@@@std@@@std@@QAEXAAV?$allocator@U?$_Tree_node@U?$pair@$$CBV?$basic_string@DU?$char_traits@D@std@@V?$allocator@D@2@@std@@UIP_ADDRESS_INFO@@@std@@PAX@std@@@1@PAU?$_Tree_node@U?$pair@$$CBV?$basic_string@DU?$char_traits@D@std@@V?$allocator@D@2@@std@@UIP_ADDRESS_INFO@@@std@@PAX@1@@Z 00479c30 f i IpManager.obj
 0001:00078cc0       ??1?$_Tree_temp_node@V?$allocator@U?$_Tree_node@U?$pair@$$CBGUTELEPORT_PANEL_INFO@@@std@@PAX@std@@@std@@@std@@QAE@XZ 00479cc0 f i TeleportPanel.obj
 0001:00078cc0       ??1?$_Alloc_construct_ptr@V?$allocator@U?$_Tree_node@U?$pair@$$CBGUTELEPORT_PANEL_INFO@@@std@@PAX@std@@@std@@@std@@QAE@XZ 00479cc0 f i TeleportPanel.obj
 0001:00078cc0       ??1?$_Alloc_construct_ptr@V?$allocator@U?$_Tree_node@U?$pair@$$CBV?$basic_string@DU?$char_traits@D@std@@V?$allocator@D@2@@std@@UIP_ADDRESS_INFO@@@std@@PAX@std@@@std@@@std@@QAE@XZ 00479cc0 f i IpManager.obj
 0001:00078ce0       ??0CItem@@QAE@XZ           00479ce0 f   Item.obj
 0001:00078cf0       ?Clear@CItem@@QAEXXZ       00479cf0 f   Item.obj
 0001:00078e00       ?Convert@CItem@@QAEXHEEEEEEEQAEE@Z 00479e00 f   Item.obj
 0001:0007a270       ?Value@CItem@@QAEXXZ       0047b270 f   Item.obj
 0001:0007acb0       ?OldValue@CItem@@QAEXXZ    0047bcb0 f   Item.obj
 0001:0007ad30       ?PetValue@CItem@@QAEXXZ    0047bd30 f   Item.obj
 0001:0007ade0       ?SetPetItemInfo@CItem@@QAEXHH@Z 0047bde0 f   Item.obj
 0001:0007af60       ?WeaponDurabilityDown@CItem@@QAE_NHHH@Z 0047bf60 f   Item.obj
 0001:0007b100       ?ArmorDurabilityDown@CItem@@QAE_NHH@Z 0047c100 f   Item.obj
 0001:0007b2d0       ?RingDurabilityDown@CItem@@QAE_NHH@Z 0047c2d0 f   Item.obj
 0001:0007b3b0       ?LuckyDurabilityDown@CItem@@QAE_NHH@Z 0047c3b0 f   Item.obj
 0001:0007b460       ?CheckDurabilityState@CItem@@QAE_NXZ 0047c460 f   Item.obj
 0001:0007b5e0       ?AddPetItemExp@CItem@@QAE_NH@Z 0047c5e0 f   Item.obj
 0001:0007b7c0       ?DecPetItemExp@CItem@@QAE_NH@Z 0047c7c0 f   Item.obj
 0001:0007b990       ??_GCItemBag@@UAEPAXI@Z    0047c990 f i ItemBag.obj
 0001:0007b990       ??_ECItemBag@@UAEPAXI@Z    0047c990 f i * CIL library *:* CIL module *
 0001:0007b9c0       ??1CItemBag@@UAE@XZ        0047c9c0 f   ItemBag.obj
 0001:0007ba20       ?Load@CItemBag@@QAEXPAD@Z  0047ca20 f   ItemBag.obj
 0001:0007bf40       ?GetItem@CItemBag@@QAE_NPAUOBJECTSTRUCT@@PAVCItem@@@Z 0047cf40 f   ItemBag.obj
 0001:0007c220       ?DropItem@CItemBag@@QAE_NPAUOBJECTSTRUCT@@HHH@Z 0047d220 f   ItemBag.obj
 0001:0007c530       ??_GCItemBagEx@@UAEPAXI@Z  0047d530 f i ItemBagEx.obj
 0001:0007c530       ??_ECItemBagEx@@UAEPAXI@Z  0047d530 f i * CIL library *:* CIL module *
 0001:0007c590       ??1?$map@HUITEM_BAG_EX_INFO@@U?$less@H@std@@V?$allocator@U?$pair@$$CBHUITEM_BAG_EX_INFO@@@std@@@3@@std@@QAE@XZ 0047d590 f i ItemBagEx.obj
 0001:0007c5b0       ?Load@CItemBagEx@@QAEXPAD@Z 0047d5b0 f   ItemBagEx.obj
 0001:0007cd50       ??1ITEM_BAG_EX_INFO@@QAE@XZ 0047dd50 f i ItemBagEx.obj
 0001:0007cd60       ??1?$pair@HUITEM_BAG_EX_INFO@@@std@@QAE@XZ 0047dd60 f i ItemBagEx.obj
 0001:0007cd70       ??1?$pair@HV?$vector@UITEM_BAG_EX_ITEM_INFO@@V?$allocator@UITEM_BAG_EX_ITEM_INFO@@@std@@@std@@@std@@QAE@XZ 0047dd70 f i ItemBagEx.obj
 0001:0007cd70       ??1?$pair@HV?$vector@UMONSTER_SET_BASE_INFO@@V?$allocator@UMONSTER_SET_BASE_INFO@@@std@@@std@@@std@@QAE@XZ 0047dd70 f i MonsterSetBase.obj
 0001:0007cd80       ?GetItem@CItemBagEx@@QAE_NPAUOBJECTSTRUCT@@PAVCItem@@@Z 0047dd80 f   ItemBagEx.obj
 0001:0007d060       ?DropItem@CItemBagEx@@QAE_NPAUOBJECTSTRUCT@@HHH@Z 0047e060 f   ItemBagEx.obj
 0001:0007d550       ?CheckDropClass@CItemBagEx@@QAE_NPAUOBJECTSTRUCT@@HQAH@Z 0047e550 f   ItemBagEx.obj
 0001:0007d600       ??1?$vector@UMONSTER_SET_BASE_INFO@@V?$allocator@UMONSTER_SET_BASE_INFO@@@std@@@std@@QAE@XZ 0047e600 f i MonsterSetBase.obj
 0001:0007d600       ??1?$vector@UITEM_BAG_EX_ITEM_INFO@@V?$allocator@UITEM_BAG_EX_ITEM_INFO@@@std@@@std@@QAE@XZ 0047e600 f i ItemBagEx.obj
 0001:0007d610       ?_Tidy@?$vector@UITEM_BAG_EX_DROP_INFO@@V?$allocator@UITEM_BAG_EX_DROP_INFO@@@std@@@std@@AAEXXZ 0047e610 f i ItemBagEx.obj
 0001:0007d680       ??0ITEM_BAG_EX_INFO@@QAE@ABU0@@Z 0047e680 f i ItemBagEx.obj
 0001:0007d760       ??$_Erase_tree@V?$allocator@U?$_Tree_node@U?$pair@$$CBHV?$vector@UITEM_BAG_EX_ITEM_INFO@@V?$allocator@UITEM_BAG_EX_ITEM_INFO@@@std@@@std@@@std@@PAX@std@@@std@@@?$_Tree_val@U?$_Tree_simple_types@U?$pair@$$CBHV?$vector@UITEM_BAG_EX_ITEM_INFO@@V?$allocator@UITEM_BAG_EX_ITEM_INFO@@@std@@@std@@@std@@@std@@@std@@QAEXAAV?$allocator@U?$_Tree_node@U?$pair@$$CBHV?$vector@UITEM_BAG_EX_ITEM_INFO@@V?$allocator@UITEM_BAG_EX_ITEM_INFO@@@std@@@std@@@std@@PAX@std@@@1@PAU?$_Tree_node@U?$pair@$$CBHV?$vector@UITEM_BAG_EX_ITEM_INFO@@V?$allocator@UITEM_BAG_EX_ITEM_INFO@@@std@@@std@@@std@@PAX@1@@Z 0047e760 f i ItemBagEx.obj
 0001:0007d760       ??$_Erase_tree@V?$allocator@U?$_Tree_node@U?$pair@$$CBHV?$vector@UMONSTER_SET_BASE_INFO@@V?$allocator@UMONSTER_SET_BASE_INFO@@@std@@@std@@@std@@PAX@std@@@std@@@?$_Tree_val@U?$_Tree_simple_types@U?$pair@$$CBHV?$vector@UMONSTER_SET_BASE_INFO@@V?$allocator@UMONSTER_SET_BASE_INFO@@@std@@@std@@@std@@@std@@@std@@QAEXAAV?$allocator@U?$_Tree_node@U?$pair@$$CBHV?$vector@UMONSTER_SET_BASE_INFO@@V?$allocator@UMONSTER_SET_BASE_INFO@@@std@@@std@@@std@@PAX@std@@@1@PAU?$_Tree_node@U?$pair@$$CBHV?$vector@UMONSTER_SET_BASE_INFO@@V?$allocator@UMONSTER_SET_BASE_INFO@@@std@@@std@@@std@@PAX@1@@Z 0047e760 f i MonsterSetBase.obj
 0001:0007d760       ??$_Erase_tree_and_orphan@V?$allocator@U?$_Tree_node@U?$pair@$$CBHV?$vector@UITEM_BAG_EX_ITEM_INFO@@V?$allocator@UITEM_BAG_EX_ITEM_INFO@@@std@@@std@@@std@@PAX@std@@@std@@@?$_Tree_val@U?$_Tree_simple_types@U?$pair@$$CBHV?$vector@UITEM_BAG_EX_ITEM_INFO@@V?$allocator@UITEM_BAG_EX_ITEM_INFO@@@std@@@std@@@std@@@std@@@std@@QAEXAAV?$allocator@U?$_Tree_node@U?$pair@$$CBHV?$vector@UITEM_BAG_EX_ITEM_INFO@@V?$allocator@UITEM_BAG_EX_ITEM_INFO@@@std@@@std@@@std@@PAX@std@@@1@PAU?$_Tree_node@U?$pair@$$CBHV?$vector@UITEM_BAG_EX_ITEM_INFO@@V?$allocator@UITEM_BAG_EX_ITEM_INFO@@@std@@@std@@@std@@PAX@1@@Z 0047e760 f i ItemBagManager.obj
 0001:0007d760       ??$_Erase_tree_and_orphan@V?$allocator@U?$_Tree_node@U?$pair@$$CBHV?$vector@UMONSTER_SET_BASE_INFO@@V?$allocator@UMONSTER_SET_BASE_INFO@@@std@@@std@@@std@@PAX@std@@@std@@@?$_Tree_val@U?$_Tree_simple_types@U?$pair@$$CBHV?$vector@UMONSTER_SET_BASE_INFO@@V?$allocator@UMONSTER_SET_BASE_INFO@@@std@@@std@@@std@@@std@@@std@@QAEXAAV?$allocator@U?$_Tree_node@U?$pair@$$CBHV?$vector@UMONSTER_SET_BASE_INFO@@V?$allocator@UMONSTER_SET_BASE_INFO@@@std@@@std@@@std@@PAX@std@@@1@PAU?$_Tree_node@U?$pair@$$CBHV?$vector@UMONSTER_SET_BASE_INFO@@V?$allocator@UMONSTER_SET_BASE_INFO@@@std@@@std@@@std@@PAX@1@@Z 0047e760 f i MonsterSetBase.obj
 0001:0007d7b0       ??$_Erase_tree@V?$allocator@U?$_Tree_node@U?$pair@$$CBHUITEM_BAG_EX_INFO@@@std@@PAX@std@@@std@@@?$_Tree_val@U?$_Tree_simple_types@U?$pair@$$CBHUITEM_BAG_EX_INFO@@@std@@@std@@@std@@QAEXAAV?$allocator@U?$_Tree_node@U?$pair@$$CBHUITEM_BAG_EX_INFO@@@std@@PAX@std@@@1@PAU?$_Tree_node@U?$pair@$$CBHUITEM_BAG_EX_INFO@@@std@@PAX@1@@Z 0047e7b0 f i ItemBagEx.obj
 0001:0007d7b0       ??$_Erase_tree_and_orphan@V?$allocator@U?$_Tree_node@U?$pair@$$CBHUITEM_BAG_EX_INFO@@@std@@PAX@std@@@std@@@?$_Tree_val@U?$_Tree_simple_types@U?$pair@$$CBHUITEM_BAG_EX_INFO@@@std@@@std@@@std@@QAEXAAV?$allocator@U?$_Tree_node@U?$pair@$$CBHUITEM_BAG_EX_INFO@@@std@@PAX@std@@@1@PAU?$_Tree_node@U?$pair@$$CBHUITEM_BAG_EX_INFO@@@std@@PAX@1@@Z 0047e7b0 f i ItemBagManager.obj
 0001:0007d800       ??$_Emplace_reallocate@ABUITEM_BAG_EX_DROP_INFO@@@?$vector@UITEM_BAG_EX_DROP_INFO@@V?$allocator@UITEM_BAG_EX_DROP_INFO@@@std@@@std@@QAEPAUITEM_BAG_EX_DROP_INFO@@QAU2@ABU2@@Z 0047e800 f i ItemBagEx.obj
 0001:0007d9c0       ?_Buy_raw@?$vector@UITEM_BAG_EX_ITEM_INFO@@V?$allocator@UITEM_BAG_EX_ITEM_INFO@@@std@@@std@@AAEXI@Z 0047e9c0 f i ItemBagEx.obj
 0001:0007da50       ??1?$_Alloc_construct_ptr@V?$allocator@U?$_Tree_node@U?$pair@$$CBHV?$vector@UMONSTER_SET_BASE_INFO@@V?$allocator@UMONSTER_SET_BASE_INFO@@@std@@@std@@@std@@PAX@std@@@std@@@std@@QAE@XZ 0047ea50 f i MonsterSetBase.obj
 0001:0007da50       ??1?$_Alloc_construct_ptr@V?$allocator@U?$_Tree_node@U?$pair@$$CBHV?$vector@UITEM_OPTION_INFO@@V?$allocator@UITEM_OPTION_INFO@@@std@@@std@@@std@@PAX@std@@@std@@@std@@QAE@XZ 0047ea50 f i ItemOption.obj
 0001:0007da50       ??1?$_Alloc_construct_ptr@V?$allocator@U?$_Tree_node@U?$pair@$$CBHUITEM_OPTION1_RATE_INFO@@@std@@PAX@std@@@std@@@std@@QAE@XZ 0047ea50 f i ItemOptionRate.obj
 0001:0007da50       ??1?$_Alloc_construct_ptr@V?$allocator@U?$_Tree_node@U?$pair@$$CBHUITEM_OPTION2_RATE_INFO@@@std@@PAX@std@@@std@@@std@@QAE@XZ 0047ea50 f i ItemOptionRate.obj
 0001:0007da50       ??1?$_Alloc_construct_ptr@V?$allocator@U?$_Tree_node@U?$pair@$$CBHV?$vector@UITEM_BAG_EX_ITEM_INFO@@V?$allocator@UITEM_BAG_EX_ITEM_INFO@@@std@@@std@@@std@@PAX@std@@@std@@@std@@QAE@XZ 0047ea50 f i ItemBagEx.obj
 0001:0007da50       ??1?$_Alloc_construct_ptr@V?$allocator@U?$_Tree_node@U?$pair@$$CBHUZEN_DROP@@@std@@PAX@std@@@std@@@std@@QAE@XZ 0047ea50 f i ZenDrop.obj
 0001:0007da70       ??_GCItemBagManager@@UAEPAXI@Z 0047ea70 f i ItemBagManager.obj
 0001:0007da70       ??_ECItemBagManager@@UAEPAXI@Z 0047ea70 f i * CIL library *:* CIL module *
 0001:0007dad0       ?Load@CItemBagManager@@QAEXPAD@Z 0047ead0 f   ItemBagManager.obj
 0001:0007e040       ??1ITEM_BAG_MANAGER_INFO@@QAE@XZ 0047f040 f i ItemBagManager.obj
 0001:0007e050       ??1?$pair@HUITEM_BAG_MANAGER_INFO@@@std@@QAE@XZ 0047f050 f i ItemBagManager.obj
 0001:0007e060       ?LoadEventItemBag@CItemBagManager@@QAEXXZ 0047f060 f   ItemBagManager.obj
 0001:0007e3c0       ??1?$map@HHU?$less@H@std@@V?$allocator@U?$pair@$$CBHH@std@@@2@@std@@QAE@XZ 0047f3c0 f i ItemBagManager.obj
 0001:0007e3d0       ?GetItemBySpecialValue@CItemBagManager@@QAE_NHPAUOBJECTSTRUCT@@PAVCItem@@@Z 0047f3d0 f   ItemBagManager.obj
 0001:0007e450       ?DropItemByMonsterClass@CItemBagManager@@QAE_NHPAUOBJECTSTRUCT@@HHH@Z 0047f450 f   ItemBagManager.obj
 0001:0007e4e0       ?DropItemBySpecialValue@CItemBagManager@@QAE_NHPAUOBJECTSTRUCT@@HHH@Z 0047f4e0 f   ItemBagManager.obj
 0001:0007e570       ??C?$_Tree_iterator@V?$_Tree_val@U?$_Tree_simple_types@U?$pair@$$CBHUITEM_BAG_MANAGER_INFO@@@std@@@std@@@std@@@std@@QBEPAU?$pair@$$CBHUITEM_BAG_MANAGER_INFO@@@1@XZ 0047f570 f i ItemBagManager.obj
 0001:0007e580       ??0CItemBag@@QAE@ABV0@@Z   0047f580 f i ItemBagManager.obj
 0001:0007e610       ??0CItemBagEx@@QAE@ABV0@@Z 0047f610 f i ItemBagManager.obj
 0001:0007e7a0       ??$insert@U?$pair@HH@std@@$0A@@?$map@HHU?$less@H@std@@V?$allocator@U?$pair@$$CBHH@std@@@2@@std@@QAE?AU?$pair@V?$_Tree_iterator@V?$_Tree_val@U?$_Tree_simple_types@U?$pair@$$CBHH@std@@@std@@@std@@@std@@_N@1@$$QAU?$pair@HH@1@@Z 0047f7a0 f i ItemBagManager.obj
 0001:0007e890       ??$_Erase_tree@V?$allocator@U?$_Tree_node@U?$pair@$$CBHUITEM_BAG_MANAGER_INFO@@@std@@PAX@std@@@std@@@?$_Tree_val@U?$_Tree_simple_types@U?$pair@$$CBHUITEM_BAG_MANAGER_INFO@@@std@@@std@@@std@@QAEXAAV?$allocator@U?$_Tree_node@U?$pair@$$CBHUITEM_BAG_MANAGER_INFO@@@std@@PAX@std@@@1@PAU?$_Tree_node@U?$pair@$$CBHUITEM_BAG_MANAGER_INFO@@@std@@PAX@1@@Z 0047f890 f i ItemBagManager.obj
 0001:0007e900       ??1?$_Tree_head_scoped_ptr@V?$allocator@U?$_Tree_node@U?$pair@$$CBHUITEM_BAG_EX_INFO@@@std@@PAX@std@@@std@@V?$_Tree_val@U?$_Tree_simple_types@U?$pair@$$CBHUITEM_BAG_EX_INFO@@@std@@@std@@@2@@std@@QAE@XZ 0047f900 f i ItemBagManager.obj
 0001:0007e930       ??1?$_Tree_head_scoped_ptr@V?$allocator@U?$_Tree_node@U?$pair@$$CBHV?$vector@UMONSTER_SET_BASE_INFO@@V?$allocator@UMONSTER_SET_BASE_INFO@@@std@@@std@@@std@@PAX@std@@@std@@V?$_Tree_val@U?$_Tree_simple_types@U?$pair@$$CBHV?$vector@UMONSTER_SET_BASE_INFO@@V?$allocator@UMONSTER_SET_BASE_INFO@@@std@@@std@@@std@@@std@@@2@@std@@QAE@XZ 0047f930 f i MonsterSetBase.obj
 0001:0007e930       ??1?$_Tree_head_scoped_ptr@V?$allocator@U?$_Tree_node@U?$pair@$$CBHV?$vector@UITEM_BAG_EX_ITEM_INFO@@V?$allocator@UITEM_BAG_EX_ITEM_INFO@@@std@@@std@@@std@@PAX@std@@@std@@V?$_Tree_val@U?$_Tree_simple_types@U?$pair@$$CBHV?$vector@UITEM_BAG_EX_ITEM_INFO@@V?$allocator@UITEM_BAG_EX_ITEM_INFO@@@std@@@std@@@std@@@std@@@2@@std@@QAE@XZ 0047f930 f i ItemBagManager.obj
 0001:0007e960       ??1?$_Tree_temp_node_alloc@V?$allocator@U?$_Tree_node@U?$pair@$$CBHUITEM_BAG_MANAGER_INFO@@@std@@PAX@std@@@std@@@std@@QAE@XZ 0047f960 f i ItemBagManager.obj
 0001:0007e960       ??1?$_Alloc_construct_ptr@V?$allocator@U?$_Tree_node@U?$pair@$$CBHUITEM_BAG_MANAGER_INFO@@@std@@PAX@std@@@std@@@std@@QAE@XZ 0047f960 f i ItemBagManager.obj
 0001:0007e990       ??$_Copy_nodes@U_Copy_tag@?$_Tree@V?$_Tmap_traits@HV?$vector@UITEM_BAG_EX_ITEM_INFO@@V?$allocator@UITEM_BAG_EX_ITEM_INFO@@@std@@@std@@U?$less@H@2@V?$allocator@U?$pair@$$CBHV?$vector@UITEM_BAG_EX_ITEM_INFO@@V?$allocator@UITEM_BAG_EX_ITEM_INFO@@@std@@@std@@@std@@@2@$0A@@std@@@std@@@?$_Tree@V?$_Tmap_traits@HV?$vector@UITEM_BAG_EX_ITEM_INFO@@V?$allocator@UITEM_BAG_EX_ITEM_INFO@@@std@@@std@@U?$less@H@2@V?$allocator@U?$pair@$$CBHV?$vector@UITEM_BAG_EX_ITEM_INFO@@V?$allocator@UITEM_BAG_EX_ITEM_INFO@@@std@@@std@@@std@@@2@$0A@@std@@@std@@IAEPAU?$_Tree_node@U?$pair@$$CBHV?$vector@UITEM_BAG_EX_ITEM_INFO@@V?$allocator@UITEM_BAG_EX_ITEM_INFO@@@std@@@std@@@std@@PAX@1@PAU21@0U_Copy_tag@01@@Z 0047f990 f i ItemBagManager.obj
 0001:0007eae0       ??$_Copy_nodes@U_Copy_tag@?$_Tree@V?$_Tmap_traits@HUITEM_BAG_EX_INFO@@U?$less@H@std@@V?$allocator@U?$pair@$$CBHUITEM_BAG_EX_INFO@@@std@@@3@$0A@@std@@@std@@@?$_Tree@V?$_Tmap_traits@HUITEM_BAG_EX_INFO@@U?$less@H@std@@V?$allocator@U?$pair@$$CBHUITEM_BAG_EX_INFO@@@std@@@3@$0A@@std@@@std@@IAEPAU?$_Tree_node@U?$pair@$$CBHUITEM_BAG_EX_INFO@@@std@@PAX@1@PAU21@0U_Copy_tag@01@@Z 0047fae0 f i ItemBagManager.obj
 0001:0007ebe0       ??_ECItemDrop@@UAEPAXI@Z   0047fbe0 f i * CIL library *:* CIL module *
 0001:0007ebe0       ??_GCItemDrop@@UAEPAXI@Z   0047fbe0 f i ItemDrop.obj
 0001:0007ec10       ?Load@CItemDrop@@QAEXPAD@Z 0047fc10 f   ItemDrop.obj
 0001:0007eec0       ?DropItem@CItemDrop@@QAEHPAUOBJECTSTRUCT@@0@Z 0047fec0 f   ItemDrop.obj
 0001:0007f250       ??1?$vector@UTELEPORTS_COMMAND_DATA@@V?$allocator@UTELEPORTS_COMMAND_DATA@@@std@@@std@@QAE@XZ 00480250 f i NPCTeleport.obj
 0001:0007f250       ??1?$vector@URESET_TABLE_INFO@@V?$allocator@URESET_TABLE_INFO@@@std@@@std@@QAE@XZ 00480250 f i ResetTable.obj
 0001:0007f250       ??1?$vector@UBOTS_DATA@@V?$allocator@UBOTS_DATA@@@std@@@std@@QAE@XZ 00480250 f i MonsterSpawn.obj
 0001:0007f250       ??1?$vector@UITEM_DROP_INFO@@V?$allocator@UITEM_DROP_INFO@@@std@@@std@@QAE@XZ 00480250 f i ItemDrop.obj
 0001:0007f2b0       ??$_Emplace_reallocate@ABUBOTS_DATA@@@?$vector@UBOTS_DATA@@V?$allocator@UBOTS_DATA@@@std@@@std@@QAEPAUBOTS_DATA@@QAU2@ABU2@@Z 004802b0 f i MonsterSpawn.obj
 0001:0007f2b0       ??$_Emplace_reallocate@ABURESET_TABLE_INFO@@@?$vector@URESET_TABLE_INFO@@V?$allocator@URESET_TABLE_INFO@@@std@@@std@@QAEPAURESET_TABLE_INFO@@QAU2@ABU2@@Z 004802b0 f i ResetTable.obj
 0001:0007f2b0       ??$_Emplace_reallocate@ABUITEM_DROP_INFO@@@?$vector@UITEM_DROP_INFO@@V?$allocator@UITEM_DROP_INFO@@@std@@@std@@QAEPAUITEM_DROP_INFO@@QAU2@ABU2@@Z 004802b0 f i ItemDrop.obj
 0001:0007f2b0       ??$_Emplace_reallocate@ABUTELEPORTS_COMMAND_DATA@@@?$vector@UTELEPORTS_COMMAND_DATA@@V?$allocator@UTELEPORTS_COMMAND_DATA@@@std@@@std@@QAEPAUTELEPORTS_COMMAND_DATA@@QAU2@ABU2@@Z 004802b0 f i NPCTeleport.obj
 0001:0007f430       ??_ECItemManager@@UAEPAXI@Z 00480430 f i * CIL library *:* CIL module *
 0001:0007f430       ??_GCItemManager@@UAEPAXI@Z 00480430 f i ItemManager.obj
 0001:0007f460       ?Load@CItemManager@@QAEXPAD@Z 00480460 f   ItemManager.obj
 0001:0007fc70       ?GetItemDurability@CItemManager@@QAEHHHHH@Z 00480c70 f   ItemManager.obj
 0001:0007fe50       ?GetItemRepairMoney@CItemManager@@QAEHPAVCItem@@H@Z 00480e50 f   ItemManager.obj
 0001:00080030       ?GetInventoryItemSlot@CItemManager@@QAEHPAUOBJECTSTRUCT@@HH@Z 00481030 f   ItemManager.obj
 0001:000800b0       ?GetInventoryItemCount@CItemManager@@QAEHPAUOBJECTSTRUCT@@HH@Z 004810b0 f   ItemManager.obj
 0001:00080140       ?GetInventoryMaxValue@CItemManager@@QAEHPAUOBJECTSTRUCT@@@Z 00481140 f   ItemManager.obj
 0001:000801a0       ?CheckItemRequireClass@CItemManager@@QAE_NPAUOBJECTSTRUCT@@H@Z 004811a0 f   ItemManager.obj
 0001:00080260       ?CheckItemMoveToInventory@CItemManager@@QAE_NPAUOBJECTSTRUCT@@PAVCItem@@H@Z 00481260 f   ItemManager.obj
 0001:00080560       ?CheckItemMoveToTrade@CItemManager@@QAE_NPAUOBJECTSTRUCT@@PAVCItem@@E@Z 00481560 f   ItemManager.obj
 0001:00080600       ?CheckItemMoveToBlock@CItemManager@@QAE_NPAUOBJECTSTRUCT@@PAVCItem@@@Z 00481600 f   ItemManager.obj
 0001:00080720       ?CheckItemInventorySpace@CItemManager@@QAE_NPAUOBJECTSTRUCT@@H@Z 00481720 f   ItemManager.obj
 0001:000807e0       ?CheckItemInventorySpace@CItemManager@@QAE_NPAUOBJECTSTRUCT@@HH@Z 004817e0 f   ItemManager.obj
 0001:00080860       ?InventoryItemSet@CItemManager@@QAEXHHE@Z 00481860 f   ItemManager.obj
 0001:00080a50       ?InventoryRectCheck@CItemManager@@QAEEHHHHH@Z 00481a50 f   ItemManager.obj
 0001:00080b70       ?InventoryInsertItem@CItemManager@@QAEEHVCItem@@@Z 00481b70 f   ItemManager.obj
 0001:00080c80       ?InventoryAddItem@CItemManager@@QAEEHVCItem@@H@Z 00481c80 f   ItemManager.obj
 0001:00080e30       ?InventoryDelItem@CItemManager@@QAEXHH@Z 00481e30 f   ItemManager.obj
 0001:00081010       ?InventoryInsertItemStack@CItemManager@@QAE_NPAUOBJECTSTRUCT@@PAVCItem@@@Z 00482010 f   ItemManager.obj
 0001:00081220       ?InventoryAddItemStack@CItemManager@@QAE_NPAUOBJECTSTRUCT@@HH@Z 00482220 f   ItemManager.obj
 0001:00081450       ?InventoryCheckInsertItem@CItemManager@@QAEEHG@Z 00482450 f   ItemManager.obj
 0001:00081510       ?TradeItemSet@CItemManager@@QAEXHHE@Z 00482510 f   ItemManager.obj
 0001:00081610       ?TradeRectCheck@CItemManager@@QAEEHHHHH@Z 00482610 f   ItemManager.obj
 0001:00081690       ?TradeAddItem@CItemManager@@QAEEHVCItem@@H@Z 00482690 f   ItemManager.obj
 0001:000817a0       ?WarehouseItemSet@CItemManager@@QAEXHHE@Z 004827a0 f   ItemManager.obj
 0001:000818d0       ?WarehouseRectCheck@CItemManager@@QAEEHHHHH@Z 004828d0 f   ItemManager.obj
 0001:00081980       ?WarehouseAddItem@CItemManager@@QAEEHVCItem@@H@Z 00482980 f   ItemManager.obj
 0001:00081aa0       ?GuildWarehouseItemSet@CItemManager@@QAEXHHE@Z 00482aa0 f   ItemManager.obj
 0001:00081bd0       ?GuildWarehouseAddItem@CItemManager@@QAEEHVCItem@@H@Z 00482bd0 f   ItemManager.obj
 0001:00081d60       ?ChaosBoxItemSet@CItemManager@@QAEXHHE@Z 00482d60 f   ItemManager.obj
 0001:00081e60       ?ChaosBoxRectCheck@CItemManager@@QAEEHHHHH@Z 00482e60 f   ItemManager.obj
 0001:00081ee0       ?ChaosBoxAddItem@CItemManager@@QAEEHVCItem@@H@Z 00482ee0 f   ItemManager.obj
 0001:00082000       ?ItemByteConvert@CItemManager@@QAEXPAEVCItem@@@Z 00483000 f   ItemManager.obj
 0001:000820c0       ?DBItemByteConvert@CItemManager@@QAEXPAEPAVCItem@@@Z 004830c0 f   ItemManager.obj
 0001:00082220       ?ConvertItemByte@CItemManager@@QAE_NPAVCItem@@PAE@Z 00483220 f   ItemManager.obj
 0001:00082450       ?IsValidItem@CItemManager@@QAE_NPAUOBJECTSTRUCT@@PAVCItem@@@Z 00483450 f   ItemManager.obj
 0001:00082540       ?UpdateInventoryViewport@CItemManager@@QAEXHH@Z 00483540 f   ItemManager.obj
 0001:00082680       ?DeleteInventoryItemCount@CItemManager@@QAEXPAUOBJECTSTRUCT@@HHH@Z 00483680 f   ItemManager.obj
 0001:000827e0       ?DecreaseItemDur@CItemManager@@QAEXPAUOBJECTSTRUCT@@HH@Z 004837e0 f   ItemManager.obj
 0001:000828a0       ?RepairItem@CItemManager@@QAEHPAUOBJECTSTRUCT@@PAVCItem@@HH@Z 004838a0 f   ItemManager.obj
 0001:00082b40       ?MoveItemToInventoryFromInventory@CItemManager@@QAEEPAUOBJECTSTRUCT@@EEE@Z 00483b40 f   ItemManager.obj
 0001:00082d10       ?MoveItemToInventoryFromTrade@CItemManager@@QAEEPAUOBJECTSTRUCT@@EEE@Z 00483d10 f   ItemManager.obj
 0001:00082ee0       ?MoveItemToInventoryFromWarehouse@CItemManager@@QAEEPAUOBJECTSTRUCT@@EEE@Z 00483ee0 f   ItemManager.obj
 0001:00083150       ?MoveItemToWarehouseFromInventory@CItemManager@@QAEEPAUOBJECTSTRUCT@@EEE@Z 00484150 f   ItemManager.obj
 0001:00083310       ?MoveItemToWarehouseFromWarehouse@CItemManager@@QAEEPAUOBJECTSTRUCT@@EEE@Z 00484310 f   ItemManager.obj
 0001:00083510       ?MoveItemToChaosBoxFromInventory@CItemManager@@QAEEPAUOBJECTSTRUCT@@EEE@Z 00484510 f   ItemManager.obj
 0001:00083670       ?CGItemGetRecv@CItemManager@@QAEXPAUPMSG_ITEM_GET_RECV@@H@Z 00484670 f   ItemManager.obj
 0001:000845d0       ?CGItemDropRecv@CItemManager@@QAEXPAUPMSG_ITEM_DROP_RECV@@H@Z 004855d0 f   ItemManager.obj
 0001:00084ba0       ?CGItemMoveRecv@CItemManager@@QAEXPAUPMSG_ITEM_MOVE_RECV@@H@Z 00485ba0 f   ItemManager.obj
 0001:00085a50       ?CGItemUseRecv@CItemManager@@QAEXPAUPMSG_ITEM_USE_RECV@@H@Z 00486a50 f   ItemManager.obj
 0001:000864f0       ?CGItemBuyRecv@CItemManager@@QAEXPAUPMSG_ITEM_BUY_RECV@@H@Z 004874f0 f   ItemManager.obj
 0001:00086d90       ?CGItemBuyRecvCallback@CItemManager@@SAXPAUOBJECTSTRUCT@@EKKKK@Z 00487d90 f   ItemManager.obj
 0001:00087d50       ?CGItemSellRecv@CItemManager@@QAEXPAUPMSG_ITEM_SELL_RECV@@H@Z 00488d50 f   ItemManager.obj
 0001:00088670       ?CGItemRepairRecv@CItemManager@@QAEXPAUPMSG_ITEM_REPAIR_RECV@@H@Z 00489670 f   ItemManager.obj
 0001:00088820       ?GCItemDeleteSend@CItemManager@@QAEXHEE@Z 00489820 f   ItemManager.obj
 0001:00088860       ?GCItemListSend@CItemManager@@QAEXH@Z 00489860 f   ItemManager.obj
 0001:000889c0       ?CGMoveItemProc@CItemManager@@QAEXPAUPMSG_MOVEITEM@@F@Z 004899c0 f   ItemManager.obj
 0001:000890f0       ?clear@?$_Tree@V?$_Tmap_traits@HUITEM_INFO@@U?$less@H@std@@V?$allocator@U?$pair@$$CBHUITEM_INFO@@@std@@@3@$0A@@std@@@std@@QAEXXZ 0048a0f0 f i ItemManager.obj
 0001:00089140       ??1?$_Tree@V?$_Tmap_traits@HUITEM_INFO@@U?$less@H@std@@V?$allocator@U?$pair@$$CBHUITEM_INFO@@@std@@@3@$0A@@std@@@std@@QAE@XZ 0048a140 f i ItemManager.obj
 0001:00089190       ??$_Erase_tree@V?$allocator@U?$_Tree_node@U?$pair@$$CBHUITEM_INFO@@@std@@PAX@std@@@std@@@?$_Tree_val@U?$_Tree_simple_types@U?$pair@$$CBHUITEM_INFO@@@std@@@std@@@std@@QAEXAAV?$allocator@U?$_Tree_node@U?$pair@$$CBHUITEM_INFO@@@std@@PAX@std@@@1@PAU?$_Tree_node@U?$pair@$$CBHUITEM_INFO@@@std@@PAX@1@@Z 0048a190 f i ItemManager.obj
 0001:000891d0       ??1?$_Alloc_construct_ptr@V?$allocator@U?$_Tree_node@U?$pair@$$CBHUITEM_INFO@@@std@@PAX@std@@@std@@@std@@QAE@XZ 0048a1d0 f i ItemManager.obj
 0001:000891f0       ?DGAnsItemList@CItemMarket@@QAEXPAUSDHP_ANS_MARKET_ITEM@@@Z 0048a1f0 f   ItemMarket.obj
 0001:00089410       ?DGAnsItemBuy@CItemMarket@@QAEXPAUSDHP_ANS_MARKET_BUY@@@Z 0048a410 f   ItemMarket.obj
 0001:000896e0       ??_ECItemMove@@UAEPAXI@Z   0048a6e0 f i * CIL library *:* CIL module *
 0001:000896e0       ??_GCItemMove@@UAEPAXI@Z   0048a6e0 f i ItemMove.obj
 0001:00089710       ?Load@CItemMove@@QAEXPAD@Z 0048a710 f   ItemMove.obj
 0001:00089970       ??_ECItemOption@@UAEPAXI@Z 0048a970 f i * CIL library *:* CIL module *
 0001:00089970       ??_GCItemOption@@UAEPAXI@Z 0048a970 f i ItemOption.obj
 0001:000899a0       ?Load@CItemOption@@QAEXPAD@Z 0048a9a0 f   ItemOption.obj
 0001:00089d40       ??1?$pair@HV?$vector@UITEM_OPTION_INFO@@V?$allocator@UITEM_OPTION_INFO@@@std@@@std@@@std@@QAE@XZ 0048ad40 f i ItemOption.obj
 0001:00089d50       ?GetItemOption@CItemOption@@QAE_NHPAVCItem@@@Z 0048ad50 f   ItemOption.obj
 0001:00089fb0       ?CalcItemCommonOption@CItemOption@@QAEXPAUOBJECTSTRUCT@@_N@Z 0048afb0 f   ItemOption.obj
 0001:0008a020       ?InsertOption@CItemOption@@QAEXPAUOBJECTSTRUCT@@PAVCItem@@_N@Z 0048b020 f   ItemOption.obj
 0001:0008a6f0       ??1?$vector@UITEM_OPTION_INFO@@V?$allocator@UITEM_OPTION_INFO@@@std@@@std@@QAE@XZ 0048b6f0 f i ItemOption.obj
 0001:0008a700       ?clear@?$_Tree@V?$_Tmap_traits@HV?$vector@UITEM_OPTION_INFO@@V?$allocator@UITEM_OPTION_INFO@@@std@@@std@@U?$less@H@2@V?$allocator@U?$pair@$$CBHV?$vector@UITEM_OPTION_INFO@@V?$allocator@UITEM_OPTION_INFO@@@std@@@std@@@std@@@2@$0A@@std@@@std@@QAEXXZ 0048b700 f i ItemOption.obj
 0001:0008a770       ??1?$_Tree@V?$_Tmap_traits@HV?$vector@UITEM_OPTION_INFO@@V?$allocator@UITEM_OPTION_INFO@@@std@@@std@@U?$less@H@2@V?$allocator@U?$pair@$$CBHV?$vector@UITEM_OPTION_INFO@@V?$allocator@UITEM_OPTION_INFO@@@std@@@std@@@std@@@2@$0A@@std@@@std@@QAE@XZ 0048b770 f i ItemOption.obj
 0001:0008a7c0       ??$_Erase_tree@V?$allocator@U?$_Tree_node@U?$pair@$$CBHV?$vector@UITEM_OPTION_INFO@@V?$allocator@UITEM_OPTION_INFO@@@std@@@std@@@std@@PAX@std@@@std@@@?$_Tree_val@U?$_Tree_simple_types@U?$pair@$$CBHV?$vector@UITEM_OPTION_INFO@@V?$allocator@UITEM_OPTION_INFO@@@std@@@std@@@std@@@std@@@std@@QAEXAAV?$allocator@U?$_Tree_node@U?$pair@$$CBHV?$vector@UITEM_OPTION_INFO@@V?$allocator@UITEM_OPTION_INFO@@@std@@@std@@@std@@PAX@std@@@1@PAU?$_Tree_node@U?$pair@$$CBHV?$vector@UITEM_OPTION_INFO@@V?$allocator@UITEM_OPTION_INFO@@@std@@@std@@@std@@PAX@1@@Z 0048b7c0 f i ItemOption.obj
 0001:0008a810       ??0CItemOptionRate@@QAE@XZ 0048b810 f   ItemOptionRate.obj
 0001:0008aa40       ??_ECItemOptionRate@@UAEPAXI@Z 0048ba40 f i * CIL library *:* CIL module *
 0001:0008aa40       ??_GCItemOptionRate@@UAEPAXI@Z 0048ba40 f i ItemOptionRate.obj
 0001:0008aab0       ??1?$map@HUITEM_OPTION0_RATE_INFO@@U?$less@H@std@@V?$allocator@U?$pair@$$CBHUITEM_OPTION0_RATE_INFO@@@std@@@3@@std@@QAE@XZ 0048bab0 f i ItemOptionRate.obj
 0001:0008aab0       ??1?$map@HUPENTAGRAM_OPTION_INFO@@U?$less@H@std@@V?$allocator@U?$pair@$$CBHUPENTAGRAM_OPTION_INFO@@@std@@@3@@std@@QAE@XZ 0048bab0 f i PentagramSystem.obj
 0001:0008aac0       ??1?$map@HUPENTAGRAM_JEWEL_UPGRADE_RANK_INFO@@U?$less@H@std@@V?$allocator@U?$pair@$$CBHUPENTAGRAM_JEWEL_UPGRADE_RANK_INFO@@@std@@@3@@std@@QAE@XZ 0048bac0 f i PentagramSystem.obj
 0001:0008aac0       ??1?$map@HUITEM_OPTION2_RATE_INFO@@U?$less@H@std@@V?$allocator@U?$pair@$$CBHUITEM_OPTION2_RATE_INFO@@@std@@@3@@std@@QAE@XZ 0048bac0 f i ItemOptionRate.obj
 0001:0008aac0       ??1?$map@HUPENTAGRAM_TYPE_INFO@@U?$less@H@std@@V?$allocator@U?$pair@$$CBHUPENTAGRAM_TYPE_INFO@@@std@@@3@@std@@QAE@XZ 0048bac0 f i PentagramSystem.obj
 0001:0008aac0       ??1?$map@HUITEM_OPTION1_RATE_INFO@@U?$less@H@std@@V?$allocator@U?$pair@$$CBHUITEM_OPTION1_RATE_INFO@@@std@@@3@@std@@QAE@XZ 0048bac0 f i ItemOptionRate.obj
 0001:0008aad0       ??1?$map@HUITEM_OPTION3_RATE_INFO@@U?$less@H@std@@V?$allocator@U?$pair@$$CBHUITEM_OPTION3_RATE_INFO@@@std@@@3@@std@@QAE@XZ 0048bad0 f i ItemOptionRate.obj
 0001:0008aae0       ??1?$map@HUITEM_OPTION4_RATE_INFO@@U?$less@H@std@@V?$allocator@U?$pair@$$CBHUITEM_OPTION4_RATE_INFO@@@std@@@3@@std@@QAE@XZ 0048bae0 f i ItemOptionRate.obj
 0001:0008aaf0       ??1?$map@HUITEM_OPTION5_RATE_INFO@@U?$less@H@std@@V?$allocator@U?$pair@$$CBHUITEM_OPTION5_RATE_INFO@@@std@@@3@@std@@QAE@XZ 0048baf0 f i ItemOptionRate.obj
 0001:0008ab00       ??1?$map@HUITEM_OPTION6_RATE_INFO@@U?$less@H@std@@V?$allocator@U?$pair@$$CBHUITEM_OPTION6_RATE_INFO@@@std@@@3@@std@@QAE@XZ 0048bb00 f i ItemOptionRate.obj
 0001:0008ab10       ?Load@CItemOptionRate@@QAEXPAD@Z 0048bb10 f   ItemOptionRate.obj
 0001:0008b840       ?GetItemOption0@CItemOptionRate@@QAE_NHPAE@Z 0048c840 f   ItemOptionRate.obj
 0001:0008b990       ?GetItemOption1@CItemOptionRate@@QAE_NHPAE@Z 0048c990 f   ItemOptionRate.obj
 0001:0008bae0       ?GetItemOption2@CItemOptionRate@@QAE_NHPAE@Z 0048cae0 f   ItemOptionRate.obj
 0001:0008bc30       ?GetItemOption3@CItemOptionRate@@QAE_NHPAE@Z 0048cc30 f   ItemOptionRate.obj
 0001:0008bd80       ?GetItemOption4@CItemOptionRate@@QAE_NHPAE@Z 0048cd80 f   ItemOptionRate.obj
 0001:0008bed0       ?GetItemOption5@CItemOptionRate@@QAE_NHPAE@Z 0048ced0 f   ItemOptionRate.obj
 0001:0008c020       ?GetItemOption6@CItemOptionRate@@QAE_NHPAE@Z 0048d020 f   ItemOptionRate.obj
 0001:0008c170       ?MakeNewOption@CItemOptionRate@@QAE_NHHPAEH@Z 0048d170 f   ItemOptionRate.obj
 0001:0008c3f0       ?MakeSetOption@CItemOptionRate@@QAE_NHHPAE@Z 0048d3f0 f   ItemOptionRate.obj
 0001:0008c4b0       ?MakeSocketOption@CItemOptionRate@@QAE_NHHPAE@Z 0048d4b0 f   ItemOptionRate.obj
 0001:0008c610       ?clear@?$_Tree@V?$_Tmap_traits@HUITEM_OPTION6_RATE_INFO@@U?$less@H@std@@V?$allocator@U?$pair@$$CBHUITEM_OPTION6_RATE_INFO@@@std@@@3@$0A@@std@@@std@@QAEXXZ 0048d610 f i ItemOptionRate.obj
 0001:0008c610       ?clear@?$_Tree@V?$_Tmap_traits@HUITEM_EXCELLENT_RATE_INFO@@U?$less@H@std@@V?$allocator@U?$pair@$$CBHUITEM_EXCELLENT_RATE_INFO@@@std@@@3@$0A@@std@@@std@@QAEXXZ 0048d610 f i ItemOptionRate.obj
 0001:0008c660       ??1?$_Tree@V?$_Tmap_traits@HUITEM_OPTION6_RATE_INFO@@U?$less@H@std@@V?$allocator@U?$pair@$$CBHUITEM_OPTION6_RATE_INFO@@@std@@@3@$0A@@std@@@std@@QAE@XZ 0048d660 f i ItemOptionRate.obj
 0001:0008c660       ??1?$_Tree@V?$_Tmap_traits@HUITEM_EXCELLENT_RATE_INFO@@U?$less@H@std@@V?$allocator@U?$pair@$$CBHUITEM_EXCELLENT_RATE_INFO@@@std@@@3@$0A@@std@@@std@@QAE@XZ 0048d660 f i ItemOptionRate.obj
 0001:0008c660       ??1?$_Tree@V?$_Tmap_traits@HUPENTAGRAM_JEWEL_UPGRADE_LEVEL_INFO@@U?$less@H@std@@V?$allocator@U?$pair@$$CBHUPENTAGRAM_JEWEL_UPGRADE_LEVEL_INFO@@@std@@@3@$0A@@std@@@std@@QAE@XZ 0048d660 f i PentagramSystem.obj
 0001:0008c6a0       ?clear@?$_Tree@V?$_Tmap_traits@HUITEM_OPTION5_RATE_INFO@@U?$less@H@std@@V?$allocator@U?$pair@$$CBHUITEM_OPTION5_RATE_INFO@@@std@@@3@$0A@@std@@@std@@QAEXXZ 0048d6a0 f i ItemOptionRate.obj
 0001:0008c6f0       ??1?$_Tree@V?$_Tmap_traits@HUITEM_OPTION5_RATE_INFO@@U?$less@H@std@@V?$allocator@U?$pair@$$CBHUITEM_OPTION5_RATE_INFO@@@std@@@3@$0A@@std@@@std@@QAE@XZ 0048d6f0 f i ItemOptionRate.obj
 0001:0008c730       ?clear@?$_Tree@V?$_Tmap_traits@HUITEM_OPTION4_RATE_INFO@@U?$less@H@std@@V?$allocator@U?$pair@$$CBHUITEM_OPTION4_RATE_INFO@@@std@@@3@$0A@@std@@@std@@QAEXXZ 0048d730 f i ItemOptionRate.obj
 0001:0008c780       ??1?$_Tree@V?$_Tmap_traits@HUITEM_OPTION4_RATE_INFO@@U?$less@H@std@@V?$allocator@U?$pair@$$CBHUITEM_OPTION4_RATE_INFO@@@std@@@3@$0A@@std@@@std@@QAE@XZ 0048d780 f i ItemOptionRate.obj
 0001:0008c7c0       ?clear@?$_Tree@V?$_Tmap_traits@HUITEM_OPTION3_RATE_INFO@@U?$less@H@std@@V?$allocator@U?$pair@$$CBHUITEM_OPTION3_RATE_INFO@@@std@@@3@$0A@@std@@@std@@QAEXXZ 0048d7c0 f i ItemOptionRate.obj
 0001:0008c810       ??1?$_Tree@V?$_Tmap_traits@HUITEM_OPTION3_RATE_INFO@@U?$less@H@std@@V?$allocator@U?$pair@$$CBHUITEM_OPTION3_RATE_INFO@@@std@@@3@$0A@@std@@@std@@QAE@XZ 0048d810 f i ItemOptionRate.obj
 0001:0008c850       ?clear@?$_Tree@V?$_Tmap_traits@HUITEM_OPTION1_RATE_INFO@@U?$less@H@std@@V?$allocator@U?$pair@$$CBHUITEM_OPTION1_RATE_INFO@@@std@@@3@$0A@@std@@@std@@QAEXXZ 0048d850 f i ItemOptionRate.obj
 0001:0008c850       ?clear@?$_Tree@V?$_Tmap_traits@HUITEM_OPTION2_RATE_INFO@@U?$less@H@std@@V?$allocator@U?$pair@$$CBHUITEM_OPTION2_RATE_INFO@@@std@@@3@$0A@@std@@@std@@QAEXXZ 0048d850 f i ItemOptionRate.obj
 0001:0008c8a0       ??1?$_Tree@V?$_Tmap_traits@HUITEM_OPTION2_RATE_INFO@@U?$less@H@std@@V?$allocator@U?$pair@$$CBHUITEM_OPTION2_RATE_INFO@@@std@@@3@$0A@@std@@@std@@QAE@XZ 0048d8a0 f i ItemOptionRate.obj
 0001:0008c8a0       ??1?$_Tree@V?$_Tmap_traits@HUITEM_OPTION1_RATE_INFO@@U?$less@H@std@@V?$allocator@U?$pair@$$CBHUITEM_OPTION1_RATE_INFO@@@std@@@3@$0A@@std@@@std@@QAE@XZ 0048d8a0 f i ItemOptionRate.obj
 0001:0008c8a0       ??1?$_Tree@V?$_Tmap_traits@HUPENTAGRAM_TYPE_INFO@@U?$less@H@std@@V?$allocator@U?$pair@$$CBHUPENTAGRAM_TYPE_INFO@@@std@@@3@$0A@@std@@@std@@QAE@XZ 0048d8a0 f i PentagramSystem.obj
 0001:0008c8a0       ??1?$_Tree@V?$_Tmap_traits@HUPENTAGRAM_JEWEL_UPGRADE_RANK_INFO@@U?$less@H@std@@V?$allocator@U?$pair@$$CBHUPENTAGRAM_JEWEL_UPGRADE_RANK_INFO@@@std@@@3@$0A@@std@@@std@@QAE@XZ 0048d8a0 f i PentagramSystem.obj
 0001:0008c8a0       ??1?$_Tree@V?$_Tmap_traits@HUZEN_DROP@@U?$less@H@std@@V?$allocator@U?$pair@$$CBHUZEN_DROP@@@std@@@3@$0A@@std@@@std@@QAE@XZ 0048d8a0 f i ZenDrop.obj
 0001:0008c8e0       ?clear@?$_Tree@V?$_Tmap_traits@HUITEM_OPTION0_RATE_INFO@@U?$less@H@std@@V?$allocator@U?$pair@$$CBHUITEM_OPTION0_RATE_INFO@@@std@@@3@$0A@@std@@@std@@QAEXXZ 0048d8e0 f i ItemOptionRate.obj
 0001:0008c8e0       ?clear@?$_Tree@V?$_Tmap_traits@HUMAP_MANAGER_INFO@@U?$less@H@std@@V?$allocator@U?$pair@$$CBHUMAP_MANAGER_INFO@@@std@@@3@$0A@@std@@@std@@QAEXXZ 0048d8e0 f i MapManager.obj
 0001:0008c930       ??1?$_Tree@V?$_Tmap_traits@HUMAP_MANAGER_INFO@@U?$less@H@std@@V?$allocator@U?$pair@$$CBHUMAP_MANAGER_INFO@@@std@@@3@$0A@@std@@@std@@QAE@XZ 0048d930 f i MapManager.obj
 0001:0008c930       ??1?$_Tree@V?$_Tmap_traits@HUMAP_INFO@@U?$less@H@std@@V?$allocator@U?$pair@$$CBHUMAP_INFO@@@std@@@3@$0A@@std@@@std@@QAE@XZ 0048d930 f i Message.obj
 0001:0008c930       ??1?$_Tree@V?$_Tmap_traits@HUITEM_OPTION0_RATE_INFO@@U?$less@H@std@@V?$allocator@U?$pair@$$CBHUITEM_OPTION0_RATE_INFO@@@std@@@3@$0A@@std@@@std@@QAE@XZ 0048d930 f i ItemOptionRate.obj
 0001:0008c930       ??1?$_Tree@V?$_Tmap_traits@HUPENTAGRAM_OPTION_INFO@@U?$less@H@std@@V?$allocator@U?$pair@$$CBHUPENTAGRAM_OPTION_INFO@@@std@@@3@$0A@@std@@@std@@QAE@XZ 0048d930 f i PentagramSystem.obj
 0001:0008c970       ??$_Erase_tree@V?$allocator@U?$_Tree_node@U?$pair@$$CBHUITEM_EXCELLENT_RATE_INFO@@@std@@PAX@std@@@std@@@?$_Tree_val@U?$_Tree_simple_types@U?$pair@$$CBHUITEM_EXCELLENT_RATE_INFO@@@std@@@std@@@std@@QAEXAAV?$allocator@U?$_Tree_node@U?$pair@$$CBHUITEM_EXCELLENT_RATE_INFO@@@std@@PAX@std@@@1@PAU?$_Tree_node@U?$pair@$$CBHUITEM_EXCELLENT_RATE_INFO@@@std@@PAX@1@@Z 0048d970 f i ItemOptionRate.obj
 0001:0008c970       ??$_Erase_tree@V?$allocator@U?$_Tree_node@U?$pair@$$CBHUPENTAGRAM_JEWEL_UPGRADE_LEVEL_INFO@@@std@@PAX@std@@@std@@@?$_Tree_val@U?$_Tree_simple_types@U?$pair@$$CBHUPENTAGRAM_JEWEL_UPGRADE_LEVEL_INFO@@@std@@@std@@@std@@QAEXAAV?$allocator@U?$_Tree_node@U?$pair@$$CBHUPENTAGRAM_JEWEL_UPGRADE_LEVEL_INFO@@@std@@PAX@std@@@1@PAU?$_Tree_node@U?$pair@$$CBHUPENTAGRAM_JEWEL_UPGRADE_LEVEL_INFO@@@std@@PAX@1@@Z 0048d970 f i PentagramSystem.obj
 0001:0008c970       ??$_Erase_tree@V?$allocator@U?$_Tree_node@U?$pair@$$CBHUITEM_OPTION6_RATE_INFO@@@std@@PAX@std@@@std@@@?$_Tree_val@U?$_Tree_simple_types@U?$pair@$$CBHUITEM_OPTION6_RATE_INFO@@@std@@@std@@@std@@QAEXAAV?$allocator@U?$_Tree_node@U?$pair@$$CBHUITEM_OPTION6_RATE_INFO@@@std@@PAX@std@@@1@PAU?$_Tree_node@U?$pair@$$CBHUITEM_OPTION6_RATE_INFO@@@std@@PAX@1@@Z 0048d970 f i ItemOptionRate.obj
 0001:0008c9b0       ??$_Erase_tree@V?$allocator@U?$_Tree_node@U?$pair@$$CBHUITEM_OPTION5_RATE_INFO@@@std@@PAX@std@@@std@@@?$_Tree_val@U?$_Tree_simple_types@U?$pair@$$CBHUITEM_OPTION5_RATE_INFO@@@std@@@std@@@std@@QAEXAAV?$allocator@U?$_Tree_node@U?$pair@$$CBHUITEM_OPTION5_RATE_INFO@@@std@@PAX@std@@@1@PAU?$_Tree_node@U?$pair@$$CBHUITEM_OPTION5_RATE_INFO@@@std@@PAX@1@@Z 0048d9b0 f i ItemOptionRate.obj
 0001:0008c9f0       ??$_Erase_tree@V?$allocator@U?$_Tree_node@U?$pair@$$CBHUITEM_OPTION4_RATE_INFO@@@std@@PAX@std@@@std@@@?$_Tree_val@U?$_Tree_simple_types@U?$pair@$$CBHUITEM_OPTION4_RATE_INFO@@@std@@@std@@@std@@QAEXAAV?$allocator@U?$_Tree_node@U?$pair@$$CBHUITEM_OPTION4_RATE_INFO@@@std@@PAX@std@@@1@PAU?$_Tree_node@U?$pair@$$CBHUITEM_OPTION4_RATE_INFO@@@std@@PAX@1@@Z 0048d9f0 f i ItemOptionRate.obj
 0001:0008ca30       ??$_Erase_tree@V?$allocator@U?$_Tree_node@U?$pair@$$CBHUITEM_OPTION3_RATE_INFO@@@std@@PAX@std@@@std@@@?$_Tree_val@U?$_Tree_simple_types@U?$pair@$$CBHUITEM_OPTION3_RATE_INFO@@@std@@@std@@@std@@QAEXAAV?$allocator@U?$_Tree_node@U?$pair@$$CBHUITEM_OPTION3_RATE_INFO@@@std@@PAX@std@@@1@PAU?$_Tree_node@U?$pair@$$CBHUITEM_OPTION3_RATE_INFO@@@std@@PAX@1@@Z 0048da30 f i ItemOptionRate.obj
 0001:0008ca70       ??$_Erase_tree@V?$allocator@U?$_Tree_node@U?$pair@$$CBHUITEM_OPTION1_RATE_INFO@@@std@@PAX@std@@@std@@@?$_Tree_val@U?$_Tree_simple_types@U?$pair@$$CBHUITEM_OPTION1_RATE_INFO@@@std@@@std@@@std@@QAEXAAV?$allocator@U?$_Tree_node@U?$pair@$$CBHUITEM_OPTION1_RATE_INFO@@@std@@PAX@std@@@1@PAU?$_Tree_node@U?$pair@$$CBHUITEM_OPTION1_RATE_INFO@@@std@@PAX@1@@Z 0048da70 f i ItemOptionRate.obj
 0001:0008ca70       ??$_Erase_tree@V?$allocator@U?$_Tree_node@U?$pair@$$CBHUZEN_DROP@@@std@@PAX@std@@@std@@@?$_Tree_val@U?$_Tree_simple_types@U?$pair@$$CBHUZEN_DROP@@@std@@@std@@@std@@QAEXAAV?$allocator@U?$_Tree_node@U?$pair@$$CBHUZEN_DROP@@@std@@PAX@std@@@1@PAU?$_Tree_node@U?$pair@$$CBHUZEN_DROP@@@std@@PAX@1@@Z 0048da70 f i ZenDrop.obj
 0001:0008ca70       ??$_Erase_tree@V?$allocator@U?$_Tree_node@U?$pair@$$CBHUPENTAGRAM_JEWEL_UPGRADE_RANK_INFO@@@std@@PAX@std@@@std@@@?$_Tree_val@U?$_Tree_simple_types@U?$pair@$$CBHUPENTAGRAM_JEWEL_UPGRADE_RANK_INFO@@@std@@@std@@@std@@QAEXAAV?$allocator@U?$_Tree_node@U?$pair@$$CBHUPENTAGRAM_JEWEL_UPGRADE_RANK_INFO@@@std@@PAX@std@@@1@PAU?$_Tree_node@U?$pair@$$CBHUPENTAGRAM_JEWEL_UPGRADE_RANK_INFO@@@std@@PAX@1@@Z 0048da70 f i PentagramSystem.obj
 0001:0008ca70       ??$_Erase_tree@V?$allocator@U?$_Tree_node@U?$pair@$$CBHUPENTAGRAM_TYPE_INFO@@@std@@PAX@std@@@std@@@?$_Tree_val@U?$_Tree_simple_types@U?$pair@$$CBHUPENTAGRAM_TYPE_INFO@@@std@@@std@@@std@@QAEXAAV?$allocator@U?$_Tree_node@U?$pair@$$CBHUPENTAGRAM_TYPE_INFO@@@std@@PAX@std@@@1@PAU?$_Tree_node@U?$pair@$$CBHUPENTAGRAM_TYPE_INFO@@@std@@PAX@1@@Z 0048da70 f i PentagramSystem.obj
 0001:0008ca70       ??$_Erase_tree@V?$allocator@U?$_Tree_node@U?$pair@$$CBHUITEM_OPTION2_RATE_INFO@@@std@@PAX@std@@@std@@@?$_Tree_val@U?$_Tree_simple_types@U?$pair@$$CBHUITEM_OPTION2_RATE_INFO@@@std@@@std@@@std@@QAEXAAV?$allocator@U?$_Tree_node@U?$pair@$$CBHUITEM_OPTION2_RATE_INFO@@@std@@PAX@std@@@1@PAU?$_Tree_node@U?$pair@$$CBHUITEM_OPTION2_RATE_INFO@@@std@@PAX@1@@Z 0048da70 f i ItemOptionRate.obj
 0001:0008cab0       ??$_Erase_tree@V?$allocator@U?$_Tree_node@U?$pair@$$CBHUMAP_MANAGER_INFO@@@std@@PAX@std@@@std@@@?$_Tree_val@U?$_Tree_simple_types@U?$pair@$$CBHUMAP_MANAGER_INFO@@@std@@@std@@@std@@QAEXAAV?$allocator@U?$_Tree_node@U?$pair@$$CBHUMAP_MANAGER_INFO@@@std@@PAX@std@@@1@PAU?$_Tree_node@U?$pair@$$CBHUMAP_MANAGER_INFO@@@std@@PAX@1@@Z 0048dab0 f i MapManager.obj
 0001:0008cab0       ??$_Erase_tree@V?$allocator@U?$_Tree_node@U?$pair@$$CBHUITEM_OPTION0_RATE_INFO@@@std@@PAX@std@@@std@@@?$_Tree_val@U?$_Tree_simple_types@U?$pair@$$CBHUITEM_OPTION0_RATE_INFO@@@std@@@std@@@std@@QAEXAAV?$allocator@U?$_Tree_node@U?$pair@$$CBHUITEM_OPTION0_RATE_INFO@@@std@@PAX@std@@@1@PAU?$_Tree_node@U?$pair@$$CBHUITEM_OPTION0_RATE_INFO@@@std@@PAX@1@@Z 0048dab0 f i ItemOptionRate.obj
 0001:0008cab0       ??$_Erase_tree@V?$allocator@U?$_Tree_node@U?$pair@$$CBHUPENTAGRAM_OPTION_INFO@@@std@@PAX@std@@@std@@@?$_Tree_val@U?$_Tree_simple_types@U?$pair@$$CBHUPENTAGRAM_OPTION_INFO@@@std@@@std@@@std@@QAEXAAV?$allocator@U?$_Tree_node@U?$pair@$$CBHUPENTAGRAM_OPTION_INFO@@@std@@PAX@std@@@1@PAU?$_Tree_node@U?$pair@$$CBHUPENTAGRAM_OPTION_INFO@@@std@@PAX@1@@Z 0048dab0 f i PentagramSystem.obj
 0001:0008cab0       ??$_Erase_tree@V?$allocator@U?$_Tree_node@U?$pair@$$CBHUMAP_INFO@@@std@@PAX@std@@@std@@@?$_Tree_val@U?$_Tree_simple_types@U?$pair@$$CBHUMAP_INFO@@@std@@@std@@@std@@QAEXAAV?$allocator@U?$_Tree_node@U?$pair@$$CBHUMAP_INFO@@@std@@PAX@std@@@1@PAU?$_Tree_node@U?$pair@$$CBHUMAP_INFO@@@std@@PAX@1@@Z 0048dab0 f i Message.obj
 0001:0008caf0       ??1?$_Alloc_construct_ptr@V?$allocator@U?$_Tree_node@U?$pair@$$CBHUITEM_OPTION5_RATE_INFO@@@std@@PAX@std@@@std@@@std@@QAE@XZ 0048daf0 f i ItemOptionRate.obj
 0001:0008cb10       ??1?$_Alloc_construct_ptr@V?$allocator@U?$_Tree_node@U?$pair@$$CBHUITEM_OPTION4_RATE_INFO@@@std@@PAX@std@@@std@@@std@@QAE@XZ 0048db10 f i ItemOptionRate.obj
 0001:0008cb30       ??1?$_Alloc_construct_ptr@V?$allocator@U?$_Tree_node@U?$pair@$$CBHUITEM_OPTION3_RATE_INFO@@@std@@PAX@std@@@std@@@std@@QAE@XZ 0048db30 f i ItemOptionRate.obj
 0001:0008cb50       ??1?$vector@UItemRank_Data@@V?$allocator@UItemRank_Data@@@std@@@std@@QAE@XZ 0048db50 f i ItemRank.obj
 0001:0008cbd0       ??$_Destroy_range@V?$allocator@UItemRank_Data@@@std@@@std@@YAXPAUItemRank_Data@@QAU1@AAV?$allocator@UItemRank_Data@@@0@@Z 0048dbd0 f i ItemRank.obj
 0001:0008cc40       ??_ECItemStack@@UAEPAXI@Z  0048dc40 f i * CIL library *:* CIL module *
 0001:0008cc40       ??_GCItemStack@@UAEPAXI@Z  0048dc40 f i ItemStack.obj
 0001:0008cc70       ?Load@CItemStack@@QAEXPAD@Z 0048dc70 f   ItemStack.obj
 0001:0008ce30       ?GetItemMaxStack@CItemStack@@QAEHHH@Z 0048de30 f   ItemStack.obj
 0001:0008ce80       ?GetCreateItemIndex@CItemStack@@QAEHHH@Z 0048de80 f   ItemStack.obj
 0001:0008ced0       ?Load@CItemToPoints@@QAEXPAD@Z 0048ded0 f   ItemToPoints.obj
 0001:0008d290       ?Tick@CItemToPoints@@QAEXPAUOBJECTSTRUCT@@@Z 0048e290 f   ItemToPoints.obj
 0001:0008d4a0       ??$_Emplace_reallocate@ABUItemToPointsData@@@?$vector@UItemToPointsData@@V?$allocator@UItemToPointsData@@@std@@@std@@QAEPAUItemToPointsData@@QAU2@ABU2@@Z 0048e4a0 f i ItemToPoints.obj
 0001:0008d620       ??_GCItemValue@@UAEPAXI@Z  0048e620 f i ItemValue.obj
 0001:0008d620       ??_ECItemValue@@UAEPAXI@Z  0048e620 f i * CIL library *:* CIL module *
 0001:0008d650       ?Load@CItemValue@@QAEXPAD@Z 0048e650 f   ItemValue.obj
 0001:0008d870       ??_ECJewelMix@@UAEPAXI@Z   0048e870 f i * CIL library *:* CIL module *
 0001:0008d870       ??_GCJewelMix@@UAEPAXI@Z   0048e870 f i JewelMix.obj
 0001:0008d8a0       ?GetJewelSimpleIndex@CJewelMix@@QAEHH@Z 0048e8a0 f   JewelMix.obj
 0001:0008d980       ?GetJewelBundleIndex@CJewelMix@@QAEHH@Z 0048e980 f   JewelMix.obj
 0001:0008da60       ?GetJewelBundleType@CJewelMix@@QAEHH@Z 0048ea60 f   JewelMix.obj
 0001:0008dbe0       ?CGJewelMixRecv@CJewelMix@@QAEXPAUPMSG_JEWEL_MIX_RECV@@H@Z 0048ebe0 f   JewelMix.obj
 0001:0008ddb0       ?CGJewelUnMixRecv@CJewelMix@@QAEXPAUPMSG_JEWEL_UNMIX_RECV@@H@Z 0048edb0 f   JewelMix.obj
 0001:0008e060       ??_ECJewelOfHarmonyOption@@UAEPAXI@Z 0048f060 f i * CIL library *:* CIL module *
 0001:0008e060       ??_GCJewelOfHarmonyOption@@UAEPAXI@Z 0048f060 f i JewelOfHarmonyOption.obj
 0001:0008e090       ?Init@CJewelOfHarmonyOption@@QAEXXZ 0048f090 f   JewelOfHarmonyOption.obj
 0001:0008e0d0       ?Load@CJewelOfHarmonyOption@@QAEXPAD@Z 0048f0d0 f   JewelOfHarmonyOption.obj
 0001:0008e310       ?GetJewelOfHarmonyItemOptionType@CJewelOfHarmonyOption@@QAEHPAVCItem@@@Z 0048f310 f   JewelOfHarmonyOption.obj
 0001:0008e380       ?GetJewelOfHarmonyRandomOption@CJewelOfHarmonyOption@@QAEHPAVCItem@@@Z 0048f380 f   JewelOfHarmonyOption.obj
 0001:0008e520       ?AddJewelOfHarmonyOption@CJewelOfHarmonyOption@@QAE_NPAUOBJECTSTRUCT@@HH@Z 0048f520 f   JewelOfHarmonyOption.obj
 0001:0008e730       ?AddSmeltStoneOption@CJewelOfHarmonyOption@@QAE_NPAUOBJECTSTRUCT@@HH@Z 0048f730 f   JewelOfHarmonyOption.obj
 0001:0008e910       ?AddJewelOfElevationOption@CJewelOfHarmonyOption@@QAE_NPAUOBJECTSTRUCT@@HH@Z 0048f910 f   JewelOfHarmonyOption.obj
 0001:0008ead0       ?CalcJewelOfHarmonyOption@CJewelOfHarmonyOption@@QAEXPAUOBJECTSTRUCT@@_N@Z 0048fad0 f   JewelOfHarmonyOption.obj
 0001:0008ebc0       ?InsertOption@CJewelOfHarmonyOption@@QAEXPAUOBJECTSTRUCT@@HHH_N@Z 0048fbc0 f   JewelOfHarmonyOption.obj
 0001:0008ee10       ??_ECJewelOfHarmonyType@@UAEPAXI@Z 0048fe10 f i * CIL library *:* CIL module *
 0001:0008ee10       ??_GCJewelOfHarmonyType@@UAEPAXI@Z 0048fe10 f i JewelOfHarmonyType.obj
 0001:0008ee40       ?Load@CJewelOfHarmonyType@@QAEXPAD@Z 0048fe40 f   JewelOfHarmonyType.obj
 0001:0008efe0       ?JoinServerProtocolCore@@YAXEPAEH@Z 0048ffe0 f   JSProtocol.obj
 0001:0008f160       ?JGConnectAccountRecv@@YAXPAUSDHP_CONNECT_ACCOUNT_RECV@@@Z 00490160 f   JSProtocol.obj
 0001:0008f4d0       ?JGMapServerMoveRecv@@YAXPAUSDHP_MAP_SERVER_MOVE_RECV@@@Z 004904d0 f   JSProtocol.obj
 0001:0008f7e0       ?JGMapServerMoveAuthRecv@@YAXPAUSDHP_MAP_SERVER_MOVE_AUTH_RECV@@@Z 004907e0 f   JSProtocol.obj
 0001:0008fb50       ?JGAccountLevelRecv@@YAXPAUSDHP_ACCOUNT_LEVEL_RECV@@@Z 00490b50 f   JSProtocol.obj
 0001:0008fd50       ?JGAccountAlreadyConnectedRecv@@YAXPAUSDHP_ACCOUNT_ALREADY_CONNECTED_RECV@@@Z 00490d50 f   JSProtocol.obj
 0001:0008ff90       ?GJMapServerMoveSend@@YAXHGGEE@Z 00490f90 f   JSProtocol.obj
 0001:00090040       ?GJSetOffExpSend@@YAXPAUOBJECTSTRUCT@@_N@Z 00491040 f   JSProtocol.obj
 0001:000900f0       ?GJGetLastVoteInfo@@YAXH@Z 004910f0 f   JSProtocol.obj
 0001:00090170       ??_GCKalima@@UAEPAXI@Z     00491170 f i Kalima.obj
 0001:00090170       ??_ECKalima@@UAEPAXI@Z     00491170 f i * CIL library *:* CIL module *
 0001:000901a0       ?GetKalimaGateLevel@CKalima@@QAEHPAUOBJECTSTRUCT@@@Z 004911a0 f   Kalima.obj
 0001:000902e0       ?CreateKalimaGate@CKalima@@QAE_NHHHH@Z 004912e0 f   Kalima.obj
 0001:000905d0       ?CreateNextKalimaGate@CKalima@@QAE_NHHHH@Z 004915d0 f   Kalima.obj
 0001:000907d0       ?DeleteKalimaGate@CKalima@@QAE_NH@Z 004917d0 f   Kalima.obj
 0001:00090910       ?KalimaGateAct@CKalima@@QAEXH@Z 00491910 f   Kalima.obj
 0001:00090be0       ?KalimaNextGateAct@CKalima@@QAEXH@Z 00491be0 f   Kalima.obj
 0001:00090e90       ??0CKanturu@@QAE@XZ        00491e90 f   Kanturu.obj
 0001:00091120       ??_ECKanturu@@UAEPAXI@Z    00492120 f i * CIL library *:* CIL module *
 0001:00091120       ??_GCKanturu@@UAEPAXI@Z    00492120 f i Kanturu.obj
 0001:00091150       ??1CKanturu@@UAE@XZ        00492150 f   Kanturu.obj
 0001:00091280       ?ResetAllData@CKanturu@@QAEXXZ 00492280 f   Kanturu.obj
 0001:00091350       ?Load@CKanturu@@QAEXPAD@Z  00492350 f   Kanturu.obj
 0001:000915e0       ?MainProc@CKanturu@@QAEXXZ 004925e0 f   Kanturu.obj
 0001:00091960       ?SetState@CKanturu@@QAEXH@Z 00492960 f   Kanturu.obj
 0001:00091ba0       ?CheckEnterKanturu@CKanturu@@QAE_NH@Z 00492ba0 f   Kanturu.obj
 0001:00091d30       ?SetKanturuMapAttr@CKanturu@@QAEXH@Z 00492d30 f   Kanturu.obj
 0001:00091dc0       ?GetRemainTime@CKanturu@@QAEHXZ 00492dc0 f   Kanturu.obj
 0001:00091f20       ??_ECKanturuBattleOfMaya@@UAEPAXI@Z 00492f20 f i * CIL library *:* CIL module *
 0001:00091f20       ??_GCKanturuBattleOfMaya@@UAEPAXI@Z 00492f20 f i KanturuBattleOfMaya.obj
 0001:00091fb0       ??1CKanturuBattleOfMaya@@UAE@XZ 00492fb0 f   KanturuBattleOfMaya.obj
 0001:00092020       ?ResetAllData@CKanturuBattleOfMaya@@QAEXXZ 00493020 f   KanturuBattleOfMaya.obj
 0001:000920b0       ?Load@CKanturuBattleOfMaya@@QAEXPAD@Z 004930b0 f   KanturuBattleOfMaya.obj
 0001:00092490       ?MainProc@CKanturuBattleOfMaya@@QAEXXZ 00493490 f   KanturuBattleOfMaya.obj
 0001:00092970       ?SetState@CKanturuBattleOfMaya@@QAEXH@Z 00493970 f   KanturuBattleOfMaya.obj
 0001:000932f0       ??_ECKanturuBattleOfNightmare@@UAEPAXI@Z 004942f0 f i * CIL library *:* CIL module *
 0001:000932f0       ??_GCKanturuBattleOfNightmare@@UAEPAXI@Z 004942f0 f i KanturuBattleOfNightmare.obj
 0001:00093370       ??1CKanturuBattleOfNightmare@@UAE@XZ 00494370 f   KanturuBattleOfNightmare.obj
 0001:000933c0       ?ResetAllData@CKanturuBattleOfNightmare@@QAEXXZ 004943c0 f   KanturuBattleOfNightmare.obj
 0001:00093460       ?Load@CKanturuBattleOfNightmare@@QAEXPAD@Z 00494460 f   KanturuBattleOfNightmare.obj
 0001:000936c0       ?MainProc@CKanturuBattleOfNightmare@@QAEXXZ 004946c0 f   KanturuBattleOfNightmare.obj
 0001:00093850       ?SetState@CKanturuBattleOfNightmare@@QAEXH@Z 00494850 f   KanturuBattleOfNightmare.obj
 0001:00093b50       ?SetState_NONE@CKanturuBattleOfNightmare@@QAEXXZ 00494b50 f   KanturuBattleOfNightmare.obj
 0001:00093bc0       ??_ECKanturuBattleStanby@@UAEPAXI@Z 00494bc0 f i * CIL library *:* CIL module *
 0001:00093bc0       ??_GCKanturuBattleStanby@@UAEPAXI@Z 00494bc0 f i KanturuBattleStanby.obj
 0001:00093c30       ??1CKanturuBattleStanby@@UAE@XZ 00494c30 f   KanturuBattleStanby.obj
 0001:00093c80       ?ResetAllData@CKanturuBattleStanby@@QAEXXZ 00494c80 f   KanturuBattleStanby.obj
 0001:00093cf0       ?Load@CKanturuBattleStanby@@QAEXPAD@Z 00494cf0 f   KanturuBattleStanby.obj
 0001:00093ef0       ?SetState@CKanturuBattleStanby@@QAEXH@Z 00494ef0 f   KanturuBattleStanby.obj
 0001:00094040       ??0CKanturuBattleUser@@QAE@XZ 00495040 f i KanturuBattleUserMng.obj
 0001:00094060       ??1CKanturuBattleUser@@UAE@XZ 00495060 f i KanturuBattleUserMng.obj
 0001:00094070       ??_GCKanturuBattleUser@@UAEPAXI@Z 00495070 f i KanturuBattleUserMng.obj
 0001:00094070       ??_ECKanturuBattleUser@@UAEPAXI@Z 00495070 f i * CIL library *:* CIL module *
 0001:000940a0       ??_ECKanturuBattleUserMng@@UAEPAXI@Z 004950a0 f i * CIL library *:* CIL module *
 0001:000940a0       ??_GCKanturuBattleUserMng@@UAEPAXI@Z 004950a0 f i KanturuBattleUserMng.obj
 0001:00094120       ?ResetAllData@CKanturuBattleUserMng@@QAEXXZ 00495120 f   KanturuBattleUserMng.obj
 0001:00094160       ?DelUserData@CKanturuBattleUserMng@@QAE_NH@Z 00495160 f   KanturuBattleUserMng.obj
 0001:00094210       ?CheckUserState@CKanturuBattleUserMng@@QAEXXZ 00495210 f   KanturuBattleUserMng.obj
 0001:000942c0       ?MoveAllUser@CKanturuBattleUserMng@@QAEXH@Z 004952c0 f   KanturuBattleUserMng.obj
 0001:00094320       ??_ECKanturuEntranceNPC@@UAEPAXI@Z 00495320 f i * CIL library *:* CIL module *
 0001:00094320       ??_GCKanturuEntranceNPC@@UAEPAXI@Z 00495320 f i KanturuEntranceNPC.obj
 0001:00094350       ?CGKanturuEnterInfoRecv@CKanturuEntranceNPC@@QAEXH@Z 00495350 f   KanturuEntranceNPC.obj
 0001:00094420       ?CGKanturuEnterRecv@CKanturuEntranceNPC@@QAEXH@Z 00495420 f   KanturuEntranceNPC.obj
 0001:00094770       ??_GCKanturuMaya@@UAEPAXI@Z 00495770 f i KanturuMaya.obj
 0001:00094770       ??_ECKanturuMaya@@UAEPAXI@Z 00495770 f i * CIL library *:* CIL module *
 0001:000947a0       ?KanturuMayaAct_IceStorm@CKanturuMaya@@QAEXH@Z 004957a0 f   KanturuMaya.obj
 0001:000948b0       ?KanturuMayaAct_Hands@CKanturuMaya@@QAEXXZ 004958b0 f   KanturuMaya.obj
 0001:00094a70       ??_ECKanturuMonsterMng@@UAEPAXI@Z 00495a70 f i * CIL library *:* CIL module *
 0001:00094a70       ??_GCKanturuMonsterMng@@UAEPAXI@Z 00495a70 f i KanturuMonsterMng.obj
 0001:00094ab0       ?Load@CKanturuMonsterMng@@QAEXPAD@Z 00495ab0 f   KanturuMonsterMng.obj
 0001:00094cf0       ?ResetRegenMonsterObjData@CKanturuMonsterMng@@QAEXXZ 00495cf0 f   KanturuMonsterMng.obj
 0001:00094d80       ?SetKanturuMonster@CKanturuMonsterMng@@QAEHH@Z 00495d80 f   KanturuMonsterMng.obj
 0001:00094f00       ?GetPosition@CKanturuMonsterMng@@QAEHHFPAF0@Z 00495f00 f   KanturuMonsterMng.obj
 0001:00095080       ??_GCKanturuObjInfo@@UAEPAXI@Z 00496080 f i KanturuObjInfo.obj
 0001:00095080       ??_ECKanturuObjInfo@@UAEPAXI@Z 00496080 f i * CIL library *:* CIL module *
 0001:000950b0       ??1CKanturuObjInfo@@UAE@XZ 004960b0 f   KanturuObjInfo.obj
 0001:000950c0       ??0CKanturuStateInfo@@QAE@XZ 004960c0 f   KanturuStateInfo.obj
 0001:000950e0       ??_GCKanturuStateInfo@@UAEPAXI@Z 004960e0 f i KanturuStateInfo.obj
 0001:000950e0       ??_ECKanturuStateInfo@@UAEPAXI@Z 004960e0 f i * CIL library *:* CIL module *
 0001:00095110       ??1CKanturuStateInfo@@UAE@XZ 00496110 f   KanturuStateInfo.obj
 0001:00095120       ??_GCKanturuTowerOfRefinement@@UAEPAXI@Z 00496120 f i KanturuTowerOfRefinement.obj
 0001:00095120       ??_ECKanturuTowerOfRefinement@@UAEPAXI@Z 00496120 f i * CIL library *:* CIL module *
 0001:000951a0       ??1CKanturuTowerOfRefinement@@UAE@XZ 004961a0 f   KanturuTowerOfRefinement.obj
 0001:000951f0       ?ResetAllData@CKanturuTowerOfRefinement@@QAEXXZ 004961f0 f   KanturuTowerOfRefinement.obj
 0001:00095290       ?Load@CKanturuTowerOfRefinement@@QAEXPAD@Z 00496290 f   KanturuTowerOfRefinement.obj
 0001:000954a0       ?SetState@CKanturuTowerOfRefinement@@QAEXH@Z 004964a0 f   KanturuTowerOfRefinement.obj
 0001:00095750       ??_GCKanturuUtil@@UAEPAXI@Z 00496750 f i KanturuUtil.obj
 0001:00095750       ??_ECKanturuUtil@@UAEPAXI@Z 00496750 f i * CIL library *:* CIL module *
 0001:00095780       ?SendMsgKanturuBossMapUser@CKanturuUtil@@QAAXPADZZ 00496780 f   KanturuUtil.obj
 0001:00095830       ?SendDataKanturuBossMapUser@CKanturuUtil@@QAEXPAEH@Z 00496830 f   KanturuUtil.obj
 0001:000958a0       ??_ECLifeStone@@UAEPAXI@Z  004968a0 f i * CIL library *:* CIL module *
 0001:000958a0       ??_GCLifeStone@@UAEPAXI@Z  004968a0 f i LifeStone.obj
 0001:000958d0       ??_ECLog@@UAEPAXI@Z        004968d0 f i * CIL library *:* CIL module *
 0001:000958d0       ??_GCLog@@UAEPAXI@Z        004968d0 f i Log.obj
 0001:00095900       ??1CLog@@UAE@XZ            00496900 f   Log.obj
 0001:00095950       ?AddLog@CLog@@QAEXHPAD@Z   00496950 f   Log.obj
 0001:00095a70       ?Output@CLog@@QAAXW4eLogType@@PADZZ 00496a70 f   Log.obj
 0001:00095c70       ??_GLuaExport@@UAEPAXI@Z   00496c70 f i LuaExport.obj
 0001:00095c70       ??_ELuaExport@@UAEPAXI@Z   00496c70 f i * CIL library *:* CIL module *
 0001:00095ca0       ??_GCLuckyCoin@@UAEPAXI@Z  00496ca0 f i LuckyCoin.obj
 0001:00095ca0       ??_ECLuckyCoin@@UAEPAXI@Z  00496ca0 f i * CIL library *:* CIL module *
 0001:00095cd0       ?DGLuckyCoinExchangeRecv@CLuckyCoin@@QAEXPAUSDHP_LUCKY_COIN_EXCHANGE_RECV@@@Z 00496cd0 f   LuckyCoin.obj
 0001:00095ea0       ??_GCLuckyItem@@UAEPAXI@Z  00496ea0 f i LuckyItem.obj
 0001:00095ea0       ??_ECLuckyItem@@UAEPAXI@Z  00496ea0 f i * CIL library *:* CIL module *
 0001:00095ed0       ?Load@CLuckyItem@@QAEXPAD@Z 00496ed0 f   LuckyItem.obj
 0001:00096110       ??0CMap@@QAE@XZ            00497110 f   Map.obj
 0001:00096380       ??_ECMap@@UAEPAXI@Z        00497380 f i * CIL library *:* CIL module *
 0001:00096380       ??_GCMap@@UAEPAXI@Z        00497380 f i Map.obj
 0001:00096400       ??1CMap@@UAE@XZ            00497400 f   Map.obj
 0001:00096460       ?Load@CMap@@QAEXPADH@Z     00497460 f   Map.obj
 0001:000965a0       ?CheckStandAttr@CMap@@QAE_NHH@Z 004975a0 f   Map.obj
 0001:00096600       ?WeatherAllSend@CMap@@QAEXE@Z 00497600 f   Map.obj
 0001:00096660       ?GetMapPos@CMap@@QAEXHPAF0@Z 00497660 f   Map.obj
 0001:00096750       ?GetMapRandomPos@CMap@@QAEXPAF0H@Z 00497750 f   Map.obj
 0001:00096800       ?MoneyItemDrop@CMap@@QAE_NHHH@Z 00497800 f   Map.obj
 0001:00096920       ?MonsterItemDrop@CMap@@QAE_NHHMHHEEEEEHKEEQAEEK@Z 00497920 f   Map.obj
 0001:00096af0       ?ItemDrop@CMap@@QAE_NHHMHHEEEEEKHHHEEQAEEK@Z 00497af0 f   Map.obj
 0001:00096f30       ?CheckWall2@CMap@@QAEEHHHH@Z 00497f30 f   Map.obj
 0001:00097030       ?PathFinding2@CMap@@QAE_NHHHHPAUPATH_INFO@@@Z 00498030 f   Map.obj
 0001:000970d0       ??0CMapItem@@QAE@XZ        004980d0 f   MapItem.obj
 0001:000970f0       ??_ECMapItem@@UAEPAXI@Z    004980f0 f i * CIL library *:* CIL module *
 0001:000970f0       ??_GCMapItem@@UAEPAXI@Z    004980f0 f i MapItem.obj
 0001:00097120       ??1CMapItem@@UAE@XZ        00498120 f   MapItem.obj
 0001:00097130       ??_GCMapManager@@UAEPAXI@Z 00498130 f i MapManager.obj
 0001:00097130       ??_ECMapManager@@UAEPAXI@Z 00498130 f i * CIL library *:* CIL module *
 0001:00097160       ?Load@CMapManager@@QAEXPAD@Z 00498160 f   MapManager.obj
 0001:000977c0       ?FindNextDir@CMapPath@@AAEHHHHHH_N0@Z 004987c0 f   MapPath.obj
 0001:00097cd0       ?FindNextDir3@CMapPath@@AAEHHHHHH_N0@Z 00498cd0 f   MapPath.obj
 0001:00098180       ?FindPath@CMapPath@@QAE_NHHHH_N@Z 00499180 f   MapPath.obj
 0001:00098280       ?FindPath3@CMapPath@@QAE_NHHHH_N@Z 00499280 f   MapPath.obj
 0001:00098380       ??$_Erase_tree@V?$allocator@U?$_Tree_node@U?$pair@$$CBHV?$map@HUMAP_QUEST_DATA@@U?$less@H@std@@V?$allocator@U?$pair@$$CBHUMAP_QUEST_DATA@@@std@@@3@@std@@@std@@PAX@std@@@std@@@?$_Tree_val@U?$_Tree_simple_types@U?$pair@$$CBHV?$map@HUMAP_QUEST_DATA@@U?$less@H@std@@V?$allocator@U?$pair@$$CBHUMAP_QUEST_DATA@@@std@@@3@@std@@@std@@@std@@@std@@QAEXAAV?$allocator@U?$_Tree_node@U?$pair@$$CBHV?$map@HUMAP_QUEST_DATA@@U?$less@H@std@@V?$allocator@U?$pair@$$CBHUMAP_QUEST_DATA@@@std@@@3@@std@@@std@@PAX@std@@@1@PAU?$_Tree_node@U?$pair@$$CBHV?$map@HUMAP_QUEST_DATA@@U?$less@H@std@@V?$allocator@U?$pair@$$CBHUMAP_QUEST_DATA@@@std@@@3@@std@@@std@@PAX@1@@Z 00499380 f i MapQuestSystem.obj
 0001:000983e0       ??$_Erase_tree@V?$allocator@U?$_Tree_node@U?$pair@$$CBHUMAP_QUEST_DATA@@@std@@PAX@std@@@std@@@?$_Tree_val@U?$_Tree_simple_types@U?$pair@$$CBHUMAP_QUEST_DATA@@@std@@@std@@@std@@QAEXAAV?$allocator@U?$_Tree_node@U?$pair@$$CBHUMAP_QUEST_DATA@@@std@@PAX@std@@@1@PAU?$_Tree_node@U?$pair@$$CBHUMAP_QUEST_DATA@@@std@@PAX@1@@Z 004993e0 f i MapQuestSystem.obj
 0001:00098440       ??0CMapServerData@@QAE@XZ  00499440 f i MapServerManager.obj
 0001:00098480       ??1CMapServerData@@UAE@XZ  00499480 f i MapServerManager.obj
 0001:00098490       ??_GCMapServerData@@UAEPAXI@Z 00499490 f i MapServerManager.obj
 0001:00098490       ??_ECMapServerData@@UAEPAXI@Z 00499490 f i * CIL library *:* CIL module *
 0001:000984c0       ??_GCMapServerManager@@UAEPAXI@Z 004994c0 f i MapServerManager.obj
 0001:000984c0       ??_ECMapServerManager@@UAEPAXI@Z 004994c0 f i * CIL library *:* CIL module *
 0001:00098550       ?Load@CMapServerManager@@QAEXPAD@Z 00499550 f   MapServerManager.obj
 0001:00098d10       ?CheckMapServerMove@CMapServerManager@@QAEFHHF@Z 00499d10 f   MapServerManager.obj
 0001:00099320       ??_ECMarry@@UAEPAXI@Z      0049a320 f i * CIL library *:* CIL module *
 0001:00099320       ??_GCMarry@@UAEPAXI@Z      0049a320 f i Marry.obj
 0001:00099370       ?LoadFile@CMarry@@QAEXPAD@Z 0049a370 f   Marry.obj
 0001:00099c00       ?Propose@CMarry@@QAEXHH@Z  0049ac00 f   Marry.obj
 0001:00099eb0       ?Accept@CMarry@@QAE_NH@Z   0049aeb0 f   Marry.obj
 0001:0009a230       ?Divorce@CMarry@@QAEXH@Z   0049b230 f   Marry.obj
 0001:0009a4c0       ?CheckPosition@CMarry@@AAE_NHH@Z 0049b4c0 f   Marry.obj
 0001:0009a550       ?CheckRequiredItem@CMarry@@AAE_NHH@Z 0049b550 f   Marry.obj
 0001:0009a5e0       ?GiveGiftItem@CMarry@@AAEXHH@Z 0049b5e0 f   Marry.obj
 0001:0009a680       ?DeleteRequiredItem@CMarry@@AAEXHH@Z 0049b680 f   Marry.obj
 0001:0009a770       ??_GCMarrySystem@@UAEPAXI@Z 0049b770 f i MarrySystem.obj
 0001:0009a770       ??_ECMarrySystem@@UAEPAXI@Z 0049b770 f i * CIL library *:* CIL module *
 0001:0009a7a0       ?Load@CMarrySystem@@QAEXPAD0@Z 0049b7a0 f   MarrySystem.obj
 0001:0009b270       ?TickMarriage@@YGKPAUOBJECTSTRUCT@@@Z 0049c270 f   MarrySystem.obj
 0001:0009b800       ?CheckMarryCostCallback@CMarrySystem@@SAXPAUOBJECTSTRUCT@@H0KKK@Z 0049c800 f   MarrySystem.obj
 0001:0009bb50       ?CheckCost@CMarrySystem@@QAE_NPAUOBJECTSTRUCT@@UWCOINS_STRUCT_MAARRY@@H@Z 0049cb50 f   MarrySystem.obj
 0001:0009be70       ?FireMarriage@@YGKXZ       0049ce70 f   MarrySystem.obj
 0001:0009c120       ?CancelMarry@CMarrySystem@@QAEXPAUOBJECTSTRUCT@@@Z 0049d120 f   MarrySystem.obj
 0001:0009c1c0       ?NoCommand@CMarrySystem@@QAE_NPAUOBJECTSTRUCT@@@Z 0049d1c0 f   MarrySystem.obj
 0001:0009c300       ?IsMarry@CMarrySystem@@QAEXPAUOBJECTSTRUCT@@PAD@Z 0049d300 f   MarrySystem.obj
 0001:0009c470       ?IsMarryOnline@CMarrySystem@@QAEXPAUOBJECTSTRUCT@@@Z 0049d470 f   MarrySystem.obj
 0001:0009c560       ?TraceMarry@CMarrySystem@@QAEXPAUOBJECTSTRUCT@@@Z 0049d560 f   MarrySystem.obj
 0001:0009c7e0       ?MarryDivorce@CMarrySystem@@QAEXPAUOBJECTSTRUCT@@@Z 0049d7e0 f   MarrySystem.obj
 0001:0009c8c0       ?MarryDivorceCallback@CMarrySystem@@SAXPAUOBJECTSTRUCT@@H0KKK@Z 0049d8c0 f   MarrySystem.obj
 0001:0009cbb0       ??_GCMasterSkillTree@@UAEPAXI@Z 0049dbb0 f i MasterSkillTree.obj
 0001:0009cbb0       ??_ECMasterSkillTree@@UAEPAXI@Z 0049dbb0 f i * CIL library *:* CIL module *
 0001:0009cbe0       ?Load@CMasterSkillTree@@QAEXPAD@Z 0049dbe0 f   MasterSkillTree.obj
 0001:0009cf00       ?GetMasterSkillValue@CMasterSkillTree@@QAEHPAUOBJECTSTRUCT@@H@Z 0049df00 f   MasterSkillTree.obj
 0001:0009cfd0       ?GetMasterSkillWeapon@CMasterSkillTree@@QAEHPAUOBJECTSTRUCT@@H@Z 0049dfd0 f   MasterSkillTree.obj
 0001:0009d2b0       ?GetMasterSkillDamageMin@CMasterSkillTree@@QAEHPAUOBJECTSTRUCT@@H@Z 0049e2b0 f   MasterSkillTree.obj
 0001:0009d8a0       ?GetMasterSkillDamageMax@CMasterSkillTree@@QAEHPAUOBJECTSTRUCT@@H@Z 0049e8a0 f   MasterSkillTree.obj
 0001:0009de40       ?CheckMasterLevel@CMasterSkillTree@@QAE_NPAUOBJECTSTRUCT@@@Z 0049ee40 f   MasterSkillTree.obj
 0001:0009de80       ?CalcMasterSkillTreeOption@CMasterSkillTree@@QAEXPAUOBJECTSTRUCT@@_N@Z 0049ee80 f   MasterSkillTree.obj
 0001:0009dfd0       ?InsertOption@CMasterSkillTree@@QAEXPAUOBJECTSTRUCT@@HH_N@Z 0049efd0 f   MasterSkillTree.obj
 0001:0009efa0       ?CGMasterSkillRecv@CMasterSkillTree@@QAEXPAUPMSG_MASTER_SKILL_RECV@@H@Z 0049ffa0 f   MasterSkillTree.obj
 0001:0009f2d0       ?GCMasterInfoSend@CMasterSkillTree@@QAEXPAUOBJECTSTRUCT@@@Z 004a02d0 f   MasterSkillTree.obj
 0001:0009f4c0       ?GCMasterSkillListSend@CMasterSkillTree@@QAEXH@Z 004a04c0 f   MasterSkillTree.obj
 0001:0009f710       ?clear@?$_Tree@V?$_Tmap_traits@HUMASTER_SKILL_TREE_INFO@@U?$less@H@std@@V?$allocator@U?$pair@$$CBHUMASTER_SKILL_TREE_INFO@@@std@@@3@$0A@@std@@@std@@QAEXXZ 004a0710 f i MasterSkillTree.obj
 0001:0009f760       ??1?$_Tree@V?$_Tmap_traits@HUMASTER_SKILL_TREE_INFO@@U?$less@H@std@@V?$allocator@U?$pair@$$CBHUMASTER_SKILL_TREE_INFO@@@std@@@3@$0A@@std@@@std@@QAE@XZ 004a0760 f i MasterSkillTree.obj
 0001:0009f7b0       ??$_Erase_tree@V?$allocator@U?$_Tree_node@U?$pair@$$CBHUMASTER_SKILL_TREE_INFO@@@std@@PAX@std@@@std@@@?$_Tree_val@U?$_Tree_simple_types@U?$pair@$$CBHUMASTER_SKILL_TREE_INFO@@@std@@@std@@@std@@QAEXAAV?$allocator@U?$_Tree_node@U?$pair@$$CBHUMASTER_SKILL_TREE_INFO@@@std@@PAX@std@@@1@PAU?$_Tree_node@U?$pair@$$CBHUMASTER_SKILL_TREE_INFO@@@std@@PAX@1@@Z 004a07b0 f i MasterSkillTree.obj
 0001:0009f7f0       ??1?$_Alloc_construct_ptr@V?$allocator@U?$_Tree_node@U?$pair@$$CBHUMASTER_SKILL_TREE_INFO@@@std@@PAX@std@@@std@@@std@@QAE@XZ 004a07f0 f i MasterSkillTree.obj
 0001:0009f810       ??_ECMemoryAllocator@@UAEPAXI@Z 004a0810 f i * CIL library *:* CIL module *
 0001:0009f810       ??_GCMemoryAllocator@@UAEPAXI@Z 004a0810 f i MemoryAllocator.obj
 0001:0009f850       ?GetMemoryAllocatorFree@CMemoryAllocator@@QAE_NPAHHHK@Z 004a0850 f   MemoryAllocator.obj
 0001:0009f8e0       ?GetMemoryAllocatorInfo@CMemoryAllocator@@QAE_NPAVCMemoryAllocatorInfo@@H@Z 004a08e0 f   MemoryAllocator.obj
 0001:0009f950       ?InsertMemoryAllocatorInfo@CMemoryAllocator@@QAEXVCMemoryAllocatorInfo@@@Z 004a0950 f   MemoryAllocator.obj
 0001:0009f9b0       ?BindMemoryAllocatorInfo@CMemoryAllocator@@QAEXHVCMemoryAllocatorInfo@@@Z 004a09b0 f   MemoryAllocator.obj
 0001:0009fb20       ??0CMemoryAllocatorInfo@@QAE@XZ 004a0b20 f   MemoryAllocatorInfo.obj
 0001:0009fb30       ?Clear@CMemoryAllocatorInfo@@QAEXXZ 004a0b30 f   MemoryAllocatorInfo.obj
 0001:0009fc10       ?Alloc@CMemoryAllocatorInfo@@QAEXXZ 004a0c10 f   MemoryAllocatorInfo.obj
 0001:0009ffc0       ??_ECSkill@@UAEPAXI@Z      004a0fc0 f i MemoryAllocatorInfo.obj
 0001:000a0070       ??_ECEffect@@UAEPAXI@Z     004a1070 f i MemoryAllocatorInfo.obj
 0001:000a0120       ??_ECMemScript@@UAEPAXI@Z  004a1120 f i * CIL library *:* CIL module *
 0001:000a0120       ??_GCMemScript@@UAEPAXI@Z  004a1120 f i MemScript.obj
 0001:000a0170       ?SetBuffer@CMemScript@@QAE_NPAD@Z 004a1170 f   MemScript.obj
 0001:000a0270       ?GetToken@CMemScript@@QAE?AW4eTokenResult@@XZ 004a1270 f   MemScript.obj
 0001:000a05d0       ?SetLastError@CMemScript@@QAEXH@Z 004a15d0 f   MemScript.obj
 0001:000a06b0       ?GetLastError@CMemScript@@QAEPADXZ 004a16b0 f   MemScript.obj
 0001:000a06c0       ___local_stdio_scanf_options 004a16c0 f i MemScript.obj
 0001:000a06d0       _sscanf_s                  004a16d0 f i MemScript.obj
 0001:000a0700       ??_GCMercenary@@UAEPAXI@Z  004a1700 f i Mercenary.obj
 0001:000a0700       ??_ECMercenary@@UAEPAXI@Z  004a1700 f i * CIL library *:* CIL module *
 0001:000a0730       ??_ECMessage@@UAEPAXI@Z    004a1730 f i * CIL library *:* CIL module *
 0001:000a0730       ??_GCMessage@@UAEPAXI@Z    004a1730 f i Message.obj
 0001:000a0770       ??1?$map@HUMESSAGE_INFO@@U?$less@H@std@@V?$allocator@U?$pair@$$CBHUMESSAGE_INFO@@@std@@@3@@std@@QAE@XZ 004a1770 f i Message.obj
 0001:000a0780       ?Load@CMessage@@QAEXPAD@Z  004a1780 f   Message.obj
 0001:000a0cb0       ?clear@?$_Tree@V?$_Tmap_traits@HUMESSAGE_INFO@@U?$less@H@std@@V?$allocator@U?$pair@$$CBHUMESSAGE_INFO@@@std@@@3@$0A@@std@@@std@@QAEXXZ 004a1cb0 f i Message.obj
 0001:000a0d00       ??1?$_Tree@V?$_Tmap_traits@HUMESSAGE_INFO@@U?$less@H@std@@V?$allocator@U?$pair@$$CBHUMESSAGE_INFO@@@std@@@3@$0A@@std@@@std@@QAE@XZ 004a1d00 f i Message.obj
 0001:000a0d50       ??$_Erase_tree@V?$allocator@U?$_Tree_node@U?$pair@$$CBHUMESSAGE_INFO@@@std@@PAX@std@@@std@@@?$_Tree_val@U?$_Tree_simple_types@U?$pair@$$CBHUMESSAGE_INFO@@@std@@@std@@@std@@QAEXAAV?$allocator@U?$_Tree_node@U?$pair@$$CBHUMESSAGE_INFO@@@std@@PAX@std@@@1@PAU?$_Tree_node@U?$pair@$$CBHUMESSAGE_INFO@@@std@@PAX@1@@Z 004a1d50 f i Message.obj
 0001:000a0d90       ??1?$_Alloc_construct_ptr@V?$allocator@U?$_Tree_node@U?$pair@$$CBHUMESSAGE_INFO@@@std@@PAX@std@@@std@@@std@@QAE@XZ 004a1d90 f i Message.obj
 0001:000a0db0       ??_ECMiniMap@@UAEPAXI@Z    004a1db0 f i * CIL library *:* CIL module *
 0001:000a0db0       ??_GCMiniMap@@UAEPAXI@Z    004a1db0 f i MiniMap.obj
 0001:000a0de0       ??1?$vector@UMINI_MAP_INFO@@V?$allocator@UMINI_MAP_INFO@@@std@@@std@@QAE@XZ 004a1de0 f i MiniMap.obj
 0001:000a0e50       ??_GCMiningSystem@@UAEPAXI@Z 004a1e50 f i MiningSystem.obj
 0001:000a0e50       ??_ECMiningSystem@@UAEPAXI@Z 004a1e50 f i * CIL library *:* CIL module *
 0001:000a0e80       ??_GcMMOTOP@@UAEPAXI@Z     004a1e80 f i MMOTOP.obj
 0001:000a0e80       ??_EcMMOTOP@@UAEPAXI@Z     004a1e80 f i * CIL library *:* CIL module *
 0001:000a0ec0       ?Init@cMMOTOP@@QAEXXZ      004a1ec0 f   MMOTOP.obj
 0001:000a1120       ?Load@cMMOTOP@@QAEXPAD@Z   004a2120 f   MMOTOP.obj
 0001:000a17d0       ?WriteCallback@@YAIPAXII0@Z 004a27d0 f   MMOTOP.obj
 0001:000a1830       ?DownloadFile@cMMOTOP@@QAEXPAD@Z 004a2830 f   MMOTOP.obj
 0001:000a22d0       ??_D?$basic_ofstream@DU?$char_traits@D@std@@@std@@QAEXXZ 004a32d0 f i MMOTOP.obj
 0001:000a2360       ?imbue@?$basic_filebuf@DU?$char_traits@D@std@@@std@@MAEXABVlocale@2@@Z 004a3360 f i MMOTOP.obj
 0001:000a2380       ?sync@?$basic_filebuf@DU?$char_traits@D@std@@@std@@MAEHXZ 004a3380 f i MMOTOP.obj
 0001:000a23b0       ?setbuf@?$basic_filebuf@DU?$char_traits@D@std@@@std@@MAEPAV?$basic_streambuf@DU?$char_traits@D@std@@@2@PAD_J@Z 004a33b0 f i MMOTOP.obj
 0001:000a2410       ?seekpos@?$basic_filebuf@DU?$char_traits@D@std@@@std@@MAE?AV?$fpos@U_Mbstatet@@@2@V32@H@Z 004a3410 f i MMOTOP.obj
 0001:000a24e0       ?seekoff@?$basic_filebuf@DU?$char_traits@D@std@@@std@@MAE?AV?$fpos@U_Mbstatet@@@2@_JHH@Z 004a34e0 f i MMOTOP.obj
 0001:000a25f0       ?xsputn@?$basic_filebuf@DU?$char_traits@D@std@@@std@@MAE_JPBD_J@Z 004a35f0 f i MMOTOP.obj
 0001:000a2790       ?xsgetn@?$basic_filebuf@DU?$char_traits@D@std@@@std@@MAE_JPAD_J@Z 004a3790 f i MMOTOP.obj
 0001:000a2980       ?uflow@?$basic_filebuf@DU?$char_traits@D@std@@@std@@MAEHXZ 004a3980 f i MMOTOP.obj
 0001:000a2bf0       ?underflow@?$basic_filebuf@DU?$char_traits@D@std@@@std@@MAEHXZ 004a3bf0 f i MMOTOP.obj
 0001:000a2c30       ?pbackfail@?$basic_filebuf@DU?$char_traits@D@std@@@std@@MAEHH@Z 004a3c30 f i MMOTOP.obj
 0001:000a2ce0       ?overflow@?$basic_filebuf@DU?$char_traits@D@std@@@std@@MAEHH@Z 004a3ce0 f i MMOTOP.obj
 0001:000a2e50       ?_Unlock@?$basic_filebuf@DU?$char_traits@D@std@@@std@@UAEXXZ 004a3e50 f i MMOTOP.obj
 0001:000a2e60       ?_Lock@?$basic_filebuf@DU?$char_traits@D@std@@@std@@UAEXXZ 004a3e60 f i MMOTOP.obj
 0001:000a2e70       ??1?$basic_filebuf@DU?$char_traits@D@std@@@std@@UAE@XZ 004a3e70 f i MMOTOP.obj
 0001:000a2f20       ??1?$vector@UPARCER_DATA@@V?$allocator@UPARCER_DATA@@@std@@@std@@QAE@XZ 004a3f20 f i VoteParcer.obj
 0001:000a2f20       ??1?$vector@UTELEPORTS_NPC_DATA@@V?$allocator@UTELEPORTS_NPC_DATA@@@std@@@std@@QAE@XZ 004a3f20 f i NPCTeleport.obj
 0001:000a2f20       ??1?$vector@UMMOTOP_DATA@@V?$allocator@UMMOTOP_DATA@@@std@@@std@@QAE@XZ 004a3f20 f i MMOTOP.obj
 0001:000a2f90       ??_G?$basic_filebuf@DU?$char_traits@D@std@@@std@@UAEPAXI@Z 004a3f90 f i MMOTOP.obj
 0001:000a2f90       ??_E?$basic_filebuf@DU?$char_traits@D@std@@@std@@UAEPAXI@Z 004a3f90 f i * CIL library *:* CIL module *
 0001:000a2fc0       ??_G?$basic_ofstream@DU?$char_traits@D@std@@@std@@UAEPAXI@Z 004a3fc0 f i MMOTOP.obj
 0001:000a2fc0       ??_E?$basic_ofstream@DU?$char_traits@D@std@@@std@@UAEPAXI@Z 004a3fc0 f i * CIL library *:* CIL module *
 0001:000a2ff0       ?do_length@?$codecvt@DDU_Mbstatet@@@std@@MBEHAAU_Mbstatet@@PBD1I@Z 004a3ff0 f i MMOTOP.obj
 0001:000a3010       ?do_unshift@?$codecvt@DDU_Mbstatet@@@std@@MBEHAAU_Mbstatet@@PAD1AAPAD@Z 004a4010 f i MMOTOP.obj
 0001:000a3030       ?do_in@?$codecvt@DDU_Mbstatet@@@std@@MBEHAAU_Mbstatet@@PBD1AAPBDPAD3AAPAD@Z 004a4030 f i MMOTOP.obj
 0001:000a3030       ?do_out@?$codecvt@DDU_Mbstatet@@@std@@MBEHAAU_Mbstatet@@PBD1AAPBDPAD3AAPAD@Z 004a4030 f i MMOTOP.obj
 0001:000a3050       ___acrt_uninitialize_command_line 004a4050 f i libucrt:argv_data.obj
 0001:000a3050       ?do_always_noconv@?$codecvt@DDU_Mbstatet@@@std@@MBE_NXZ 004a4050 f i MMOTOP.obj
 0001:000a3050       __should_initialize_environment 004a4050 f i LIBCMT:env_mode.obj
 0001:000a3060       ?_Initcvt@?$basic_filebuf@DU?$char_traits@D@std@@@std@@IAEXABV?$codecvt@DDU_Mbstatet@@@2@@Z 004a4060 f i MMOTOP.obj
 0001:000a30f0       ?_Endwrite@?$basic_filebuf@DU?$char_traits@D@std@@@std@@IAE_NXZ 004a40f0 f i MMOTOP.obj
 0001:000a31c0       ?_Init@?$basic_filebuf@DU?$char_traits@D@std@@@std@@IAEXPAU_iobuf@@W4_Initfl@12@@Z 004a41c0 f i MMOTOP.obj
 0001:000a32b0       ?close@?$basic_filebuf@DU?$char_traits@D@std@@@std@@QAEPAV12@XZ 004a42b0 f i MMOTOP.obj
 0001:000a33a0       ?open@?$basic_filebuf@DU?$char_traits@D@std@@@std@@QAEPAV12@PBDHH@Z 004a43a0 f i MMOTOP.obj
 0001:000a3460       ??0?$basic_filebuf@DU?$char_traits@D@std@@@std@@QAE@XZ 004a4460 f i MMOTOP.obj
 0001:000a3500       ??$getline@DU?$char_traits@D@std@@V?$allocator@D@2@@std@@YAAAV?$basic_istream@DU?$char_traits@D@std@@@0@AAV10@AAV?$basic_string@DU?$char_traits@D@std@@V?$allocator@D@2@@0@@Z 004a4500 f i MMOTOP.obj
 0001:000a35b0       ??$endl@DU?$char_traits@D@std@@@std@@YAAAV?$basic_ostream@DU?$char_traits@D@std@@@0@AAV10@@Z 004a45b0 f i MMOTOP.obj
 0001:000a3660       ??$use_facet@V?$codecvt@DDU_Mbstatet@@@std@@@std@@YAABV?$codecvt@DDU_Mbstatet@@@0@ABVlocale@0@@Z 004a4660 f i MMOTOP.obj
 0001:000a37a0       ??$_Emplace_reallocate@ABUMMOTOP_DATA@@@?$vector@UMMOTOP_DATA@@V?$allocator@UMMOTOP_DATA@@@std@@@std@@QAEPAUMMOTOP_DATA@@QAU2@ABU2@@Z 004a47a0 f i MMOTOP.obj
 0001:000a37a0       ??$_Emplace_reallocate@ABUTELEPORTS_NPC_DATA@@@?$vector@UTELEPORTS_NPC_DATA@@V?$allocator@UTELEPORTS_NPC_DATA@@@std@@@std@@QAEPAUTELEPORTS_NPC_DATA@@QAU2@ABU2@@Z 004a47a0 f i NPCTeleport.obj
 0001:000a3970       ?put@?$basic_ostream@DU?$char_traits@D@std@@@std@@QAEAAV12@D@Z 004a4970 f i MMOTOP.obj
 0001:000a3b20       ??$getline@DU?$char_traits@D@std@@V?$allocator@D@2@@std@@YAAAV?$basic_istream@DU?$char_traits@D@std@@@0@$$QAV10@AAV?$basic_string@DU?$char_traits@D@std@@V?$allocator@D@2@@0@D@Z 004a4b20 f i MMOTOP.obj
 0001:000a3d90       ??$_Insert_string@DU?$char_traits@D@std@@I@std@@YAAAV?$basic_ostream@DU?$char_traits@D@std@@@0@AAV10@QBDI@Z 004a4d90 f i MMOTOP.obj
 0001:000a4010       ??1sentry@?$basic_istream@DU?$char_traits@D@std@@@std@@QAE@XZ 004a5010 f i MMOTOP.obj
 0001:000a4070       ?_Ipfx@?$basic_istream@DU?$char_traits@D@std@@@std@@QAE_N_N@Z 004a5070 f i MMOTOP.obj
 0001:000a4100       ??_E?$basic_ofstream@DU?$char_traits@D@std@@@std@@$4PPPPPPPM@A@AEPAXI@Z 004a5100 f i MMOTOP.obj
 0001:000a4110       ?do_encoding@codecvt_base@std@@MBEHXZ 004a5110 f i MMOTOP.obj
 0001:000a4110       ?do_max_length@codecvt_base@std@@MBEHXZ 004a5110 f i MMOTOP.obj
 0001:000a4120       ??$_Reallocate_grow_by@V<lambda_15711c68e099a15a58f4d77303cb286d>@@D@?$basic_string@DU?$char_traits@D@std@@V?$allocator@D@2@@std@@AAEAAV01@IV<lambda_15711c68e099a15a58f4d77303cb286d>@@D@Z 004a5120 f i MMOTOP.obj
 0001:000a4260       __vsscanf_l                004a5260 f i MMOTOP.obj
 0001:000a4290       _sscanf                    004a5290 f i MMOTOP.obj
 0001:000a42b0       ?gObjMonsterDieGiveItem@@YAXPAUOBJECTSTRUCT@@0@Z 004a52b0 f   Monster.obj
 0001:000a4db0       ?gObjSetPosMonster@@YA_NHH@Z 004a5db0 f   Monster.obj
 0001:000a4e80       ?gObjSetMonster@@YA_NHH@Z  004a5e80 f   Monster.obj
 0001:000a5990       ?gObjMonsterRegen@@YA_NPAUOBJECTSTRUCT@@@Z 004a6990 f   Monster.obj
 0001:000a5ba0       ?gObjMonsterMoveCheck@@YA_NPAUOBJECTSTRUCT@@HH@Z 004a6ba0 f   Monster.obj
 0001:000a5cd0       ?gObjMonsterInitHitDamage@@YAXPAUOBJECTSTRUCT@@@Z 004a6cd0 f   Monster.obj
 0001:000a5d20       ?gObjMonsterDelHitDamageUser@@YAHPAUOBJECTSTRUCT@@@Z 004a6d20 f   Monster.obj
 0001:000a5dd0       ?gObjMonsterGetTopHitDamageUser@@YAHPAUOBJECTSTRUCT@@@Z 004a6dd0 f   Monster.obj
 0001:000a5ed0       ?gObjMonsterGetTopHitDamageParty@@YAHPAUOBJECTSTRUCT@@HPAH@Z 004a6ed0 f   Monster.obj
 0001:000a60d0       ?gObjAddMonster@@YAHH@Z    004a70d0 f   Monster.obj
 0001:000a6260       ?gObjAddSummon@@YAHXZ      004a7260 f   Monster.obj
 0001:000a63b0       ?gObjSummonSetEnemy@@YAHPAUOBJECTSTRUCT@@H@Z 004a73b0 f   Monster.obj
 0001:000a6430       ?gObjSummonKill@@YAXH@Z    004a7430 f   Monster.obj
 0001:000a64a0       ?gObjMonsterMagicAttack@@YAXPAUOBJECTSTRUCT@@H@Z 004a74a0 f   Monster.obj
 0001:000a67c0       ?gObjMonsterAttack@@YAXPAUOBJECTSTRUCT@@0@Z 004a77c0 f   Monster.obj
 0001:000a6ef0       ?gObjMonsterStateProc@@YAXPAUOBJECTSTRUCT@@HHH@Z 004a7ef0 f   Monster.obj
 0001:000a7170       ?gObjMonsterGetTargetPos@@YAHPAUOBJECTSTRUCT@@@Z 004a8170 f   Monster.obj
 0001:000a7460       ?gObjGetTargetPos@@YAHPAUOBJECTSTRUCT@@HHAAH1@Z 004a8460 f   Monster.obj
 0001:000a7630       ?gObjMonsterSearchEnemy@@YAHPAUOBJECTSTRUCT@@E@Z 004a8630 f   Monster.obj
 0001:000a77d0       ?gObjMonsterProcess@@YAXPAUOBJECTSTRUCT@@@Z 004a87d0 f   Monster.obj
 0001:000a7e30       ?PathFindMoveMsgSend@@YAHPAUOBJECTSTRUCT@@@Z 004a8e30 f   Monster.obj
 0001:000a8020       ?gObjMonsterMoveAction@@YAXPAUOBJECTSTRUCT@@@Z 004a9020 f   Monster.obj
 0001:000a8220       ?gObjMonsterBaseAct@@YAXPAUOBJECTSTRUCT@@@Z 004a9220 f   Monster.obj
 0001:000a8f40       ?gObjMonsterTrapAct@@YAXPAUOBJECTSTRUCT@@@Z 004a9f40 f   Monster.obj
 0001:000a9270       ?gObjMonsterStateProcCase0@@YAXPAUOBJECTSTRUCT@@H@Z 004aa270 f   Monster.obj
 0001:000a9660       _powf                      004aa660 f i Monster.obj
 0001:000a9690       ?MonsterAIProc@CMonsterAI@@SAXXZ 004aa690 f   MonsterAI.obj
 0001:000a98d0       ?MonsterStateMsgProc@CMonsterAI@@SAXH@Z 004aa8d0 f   MonsterAI.obj
 0001:000a9b20       ?MonsterMove@CMonsterAI@@SAXH@Z 004aab20 f   MonsterAI.obj
 0001:000a9d80       ??0CMonsterAIAgroInfo@@QAE@XZ 004aad80 f i MonsterAIAgro.obj
 0001:000a9d90       ??_ECMonsterAIAgro@@UAEPAXI@Z 004aad90 f i * CIL library *:* CIL module *
 0001:000a9d90       ??_GCMonsterAIAgro@@UAEPAXI@Z 004aad90 f i MonsterAIAgro.obj
 0001:000a9dc0       ?LoadData@CMonsterAIAutomata@@SAXPAD@Z 004aadc0 f   MonsterAIAutomata.obj
 0001:000aa0b0       ??0CMonsterAIAutomataInfo@@QAE@XZ 004ab0b0 f   MonsterAIAutomataInfo.obj
 0001:000aa0f0       ??_GCMonsterAIAutomataInfo@@UAEPAXI@Z 004ab0f0 f i MonsterAIAutomataInfo.obj
 0001:000aa0f0       ??_ECMonsterAIAutomataInfo@@UAEPAXI@Z 004ab0f0 f i * CIL library *:* CIL module *
 0001:000aa120       ??1CMonsterAIAutomataInfo@@UAE@XZ 004ab120 f   MonsterAIAutomataInfo.obj
 0001:000aa130       ?Reset@CMonsterAIAutomataInfo@@QAEXXZ 004ab130 f   MonsterAIAutomataInfo.obj
 0001:000aa1e0       ?RunAutomataInfo@CMonsterAIAutomataInfo@@QAEPAVCMonsterAIState@@H@Z 004ab1e0 f   MonsterAIAutomataInfo.obj
 0001:000aa7a0       ?LoadData@CMonsterAIElement@@SAXPAD@Z 004ab7a0 f   MonsterAIElement.obj
 0001:000aaaa0       ?DelAllAIElement@CMonsterAIElement@@SAXXZ 004abaa0 f   MonsterAIElement.obj
 0001:000aab20       ??0CMonsterAIElementInfo@@QAE@XZ 004abb20 f   MonsterAIElementInfo.obj
 0001:000aab80       ??_ECMonsterAIElementInfo@@UAEPAXI@Z 004abb80 f i * CIL library *:* CIL module *
 0001:000aab80       ??_GCMonsterAIElementInfo@@UAEPAXI@Z 004abb80 f i MonsterAIElementInfo.obj
 0001:000aabb0       ??1CMonsterAIElementInfo@@UAE@XZ 004abbb0 f   MonsterAIElementInfo.obj
 0001:000aabc0       ?ForceAIElementInfo@CMonsterAIElementInfo@@QAEHHHPAVCMonsterAIState@@@Z 004abbc0 f   MonsterAIElementInfo.obj
 0001:000ab1e0       ?ApplyElementMoveTarget@CMonsterAIElementInfo@@QAEXHHPAVCMonsterAIState@@@Z 004ac1e0 f   MonsterAIElementInfo.obj
 0001:000ab490       ?ApplyElementGroupMove@CMonsterAIElementInfo@@QAEXHHPAVCMonsterAIState@@@Z 004ac490 f   MonsterAIElementInfo.obj
 0001:000ab5f0       ?ApplyElementAttack@CMonsterAIElementInfo@@QAEXHHPAVCMonsterAIState@@@Z 004ac5f0 f   MonsterAIElementInfo.obj
 0001:000ab940       ?ApplyElementAttackArea@CMonsterAIElementInfo@@QAEXHHPAVCMonsterAIState@@@Z 004ac940 f   MonsterAIElementInfo.obj
 0001:000abbd0       ?ApplyElementSkillAttack@CMonsterAIElementInfo@@QAEXHHPAVCMonsterAIState@@@Z 004acbd0 f   MonsterAIElementInfo.obj
 0001:000abfb0       ?LoadData@CMonsterAIGroup@@SAXPAD@Z 004acfb0 f   MonsterAIGroup.obj
 0001:000ac2c0       ?ChangeAIOrder@CMonsterAIGroup@@SAXHH@Z 004ad2c0 f   MonsterAIGroup.obj
 0001:000ac3a0       ?DelAllGroupInfo@CMonsterAIGroup@@SAXXZ 004ad3a0 f   MonsterAIGroup.obj
 0001:000ac440       ?FindGroupMemberToHeal@CMonsterAIGroup@@SAPAVCMonsterAIGroupMember@@HHHHH@Z 004ad440 f   MonsterAIGroup.obj
 0001:000ac580       ?Init@CMonsterAIGroup@@SAXH@Z 004ad580 f   MonsterAIGroup.obj
 0001:000ac6f0       ??0CMonsterAIGroupMember@@QAE@XZ 004ad6f0 f   MonsterAIGroupMember.obj
 0001:000ac770       ??_ECMonsterAIGroupMember@@UAEPAXI@Z 004ad770 f i * CIL library *:* CIL module *
 0001:000ac770       ??_GCMonsterAIGroupMember@@UAEPAXI@Z 004ad770 f i MonsterAIGroupMember.obj
 0001:000ac7a0       ??1CMonsterAIGroupMember@@UAE@XZ 004ad7a0 f   MonsterAIGroupMember.obj
 0001:000ac7b0       ??0CMonsterAIMovePath@@QAE@XZ 004ad7b0 f   MonsterAIMovePath.obj
 0001:000ac7e0       ??_GCMonsterAIMovePath@@UAEPAXI@Z 004ad7e0 f i MonsterAIMovePath.obj
 0001:000ac7e0       ??_ECMonsterAIMovePath@@UAEPAXI@Z 004ad7e0 f i * CIL library *:* CIL module *
 0001:000ac810       ??1CMonsterAIMovePath@@UAE@XZ 004ad810 f   MonsterAIMovePath.obj
 0001:000ac820       ?LoadData@CMonsterAIMovePath@@QAEXPAD@Z 004ad820 f   MonsterAIMovePath.obj
 0001:000ac9f0       ?DelAllAIMonsterMovePath@CMonsterAIMovePath@@QAEXXZ 004ad9f0 f   MonsterAIMovePath.obj
 0001:000aca30       ??0CMonsterAIMovePathInfo@@QAE@XZ 004ada30 f   MonsterAIMovePathInfo.obj
 0001:000aca50       ?LoadData@CMonsterAIRule@@SAXPAD@Z 004ada50 f   MonsterAIRule.obj
 0001:000acdb0       ?DelAllAIRule@CMonsterAIRule@@SAXXZ 004addb0 f   MonsterAIRule.obj
 0001:000ace80       ??0CMonsterAIRuleInfo@@QAE@XZ 004ade80 f   MonsterAIRuleInfo.obj
 0001:000acf00       ??_ECMonsterAIRuleInfo@@UAEPAXI@Z 004adf00 f i * CIL library *:* CIL module *
 0001:000acf00       ??_GCMonsterAIRuleInfo@@UAEPAXI@Z 004adf00 f i MonsterAIRuleInfo.obj
 0001:000acf30       ??1CMonsterAIRuleInfo@@UAE@XZ 004adf30 f   MonsterAIRuleInfo.obj
 0001:000acf40       ?CheckConditionSpecificDate@CMonsterAIRuleInfo@@QAEHXZ 004adf40 f   MonsterAIRuleInfo.obj
 0001:000ad1f0       ??0CMonsterAIState@@QAE@XZ 004ae1f0 f   MonsterAIState.obj
 0001:000ad240       ?LoadData@CMonsterAIUnit@@SAXPAD@Z 004ae240 f   MonsterAIUnit.obj
 0001:000ad6b0       ??0CMonsterAIUnitInfo@@QAE@XZ 004ae6b0 f   MonsterAIUnitInfo.obj
 0001:000ad6d0       ??_ECMonsterAIUnitInfo@@UAEPAXI@Z 004ae6d0 f i * CIL library *:* CIL module *
 0001:000ad6d0       ??_GCMonsterAIUnitInfo@@UAEPAXI@Z 004ae6d0 f i MonsterAIUnitInfo.obj
 0001:000ad700       ??1CMonsterAIUnitInfo@@UAE@XZ 004ae700 f   MonsterAIUnitInfo.obj
 0001:000ad710       ?Reset@CMonsterAIUnitInfo@@QAEXXZ 004ae710 f   MonsterAIUnitInfo.obj
 0001:000ad7b0       ?FindPathToMoveMonster@CMonsterAIUtil@@SAHPAUOBJECTSTRUCT@@HHH_N@Z 004ae7b0 f   MonsterAIUtil.obj
 0001:000adbe0       ?GetXYToPatrol@CMonsterAIUtil@@SAHPAUOBJECTSTRUCT@@@Z 004aebe0 f   MonsterAIUtil.obj
 0001:000add20       ?GetXYToEascape@CMonsterAIUtil@@SAHPAUOBJECTSTRUCT@@@Z 004aed20 f   MonsterAIUtil.obj
 0001:000ae0d0       ?GetXYToChase@CMonsterAIUtil@@SAHPAUOBJECTSTRUCT@@@Z 004af0d0 f   MonsterAIUtil.obj
 0001:000ae470       ?FindMonsterToHeal@CMonsterAIUtil@@SAJPAUOBJECTSTRUCT@@HH@Z 004af470 f   MonsterAIUtil.obj
 0001:000ae610       ??_ECMonsterManager@@UAEPAXI@Z 004af610 f i * CIL library *:* CIL module *
 0001:000ae610       ??_GCMonsterManager@@UAEPAXI@Z 004af610 f i MonsterManager.obj
 0001:000ae640       ?Init@CMonsterManager@@QAEXXZ 004af640 f   MonsterManager.obj
 0001:000ae6a0       ?load_xml@CMonsterManager@@QAEXPAD@Z 004af6a0 f   MonsterManager.obj
 0001:000af3e0       ?LoadTXT@CMonsterManager@@QAEXABV?$basic_string@DU?$char_traits@D@std@@V?$allocator@D@2@@std@@0@Z 004b03e0 f   MonsterManager.obj
 0001:000b0ce0       ?SetMonsterData@CMonsterManager@@QAEXXZ 004b1ce0 f   MonsterManager.obj
 0001:000b0fb0       ??$_Convert_stringoid_to_wide@U_Normal_conversion@filesystem@std@@@filesystem@std@@YA?AV?$basic_string@_WU?$char_traits@_W@std@@V?$allocator@_W@2@@1@V?$basic_string_view@DU?$char_traits@D@std@@@1@U_Normal_conversion@01@@Z 004b1fb0 f i MonsterManager.obj
 0001:000b10b0       ?append@?$basic_string@_WU?$char_traits@_W@std@@V?$allocator@_W@2@@std@@QAEAAV12@I_W@Z 004b20b0 f i MonsterManager.obj
 0001:000b1260       ??0filesystem_error@filesystem@std@@QAE@ABV?$basic_string@DU?$char_traits@D@std@@V?$allocator@D@2@@2@ABVpath@12@1Verror_code@2@@Z 004b2260 f i MonsterManager.obj
 0001:000b1320       ?_Throw_fs_error@filesystem@std@@YAXPBDW4__std_win_error@@ABVpath@12@2@Z 004b2320 f i MonsterManager.obj
 0001:000b13d0       ?_Throw_fs_error@filesystem@std@@YAXPBDW4__std_win_error@@ABVpath@12@@Z 004b23d0 f i MonsterManager.obj
 0001:000b1470       ?_Get_any_status@filesystem@std@@YA?AU_File_status_and_error@12@ABVpath@12@W4__std_fs_stats_flags@@@Z 004b2470 f i MonsterManager.obj
 0001:000b1600       ?make_error_code@std@@YA?AVerror_code@1@W4errc@1@@Z 004b2600 f i MonsterManager.obj
 0001:000b1610       ?_Throw_system_error@std@@YAXW4errc@1@@Z 004b2610 f i MonsterManager.obj
 0001:000b1640       ??0system_error@std@@QAE@Verror_code@1@@Z 004b2640 f i MonsterManager.obj
 0001:000b1710       ?name@_System_error_category@std@@UBEPBDXZ 004b2710 f i MonsterManager.obj
 0001:000b1720       ??1_System_error_message@std@@QAE@XZ 004b2720 f i MonsterManager.obj
 0001:000b1730       ?message@_System_error_category@std@@UBE?AV?$basic_string@DU?$char_traits@D@std@@V?$allocator@D@2@@2@H@Z 004b2730 f i MonsterManager.obj
 0001:000b17d0       ?name@_Generic_error_category@std@@UBEPBDXZ 004b27d0 f i MonsterManager.obj
 0001:000b17e0       ?message@_Generic_error_category@std@@UBE?AV?$basic_string@DU?$char_traits@D@std@@V?$allocator@D@2@@2@H@Z 004b27e0 f i MonsterManager.obj
 0001:000b1830       ?default_error_condition@_System_error_category@std@@UBE?AVerror_condition@2@H@Z 004b2830 f i MonsterManager.obj
 0001:000b18b0       ?_Make_ec@filesystem@std@@YA?AVerror_code@2@W4__std_win_error@@@Z 004b28b0 f i MonsterManager.obj
 0001:000b18c0       ?_Throw_system_error_from_std_win_error@filesystem@std@@YAXW4__std_win_error@@@Z 004b28c0 f i MonsterManager.obj
 0001:000b18f0       ??$_Convert_wide_to_narrow_replace_chars@U?$char_traits@D@std@@V?$allocator@D@2@@filesystem@std@@YA?AV?$basic_string@DU?$char_traits@D@std@@V?$allocator@D@2@@1@W4__std_code_page@@V?$basic_string_view@_WU?$char_traits@_W@std@@@1@ABV?$allocator@D@1@@Z 004b28f0 f i MonsterManager.obj
 0001:000b19d0       ?reserve@?$basic_string@DU?$char_traits@D@std@@V?$allocator@D@2@@std@@QAEXI@Z 004b29d0 f i MonsterManager.obj
 0001:000b1b70       ??$?YV?$basic_string_view@DU?$char_traits@D@std@@@std@@$0A@@?$basic_string@DU?$char_traits@D@std@@V?$allocator@D@2@@std@@QAEAAV01@ABV?$basic_string_view@DU?$char_traits@D@std@@@1@@Z 004b2b70 f i MonsterManager.obj
 0001:000b1be0       ?_Pretty_message@filesystem_error@filesystem@std@@CA?AV?$basic_string@DU?$char_traits@D@std@@V?$allocator@D@2@@3@V?$basic_string_view@DU?$char_traits@D@std@@@3@ABVpath@23@1@Z 004b2be0 f i MonsterManager.obj
 0001:000b1df0       ??0filesystem_error@filesystem@std@@QAE@ABV?$basic_string@DU?$char_traits@D@std@@V?$allocator@D@2@@2@ABVpath@12@Verror_code@2@@Z 004b2df0 f i MonsterManager.obj
 0001:000b1f10       ??1filesystem_error@filesystem@std@@UAE@XZ 004b2f10 f i MonsterManager.obj
 0001:000b1f80       ??_Efilesystem_error@filesystem@std@@UAEPAXI@Z 004b2f80 f i * CIL library *:* CIL module *
 0001:000b1f80       ??_Gfilesystem_error@filesystem@std@@UAEPAXI@Z 004b2f80 f i MonsterManager.obj
 0001:000b2010       ?what@filesystem_error@filesystem@std@@UBEPBDXZ 004b3010 f i MonsterManager.obj
 0001:000b2020       ??0path@filesystem@std@@QAE@ABV012@@Z 004b3020 f i MonsterManager.obj
 0001:000b20c0       ??1path@filesystem@std@@QAE@XZ 004b30c0 f i MonsterManager.obj
 0001:000b20d0       ??0filesystem_error@filesystem@std@@QAE@ABV012@@Z 004b30d0 f i MonsterManager.obj
 0001:000b2180       ?_Throw_fs_error@filesystem@std@@YAXPBDABVerror_code@2@ABVpath@12@@Z 004b3180 f i MonsterManager.obj
 0001:000b2210       ??_GCMonsterSetBase@@UAEPAXI@Z 004b3210 f i MonsterSetBase.obj
 0001:000b2210       ??_ECMonsterSetBase@@UAEPAXI@Z 004b3210 f i * CIL library *:* CIL module *
 0001:000b2260       ?Load@CMonsterSetBase@@QAEXPAD@Z 004b3260 f   MonsterSetBase.obj
 0001:000b2d20       ?generate_xml@CMonsterSetBase@@QBEXXZ 004b3d20 f   MonsterSetBase.obj
 0001:000b4310       ?add_to_list@CMonsterSetBase@@QAEXUMONSTER_SET_BASE_INFO@@@Z 004b5310 f   MonsterSetBase.obj
 0001:000b4790       ??1?$map@HV?$vector@UMONSTER_SET_BASE_INFO@@V?$allocator@UMONSTER_SET_BASE_INFO@@@std@@@std@@U?$less@H@2@V?$allocator@U?$pair@$$CBHV?$vector@UMONSTER_SET_BASE_INFO@@V?$allocator@UMONSTER_SET_BASE_INFO@@@std@@@std@@@std@@@2@@std@@QAE@XZ 004b5790 f i MonsterSetBase.obj
 0001:000b47b0       ??1?$pair@HV?$map@HV?$vector@UMONSTER_SET_BASE_INFO@@V?$allocator@UMONSTER_SET_BASE_INFO@@@std@@@std@@U?$less@H@2@V?$allocator@U?$pair@$$CBHV?$vector@UMONSTER_SET_BASE_INFO@@V?$allocator@UMONSTER_SET_BASE_INFO@@@std@@@std@@@std@@@2@@std@@@std@@QAE@XZ 004b57b0 f i MonsterSetBase.obj
 0001:000b47d0       ?LoadTXT@CMonsterSetBase@@QAEXPAD@Z 004b57d0 f   MonsterSetBase.obj
 0001:000b4ac0       ?SetInfo@CMonsterSetBase@@QAEXUMONSTER_SET_BASE_INFO@@@Z 004b5ac0 f   MonsterSetBase.obj
 0001:000b4b50       ?GetPosition@CMonsterSetBase@@QAE_NHFPAF0@Z 004b5b50 f   MonsterSetBase.obj
 0001:000b4bf0       ?GetBoxPosition@CMonsterSetBase@@QAE_NHHHHHPAF0@Z 004b5bf0 f   MonsterSetBase.obj
 0001:000b4cd0       ??$insert@U?$pair@HV?$vector@UMONSTER_SET_BASE_INFO@@V?$allocator@UMONSTER_SET_BASE_INFO@@@std@@@std@@@std@@$0A@@?$map@HV?$vector@UMONSTER_SET_BASE_INFO@@V?$allocator@UMONSTER_SET_BASE_INFO@@@std@@@std@@U?$less@H@2@V?$allocator@U?$pair@$$CBHV?$vector@UMONSTER_SET_BASE_INFO@@V?$allocator@UMONSTER_SET_BASE_INFO@@@std@@@std@@@std@@@2@@std@@QAE?AU?$pair@V?$_Tree_iterator@V?$_Tree_val@U?$_Tree_simple_types@U?$pair@$$CBHV?$vector@UMONSTER_SET_BASE_INFO@@V?$allocator@UMONSTER_SET_BASE_INFO@@@std@@@std@@@std@@@std@@@std@@@std@@_N@1@$$QAU?$pair@HV?$vector@UMONSTER_SET_BASE_INFO@@V?$allocator@UMONSTER_SET_BASE_INFO@@@std@@@std@@@1@@Z 004b5cd0 f i MonsterSetBase.obj
 0001:000b4e00       ??$_Emplace_reallocate@ABUMONSTER_SET_BASE_INFO@@@?$vector@UMONSTER_SET_BASE_INFO@@V?$allocator@UMONSTER_SET_BASE_INFO@@@std@@@std@@QAEPAUMONSTER_SET_BASE_INFO@@QAU2@ABU2@@Z 004b5e00 f i MonsterSetBase.obj
 0001:000b4f60       ??$_Erase_tree@V?$allocator@U?$_Tree_node@U?$pair@$$CBHV?$map@HV?$vector@UMONSTER_SET_BASE_INFO@@V?$allocator@UMONSTER_SET_BASE_INFO@@@std@@@std@@U?$less@H@2@V?$allocator@U?$pair@$$CBHV?$vector@UMONSTER_SET_BASE_INFO@@V?$allocator@UMONSTER_SET_BASE_INFO@@@std@@@std@@@std@@@2@@std@@@std@@PAX@std@@@std@@@?$_Tree_val@U?$_Tree_simple_types@U?$pair@$$CBHV?$map@HV?$vector@UMONSTER_SET_BASE_INFO@@V?$allocator@UMONSTER_SET_BASE_INFO@@@std@@@std@@U?$less@H@2@V?$allocator@U?$pair@$$CBHV?$vector@UMONSTER_SET_BASE_INFO@@V?$allocator@UMONSTER_SET_BASE_INFO@@@std@@@std@@@std@@@2@@std@@@std@@@std@@@std@@QAEXAAV?$allocator@U?$_Tree_node@U?$pair@$$CBHV?$map@HV?$vector@UMONSTER_SET_BASE_INFO@@V?$allocator@UMONSTER_SET_BASE_INFO@@@std@@@std@@U?$less@H@2@V?$allocator@U?$pair@$$CBHV?$vector@UMONSTER_SET_BASE_INFO@@V?$allocator@UMONSTER_SET_BASE_INFO@@@std@@@std@@@std@@@2@@std@@@std@@PAX@std@@@1@PAU?$_Tree_node@U?$pair@$$CBHV?$map@HV?$vector@UMONSTER_SET_BASE_INFO@@V?$allocator@UMONSTER_SET_BASE_INFO@@@std@@@std@@U?$less@H@2@V?$allocator@U?$pair@$$CBHV?$vector@UMONSTER_SET_BASE_INFO@@V?$allocator@UMONSTER_SET_BASE_INFO@@@std@@@std@@@std@@@2@@std@@@std@@PAX@1@@Z 004b5f60 f i MonsterSetBase.obj
 0001:000b4fc0       ?allocate@?$allocator@UMONSTER_SET_BASE_INFO@@@std@@QAEPAUMONSTER_SET_BASE_INFO@@I@Z 004b5fc0 f i MonsterSetBase.obj
 0001:000b5020       ??$_Copy_nodes@U_Copy_tag@?$_Tree@V?$_Tmap_traits@HV?$vector@UMONSTER_SET_BASE_INFO@@V?$allocator@UMONSTER_SET_BASE_INFO@@@std@@@std@@U?$less@H@2@V?$allocator@U?$pair@$$CBHV?$vector@UMONSTER_SET_BASE_INFO@@V?$allocator@UMONSTER_SET_BASE_INFO@@@std@@@std@@@std@@@2@$0A@@std@@@std@@@?$_Tree@V?$_Tmap_traits@HV?$vector@UMONSTER_SET_BASE_INFO@@V?$allocator@UMONSTER_SET_BASE_INFO@@@std@@@std@@U?$less@H@2@V?$allocator@U?$pair@$$CBHV?$vector@UMONSTER_SET_BASE_INFO@@V?$allocator@UMONSTER_SET_BASE_INFO@@@std@@@std@@@std@@@2@$0A@@std@@@std@@IAEPAU?$_Tree_node@U?$pair@$$CBHV?$vector@UMONSTER_SET_BASE_INFO@@V?$allocator@UMONSTER_SET_BASE_INFO@@@std@@@std@@@std@@PAX@1@PAU21@0U_Copy_tag@01@@Z 004b6020 f i MonsterSetBase.obj
 0001:000b5170       ?LoadData@CMonsterSkillElement@@SAXPAD@Z 004b6170 f   MonsterSkillElement.obj
 0001:000b5420       ?DelAllSkillElement@CMonsterSkillElement@@SAXXZ 004b6420 f   MonsterSkillElement.obj
 0001:000b54a0       ??0CMonsterSkillElementInfo@@QAE@XZ 004b64a0 f   MonsterSkillElementInfo.obj
 0001:000b5500       ??_GCMonsterSkillElementInfo@@UAEPAXI@Z 004b6500 f i MonsterSkillElementInfo.obj
 0001:000b5500       ??_ECMonsterSkillElementInfo@@UAEPAXI@Z 004b6500 f i * CIL library *:* CIL module *
 0001:000b5530       ??1CMonsterSkillElementInfo@@UAE@XZ 004b6530 f   MonsterSkillElementInfo.obj
 0001:000b5540       ?ForceSkillElementInfo@CMonsterSkillElementInfo@@QAEXHH@Z 004b6540 f   MonsterSkillElementInfo.obj
 0001:000b62a0       ?ApplyElementSummon@CMonsterSkillElementInfo@@QAEXHH@Z 004b72a0 f   MonsterSkillElementInfo.obj
 0001:000b6540       ?Reset@CMonsterSkillElementOption@@QAEXXZ 004b7540 f   MonsterSkillElementOption.obj
 0001:000b65e0       ?CheckSkillElementOptionProc@CMonsterSkillElementOption@@SAXPAUOBJECTSTRUCT@@@Z 004b75e0 f   MonsterSkillElementOption.obj
 0001:000b68d0       ??0CMonsterSkillInfo@@QAE@XZ 004b78d0 f   MonsterSkillInfo.obj
 0001:000b68e0       ?Reset@CMonsterSkillInfo@@QAEXXZ 004b78e0 f   MonsterSkillInfo.obj
 0001:000b6980       ?LoadData@CMonsterSkillManager@@SAXPAD@Z 004b7980 f   MonsterSkillManager.obj
 0001:000b6bb0       ?FindMonsterSkillUnitInfo@CMonsterSkillManager@@SAPAVCMonsterSkillUnitInfo@@HH@Z 004b7bb0 f   MonsterSkillManager.obj
 0001:000b6cf0       ?UseMonsterSkill@CMonsterSkillManager@@SAXHHHHPAVCSkill@@@Z 004b7cf0 f   MonsterSkillManager.obj
 0001:000b6fd0       ?SpecialMonsterSkillAttack@CMonsterSkillManager@@SAXPAUOBJECTSTRUCT@@0PAVCSkill@@PAVCMonsterSkillUnitInfo@@@Z 004b7fd0 f   MonsterSkillManager.obj
 0001:000b7090       ?LoadData@CMonsterSkillUnit@@SAXPAD@Z 004b8090 f   MonsterSkillUnit.obj
 0001:000b7370       ?DelAllSkillUnit@CMonsterSkillUnit@@SAXXZ 004b8370 f   MonsterSkillUnit.obj
 0001:000b7410       ??0CMonsterSkillUnitInfo@@QAE@XZ 004b8410 f   MonsterSkillUnitInfo.obj
 0001:000b7480       ??_GCMonsterSkillUnitInfo@@UAEPAXI@Z 004b8480 f i MonsterSkillUnitInfo.obj
 0001:000b7480       ??_ECMonsterSkillUnitInfo@@UAEPAXI@Z 004b8480 f i * CIL library *:* CIL module *
 0001:000b74b0       ??1CMonsterSkillUnitInfo@@UAE@XZ 004b84b0 f   MonsterSkillUnitInfo.obj
 0001:000b74c0       ?Load@cMonsterCall@@QAEXPAD@Z 004b84c0 f   MonsterCall.obj
 0001:000b76b0       ?SetMonster@cMonsterCall@@QAEHPAUOBJECTSTRUCT@@PAVCItem@@@Z 004b86b0 f   MonsterCall.obj
 0001:000b7a80       ?RespawnMonster@cMonsterCall@@QAEHPAUOBJECTSTRUCT@@@Z 004b8a80 f   MonsterCall.obj
 0001:000b7d00       ??$_Emplace_reallocate@ABUCALL_INFO@@@?$vector@UCALL_INFO@@V?$allocator@UCALL_INFO@@@std@@@std@@QAEPAUCALL_INFO@@QAU2@ABU2@@Z 004b8d00 f i MonsterCall.obj
 0001:000b7f00       ??_GCMonsterSpawn@@UAEPAXI@Z 004b8f00 f i MonsterSpawn.obj
 0001:000b7f00       ??_ECMonsterSpawn@@UAEPAXI@Z 004b8f00 f i * CIL library *:* CIL module *
 0001:000b7f30       ?Load@CMonsterSpawn@@QAEXPAD@Z 004b8f30 f   MonsterSpawn.obj
 0001:000b8170       ?CreateMonsterCallback@CMonsterSpawn@@SAXPAUOBJECTSTRUCT@@PADKKKK@Z 004b9170 f   MonsterSpawn.obj
 0001:000b85c0       ?CheckReq@CMonsterSpawn@@QAE_NPAUOBJECTSTRUCT@@HKKK@Z 004b95c0 f   MonsterSpawn.obj
 0001:000b8850       ??_ECMossMerchant@@UAEPAXI@Z 004b9850 f i * CIL library *:* CIL module *
 0001:000b8850       ??_GCMossMerchant@@UAEPAXI@Z 004b9850 f i MossMerchant.obj
 0001:000b8890       ?Load@CMossMerchant@@QAEXPAD@Z 004b9890 f   MossMerchant.obj
 0001:000b8c90       ?SetState@CMossMerchant@@QAEXH@Z 004b9c90 f   MossMerchant.obj
 0001:000b8db0       ?SetState_EMPTY@CMossMerchant@@QAEXXZ 004b9db0 f   MossMerchant.obj
 0001:000b8f90       ?GambleItem@CMossMerchant@@QAE_NPAUOBJECTSTRUCT@@H@Z 004b9f90 f   MossMerchant.obj
 0001:000b91c0       ??_ECMove@@UAEPAXI@Z       004ba1c0 f i * CIL library *:* CIL module *
 0001:000b91c0       ??_GCMove@@UAEPAXI@Z       004ba1c0 f i Move.obj
 0001:000b91f0       ?Load@CMove@@QAEXPAD@Z     004ba1f0 f   Move.obj
 0001:000b9520       ?GetInfo@CMove@@QAE_NHPAUMOVE_INFO@@@Z 004ba520 f   Move.obj
 0001:000b9590       ?Move@CMove@@QAEXPAUOBJECTSTRUCT@@H@Z 004ba590 f   Move.obj
 0001:000b9c10       ?CGTeleportRecv@CMove@@QAEXPAUPMSG_TELEPORT_RECV@@H@Z 004bac10 f   Move.obj
 0001:000ba250       ?clear@?$_Tree@V?$_Tmap_traits@HUMOVE_INFO@@U?$less@H@std@@V?$allocator@U?$pair@$$CBHUMOVE_INFO@@@std@@@3@$0A@@std@@@std@@QAEXXZ 004bb250 f i Move.obj
 0001:000ba2a0       ??1?$_Tree@V?$_Tmap_traits@HUMOVE_INFO@@U?$less@H@std@@V?$allocator@U?$pair@$$CBHUMOVE_INFO@@@std@@@3@$0A@@std@@@std@@QAE@XZ 004bb2a0 f i Move.obj
 0001:000ba2a0       ??1?$_Tree@V?$_Tmap_traits@HUPENTAGRAM_JEWEL_OPTION_INFO@@U?$less@H@std@@V?$allocator@U?$pair@$$CBHUPENTAGRAM_JEWEL_OPTION_INFO@@@std@@@3@$0A@@std@@@std@@QAE@XZ 004bb2a0 f i PentagramSystem.obj
 0001:000ba2e0       ??$_Erase_tree@V?$allocator@U?$_Tree_node@U?$pair@$$CBHUMOVE_INFO@@@std@@PAX@std@@@std@@@?$_Tree_val@U?$_Tree_simple_types@U?$pair@$$CBHUMOVE_INFO@@@std@@@std@@@std@@QAEXAAV?$allocator@U?$_Tree_node@U?$pair@$$CBHUMOVE_INFO@@@std@@PAX@std@@@1@PAU?$_Tree_node@U?$pair@$$CBHUMOVE_INFO@@@std@@PAX@1@@Z 004bb2e0 f i Move.obj
 0001:000ba2e0       ??$_Erase_tree@V?$allocator@U?$_Tree_node@U?$pair@$$CBHUPENTAGRAM_JEWEL_OPTION_INFO@@@std@@PAX@std@@@std@@@?$_Tree_val@U?$_Tree_simple_types@U?$pair@$$CBHUPENTAGRAM_JEWEL_OPTION_INFO@@@std@@@std@@@std@@QAEXAAV?$allocator@U?$_Tree_node@U?$pair@$$CBHUPENTAGRAM_JEWEL_OPTION_INFO@@@std@@PAX@std@@@1@PAU?$_Tree_node@U?$pair@$$CBHUPENTAGRAM_JEWEL_OPTION_INFO@@@std@@PAX@1@@Z 004bb2e0 f i PentagramSystem.obj
 0001:000ba320       ??1?$_Alloc_construct_ptr@V?$allocator@U?$_Tree_node@U?$pair@$$CBHUMOVE_INFO@@@std@@PAX@std@@@std@@@std@@QAE@XZ 004bb320 f i Move.obj
 0001:000ba340       ??_ECMoveSummon@@UAEPAXI@Z 004bb340 f i * CIL library *:* CIL module *
 0001:000ba340       ??_GCMoveSummon@@UAEPAXI@Z 004bb340 f i MoveSummon.obj
 0001:000ba370       ?Load@CMoveSummon@@QAEXPAD@Z 004bb370 f   MoveSummon.obj
 0001:000ba5b0       ?CheckMoveSummon@CMoveSummon@@QAE_NPAUOBJECTSTRUCT@@HHH@Z 004bb5b0 f   MoveSummon.obj
 0001:000ba760       ?Generic_Call@MULua@@QAA_NPBD0ZZ 004bb760 f   MuLua.obj
 0001:000bad20       ??_ECMuRummyMng@@UAEPAXI@Z 004bbd20 f i * CIL library *:* CIL module *
 0001:000bad20       ??_GCMuRummyMng@@UAEPAXI@Z 004bbd20 f i MuRummy.obj
 0001:000bad50       ??_GCMuunSystem@@UAEPAXI@Z 004bbd50 f i MuunSystem.obj
 0001:000bad50       ??_ECMuunSystem@@UAEPAXI@Z 004bbd50 f i * CIL library *:* CIL module *
 0001:000bad90       ??1?$map@HUMUUN_SYSTEM_INFO@@U?$less@H@std@@V?$allocator@U?$pair@$$CBHUMUUN_SYSTEM_INFO@@@std@@@3@@std@@QAE@XZ 004bbd90 f i MuunSystem.obj
 0001:000bada0       ??1?$_Tree@V?$_Tmap_traits@HUMUUN_SYSTEM_OPTION_INFO@@U?$less@H@std@@V?$allocator@U?$pair@$$CBHUMUUN_SYSTEM_OPTION_INFO@@@std@@@3@$0A@@std@@@std@@QAE@XZ 004bbda0 f i MuunSystem.obj
 0001:000bade0       ??$_Erase_tree@V?$allocator@U?$_Tree_node@U?$pair@$$CBHUMUUN_SYSTEM_OPTION_INFO@@@std@@PAX@std@@@std@@@?$_Tree_val@U?$_Tree_simple_types@U?$pair@$$CBHUMUUN_SYSTEM_OPTION_INFO@@@std@@@std@@@std@@QAEXAAV?$allocator@U?$_Tree_node@U?$pair@$$CBHUMUUN_SYSTEM_OPTION_INFO@@@std@@PAX@std@@@1@PAU?$_Tree_node@U?$pair@$$CBHUMUUN_SYSTEM_OPTION_INFO@@@std@@PAX@1@@Z 004bbde0 f i MuunSystem.obj
 0001:000bae20       ?Init@NewsBoard@@QAEXXZ    004bbe20 f   NewsBoard.obj
 0001:000bae70       ?ReadListData@NewsBoard@@QAEXPAD@Z 004bbe70 f   NewsBoard.obj
 0001:000bb090       ?OpenMain@NewsBoard@@QAEXPAUOBJECTSTRUCT@@@Z 004bc090 f   NewsBoard.obj
 0001:000bb170       ??_ECNotice@@UAEPAXI@Z     004bc170 f i * CIL library *:* CIL module *
 0001:000bb170       ??_GCNotice@@UAEPAXI@Z     004bc170 f i Notice.obj
 0001:000bb1a0       ?Load@CNotice@@QAEXPAD@Z   004bc1a0 f   Notice.obj
 0001:000bb420       ?GCNoticeSend@CNotice@@QAAXHEEEGKEPADZZ 004bc420 f   Notice.obj
 0001:000bb520       ?GCNoticeSendToAll@CNotice@@QAAXEEEGKEPADZZ 004bc520 f   Notice.obj
 0001:000bb650       ?GCNoticeSendToMap@CNotice@@QAAXHEEEGKEPADZZ 004bc650 f   Notice.obj
 0001:000bb790       ??_ECNpcTalk@@UAEPAXI@Z    004bc790 f i * CIL library *:* CIL module *
 0001:000bb790       ??_GCNpcTalk@@UAEPAXI@Z    004bc790 f i NpcTalk.obj
 0001:000bb7d0       ?NpcTalk@CNpcTalk@@QAE_NPAUOBJECTSTRUCT@@0@Z 004bc7d0 f   NpcTalk.obj
 0001:000bdd20       ?NpcChaosGoblin@CNpcTalk@@QAEXPAUOBJECTSTRUCT@@0@Z 004bed20 f   NpcTalk.obj
 0001:000bde10       ?NpcChristmas@CNpcTalk@@QAEXPAUOBJECTSTRUCT@@0@Z 004bee10 f   NpcTalk.obj
 0001:000bdf90       ?NpcSartiganTheAngel@CNpcTalk@@QAEXPAUOBJECTSTRUCT@@0@Z 004bef90 f   NpcTalk.obj
 0001:000be150       ?CGNpcTalkRecv@CNpcTalk@@QAEXPAUPMSG_NPC_TALK_RECV@@H@Z 004bf150 f   NpcTalk.obj
 0001:000be600       ?CGNpcTalkCloseRecv@CNpcTalk@@QAEXH@Z 004bf600 f   NpcTalk.obj
 0001:000be810       ??_GNPCTeleport@@UAEPAXI@Z 004bf810 f i NPCTeleport.obj
 0001:000be810       ??_ENPCTeleport@@UAEPAXI@Z 004bf810 f i * CIL library *:* CIL module *
 0001:000be850       ?Load@NPCTeleport@@QAEXPAD@Z 004bf850 f   NPCTeleport.obj
 0001:000bec80       ?TeleportCallback@NPCTeleport@@SAXPAUOBJECTSTRUCT@@QADKKKK@Z 004bfc80 f   NPCTeleport.obj
 0001:000bee00       ?TeleportNpcCallback@NPCTeleport@@SAXPAUOBJECTSTRUCT@@0KKKK@Z 004bfe00 f   NPCTeleport.obj
 0001:000bef60       ?Teleport@NPCTeleport@@QAEXPAUOBJECTSTRUCT@@UTELEPORT_DATA@@UWCOINS_STRUCT@@@Z 004bff60 f   NPCTeleport.obj
 0001:000bf500       ??_ECObjectManager@@UAEPAXI@Z 004c0500 f i * CIL library *:* CIL module *
 0001:000bf500       ??_GCObjectManager@@UAEPAXI@Z 004c0500 f i ObjectManager.obj
 0001:000bf530       ?ObjectMsgProc@CObjectManager@@QAEXPAUOBJECTSTRUCT@@@Z 004c0530 f   ObjectManager.obj
 0001:000bf5f0       ?ObjectSetStateCreate@CObjectManager@@QAEXH@Z 004c05f0 f   ObjectManager.obj
 0001:000bfa10       ?ObjectSetStateProc@CObjectManager@@QAEXXZ 004c0a10 f   ObjectManager.obj
 0001:000c02b0       ?ObjectStateProc@CObjectManager@@QAEXPAUOBJECTSTRUCT@@HHH@Z 004c12b0 f   ObjectManager.obj
 0001:000c0490       ?ObjectStateAttackProc@CObjectManager@@QAEXPAUOBJECTSTRUCT@@HHHH@Z 004c1490 f   ObjectManager.obj
 0001:000c0740       ?ObjectMoveProc@CObjectManager@@QAEXXZ 004c1740 f   ObjectManager.obj
 0001:000c0b20       ?ObjectMonsterAndMsgProc@CObjectManager@@QAEXXZ 004c1b20 f   ObjectManager.obj
 0001:000c0fd0       ?CharacterGameClose@CObjectManager@@QAE_NH@Z 004c1fd0 f   ObjectManager.obj
 0001:000c19c0       ?CharacterGameCloseSet@CObjectManager@@QAEXHH@Z 004c29c0 f   ObjectManager.obj
 0001:000c1be0       ?CharacterGetRespawnLocation@CObjectManager@@QAE_NPAUOBJECTSTRUCT@@@Z 004c2be0 f   ObjectManager.obj
 0001:000c2200       ?CharacterCalcExperienceSplit@CObjectManager@@QAEXPAUOBJECTSTRUCT@@0HH@Z 004c3200 f   ObjectManager.obj
 0001:000c2290       ?CharacterCalcExperienceAlone@CObjectManager@@QAEXPAUOBJECTSTRUCT@@0HH_NH@Z 004c3290 f   ObjectManager.obj
 0001:000c2d10       ?CharacterCalcExperienceParty@CObjectManager@@QAEXPAUOBJECTSTRUCT@@0HH@Z 004c3d10 f   ObjectManager.obj
 0001:000c3d70       ?CharacterLevelUp@CObjectManager@@QAE_NPAUOBJECTSTRUCT@@KHH@Z 004c4d70 f   ObjectManager.obj
 0001:000c4390       ?CharacterLevelUpPointAdd@CObjectManager@@QAE_NPAUOBJECTSTRUCT@@HH@Z 004c5390 f   ObjectManager.obj
 0001:000c4510       ?CharacterPetLevelUp@CObjectManager@@QAEXPAUOBJECTSTRUCT@@K@Z 004c5510 f   ObjectManager.obj
 0001:000c46f0       ?CharacterMakePreviewCharSet@CObjectManager@@QAEXH@Z 004c56f0 f   ObjectManager.obj
 0001:000c51c0       ?CharacterUseScroll@CObjectManager@@QAE_NPAUOBJECTSTRUCT@@PAVCItem@@@Z 004c61c0 f   ObjectManager.obj
 0001:000c55a0       ?CharacterUsePotion@CObjectManager@@QAE_NPAUOBJECTSTRUCT@@PAVCItem@@@Z 004c65a0 f   ObjectManager.obj
 0001:000c59a0       ?CharacterUsePortal@CObjectManager@@QAE_NPAUOBJECTSTRUCT@@PAVCItem@@@Z 004c69a0 f   ObjectManager.obj
 0001:000c5c20       ?CharacterUseJewelOfBles@CObjectManager@@QAE_NPAUOBJECTSTRUCT@@HH@Z 004c6c20 f   ObjectManager.obj
 0001:000c5e90       ?CharacterUseJewelOfSoul@CObjectManager@@QAE_NPAUOBJECTSTRUCT@@HH@Z 004c6e90 f   ObjectManager.obj
 0001:000c60d0       ?CharacterUseJewelOfLife@CObjectManager@@QAE_NPAUOBJECTSTRUCT@@HH@Z 004c70d0 f   ObjectManager.obj
 0001:000c63c0       ?CharacterUseCustomJewel@CObjectManager@@QAE_NPAUOBJECTSTRUCT@@HH@Z 004c73c0 f   ObjectManager.obj
 0001:000c69d0       ?CharacterUseTalismanOfResurrection@CObjectManager@@QAE_NPAUOBJECTSTRUCT@@H@Z 004c79d0 f   ObjectManager.obj
 0001:000c6b00       ?CharacterUseCreationCard@CObjectManager@@QAE_NPAUOBJECTSTRUCT@@PAVCItem@@@Z 004c7b00 f   ObjectManager.obj
 0001:000c6c70       ?CharacterMonsterDieHunt@CObjectManager@@QAEXPAUOBJECTSTRUCT@@0@Z 004c7c70 f   ObjectManager.obj
 0001:000c6e00       ?CharacterAutoRecuperation@CObjectManager@@QAEXPAUOBJECTSTRUCT@@@Z 004c7e00 f   ObjectManager.obj
 0001:000c7200       ?CharacterItemDurationDown@CObjectManager@@QAEXPAUOBJECTSTRUCT@@@Z 004c8200 f   ObjectManager.obj
 0001:000c7800       ?CharacterCalcBP@CObjectManager@@QAEXPAUOBJECTSTRUCT@@@Z 004c8800 f   ObjectManager.obj
 0001:000c7b10       ?CharacterCalcAttribute@CObjectManager@@QAEXH@Z 004c8b10 f   ObjectManager.obj
 0001:000ca690       ?CharacterInfoSet@CObjectManager@@QAE_NPAEH@Z 004cb690 f   ObjectManager.obj
 0001:000cbad0       ?CharacterLifeCheck@CObjectManager@@QAEXPAUOBJECTSTRUCT@@0HHHHHH@Z 004ccad0 f   ObjectManager.obj
 0001:000ccad0       ??_GcOfflineData@@UAEPAXI@Z 004cdad0 f i OfflineData.obj
 0001:000ccad0       ??_EcOfflineData@@UAEPAXI@Z 004cdad0 f i * CIL library *:* CIL module *
 0001:000ccb20       ??$_Erase_tree@V?$allocator@U?$_Tree_node@U?$pair@$$CBV?$basic_string@DU?$char_traits@D@std@@V?$allocator@D@2@@std@@UOFFLINE_DATA@@@std@@PAX@std@@@std@@@?$_Tree_val@U?$_Tree_simple_types@U?$pair@$$CBV?$basic_string@DU?$char_traits@D@std@@V?$allocator@D@2@@std@@UOFFLINE_DATA@@@std@@@std@@@std@@QAEXAAV?$allocator@U?$_Tree_node@U?$pair@$$CBV?$basic_string@DU?$char_traits@D@std@@V?$allocator@D@2@@std@@UOFFLINE_DATA@@@std@@PAX@std@@@1@PAU?$_Tree_node@U?$pair@$$CBV?$basic_string@DU?$char_traits@D@std@@V?$allocator@D@2@@std@@UOFFLINE_DATA@@@std@@PAX@1@@Z 004cdb20 f i OfflineData.obj
 0001:000ccbb0       ?LoadSkillsInfo@cOfflineMode@@QAEXPAD@Z 004cdbb0 f   OfflineMode.obj
 0001:000cce20       ?CheckSkill@cOfflineMode@@QAE_NPAUOBJECTSTRUCT@@H@Z 004cde20 f   OfflineMode.obj
 0001:000ccf00       ?GCOfflineModeSend@cOfflineMode@@QAEXH@Z 004cdf00 f   OfflineMode.obj
 0001:000cd760       ?CGOfflineModeStartRecv@cOfflineMode@@QAEXPAUPMSG_OFFLINEMODE_DATA_RECV@@H@Z 004ce760 f   OfflineMode.obj
 0001:000cdb20       ?PickItems@cOfflineMode@@QAEXPAUOBJECTSTRUCT@@@Z 004ceb20 f   OfflineMode.obj
 0001:000cdea0       ?GetSelectedItems@cOfflineMode@@QAEXPAUOBJECTSTRUCT@@@Z 004ceea0 f   OfflineMode.obj
 0001:000ce0f0       ?UseBuffs@cOfflineMode@@QAEXPAUOBJECTSTRUCT@@@Z 004cf0f0 f   OfflineMode.obj
 0001:000ce4b0       ??$_Emplace_reallocate@ABUSKILLS_INFO@@@?$vector@USKILLS_INFO@@V?$allocator@USKILLS_INFO@@@std@@@std@@QAEPAUSKILLS_INFO@@QAU2@ABU2@@Z 004cf4b0 f i OfflineMode.obj
 0001:000ce680       ?Check@cOfflineProtection@@QAE_NXZ 004cf680 f   OfflineProtection.obj
 0001:000ce8b0       ?Load@COptionReplace@@QAEXPAD@Z 004cf8b0 f   OptionReplace.obj
 0001:000ceac0       ??$_Emplace_reallocate@AAUOPTION_REPLACE_INFO@@@?$vector@UOPTION_REPLACE_INFO@@V?$allocator@UOPTION_REPLACE_INFO@@@std@@@std@@QAEPAUOPTION_REPLACE_INFO@@QAU2@AAU2@@Z 004cfac0 f i OptionReplace.obj
 0001:000cec90       ??_GCPacketManager@@UAEPAXI@Z 004cfc90 f i PacketManager.obj
 0001:000cec90       ??_ECPacketManager@@UAEPAXI@Z 004cfc90 f i * CIL library *:* CIL module *
 0001:000cecc0       ?LoadKey@CPacketManager@@QAE_NPADG_N@Z 004cfcc0 f   PacketManager.obj
 0001:000cee40       ?Encrypt@CPacketManager@@QAEHPAE0H@Z 004cfe40 f   PacketManager.obj
 0001:000cf010       ?Decrypt@CPacketManager@@QAEHPAE0H@Z 004d0010 f   PacketManager.obj
 0001:000cf1e0       ?AddBits@CPacketManager@@QAEHPAEH0HH@Z 004d01e0 f   PacketManager.obj
 0001:000cf380       ?Shift@CPacketManager@@QAEXPAEHH@Z 004d0380 f   PacketManager.obj
 0001:000cf410       ?ExtractPacket@CPacketManager@@QAE_NPAE@Z 004d0410 f   PacketManager.obj
 0001:000cf4a0       ?Load@CPackSystem@@QAEXPAD@Z 004d04a0 f   PackSystem.obj
 0001:000cf860       ?CGMixRecv@CPackSystem@@QAEXPAUCG_MIX_RECV@@H@Z 004d0860 f   PackSystem.obj
 0001:000cfa70       ?CGUnMixRecv@CPackSystem@@QAEXPAUCG_UNMIX_RECV@@H@Z 004d0a70 f   PackSystem.obj
 0001:000cfc70       ??$_Emplace_reallocate@ABUPackSystemData@@@?$vector@UPackSystemData@@V?$allocator@UPackSystemData@@@std@@@std@@QAEPAUPackSystemData@@QAU2@ABU2@@Z 004d0c70 f i PackSystem.obj
 0001:000cfdf0       ??_GCParty@@UAEPAXI@Z      004d0df0 f i Party.obj
 0001:000cfdf0       ??_ECParty@@UAEPAXI@Z      004d0df0 f i * CIL library *:* CIL module *
 0001:000cfe20       ?Create@CParty@@QAE_NH@Z   004d0e20 f   Party.obj
 0001:000cff00       ?Destroy@CParty@@QAE_NH@Z  004d0f00 f   Party.obj
 0001:000cffd0       ?AddMember@CParty@@QAE_NHH@Z 004d0fd0 f   Party.obj
 0001:000d0070       ?DelMember@CParty@@QAE_NHH@Z 004d1070 f   Party.obj
 0001:000d0150       ?SetLeader@CParty@@QAE_NHH@Z 004d1150 f   Party.obj
 0001:000d02e0       ?PartyMoveUser@CParty@@QAEXPAUOBJECTSTRUCT@@H@Z 004d12e0 f   Party.obj
 0001:000d04b0       ?SetLeader@CParty@@QAEXPAUOBJECTSTRUCT@@H@Z 004d14b0 f   Party.obj
 0001:000d0660       ?AutoAcceptPartyRequest@CParty@@QAE_NPAUOBJECTSTRUCT@@0@Z 004d1660 f   Party.obj
 0001:000d08c0       ?CGPartyRequestRecv@CParty@@QAEXPAUPMSG_PARTY_REQUEST_RECV@@H@Z 004d18c0 f   Party.obj
 0001:000d0dc0       ?CGPartyRequestResultRecv@CParty@@QAEXPAUPMSG_PARTY_REQUEST_RESULT_RECV@@H@Z 004d1dc0 f   Party.obj
 0001:000d1030       ?CGPartyDelMemberRecv@CParty@@QAEXPAUPMSG_PARTY_DEL_MEMBER_RECV@@H@Z 004d2030 f   Party.obj
 0001:000d1190       ?GCPartyListSend@CParty@@QAEXH@Z 004d2190 f   Party.obj
 0001:000d1510       ?GCPartyDelMemberSend@CParty@@QAEXH@Z 004d2510 f   Party.obj
 0001:000d1570       ??_GCPartyMatching@@UAEPAXI@Z 004d2570 f i PartyMatching.obj
 0001:000d1570       ??_ECPartyMatching@@UAEPAXI@Z 004d2570 f i * CIL library *:* CIL module *
 0001:000d15a0       ?PartySearchAddToList@cPartySearch@@QAEXPAUPMSG_RECV_PARTYSEARCH_ADD@@H@Z 004d25a0 f   PartySearch.obj
 0001:000d1af0       ?GCPartyListSend@cPartySearch@@QAEXH@Z 004d2af0 f   PartySearch.obj
 0001:000d2130       ?RequestParty@cPartySearch@@QAEXPAUPMSG_PARTY_REQ_REQ@@H@Z 004d3130 f   PartySearch.obj
 0001:000d2470       ?SendPartySettings@cPartySearch@@QAEXPAUOBJECTSTRUCT@@@Z 004d3470 f   PartySearch.obj
 0001:000d26b0       ??$erase@V?$_Tree_iterator@V?$_Tree_val@U?$_Tree_simple_types@U?$pair@$$CBV?$basic_string@DU?$char_traits@D@std@@V?$allocator@D@2@@std@@UREGISTERED_INFO@@@std@@@std@@@std@@@std@@$0A@@?$_Tree@V?$_Tmap_traits@V?$basic_string@DU?$char_traits@D@std@@V?$allocator@D@2@@std@@UREGISTERED_INFO@@U?$less@V?$basic_string@DU?$char_traits@D@std@@V?$allocator@D@2@@std@@@2@V?$allocator@U?$pair@$$CBV?$basic_string@DU?$char_traits@D@std@@V?$allocator@D@2@@std@@UREGISTERED_INFO@@@std@@@2@$0A@@std@@@std@@QAE?AV?$_Tree_iterator@V?$_Tree_val@U?$_Tree_simple_types@U?$pair@$$CBV?$basic_string@DU?$char_traits@D@std@@V?$allocator@D@2@@std@@UREGISTERED_INFO@@@std@@@std@@@std@@@1@V21@@Z 004d36b0 f i PartySearch.obj
 0001:000d2740       ??$_Erase_tree@V?$allocator@U?$_Tree_node@U?$pair@$$CBV?$basic_string@DU?$char_traits@D@std@@V?$allocator@D@2@@std@@UREGISTERED_INFO@@@std@@PAX@std@@@std@@@?$_Tree_val@U?$_Tree_simple_types@U?$pair@$$CBV?$basic_string@DU?$char_traits@D@std@@V?$allocator@D@2@@std@@UREGISTERED_INFO@@@std@@@std@@@std@@QAEXAAV?$allocator@U?$_Tree_node@U?$pair@$$CBV?$basic_string@DU?$char_traits@D@std@@V?$allocator@D@2@@std@@UREGISTERED_INFO@@@std@@PAX@std@@@1@PAU?$_Tree_node@U?$pair@$$CBV?$basic_string@DU?$char_traits@D@std@@V?$allocator@D@2@@std@@UREGISTERED_INFO@@@std@@PAX@1@@Z 004d3740 f i PartySearch.obj
 0001:000d27d0       ??$emplace@U?$pair@V?$basic_string@DU?$char_traits@D@std@@V?$allocator@D@2@@std@@UREGISTERED_INFO@@@std@@@?$_Tree@V?$_Tmap_traits@V?$basic_string@DU?$char_traits@D@std@@V?$allocator@D@2@@std@@UREGISTERED_INFO@@U?$less@V?$basic_string@DU?$char_traits@D@std@@V?$allocator@D@2@@std@@@2@V?$allocator@U?$pair@$$CBV?$basic_string@DU?$char_traits@D@std@@V?$allocator@D@2@@std@@UREGISTERED_INFO@@@std@@@2@$0A@@std@@@std@@QAE?AU?$pair@V?$_Tree_iterator@V?$_Tree_val@U?$_Tree_simple_types@U?$pair@$$CBV?$basic_string@DU?$char_traits@D@std@@V?$allocator@D@2@@std@@UREGISTERED_INFO@@@std@@@std@@@std@@@std@@_N@1@$$QAU?$pair@V?$basic_string@DU?$char_traits@D@std@@V?$allocator@D@2@@std@@UREGISTERED_INFO@@@1@@Z 004d37d0 f i PartySearch.obj
 0001:000d2920       ??1?$_Alloc_construct_ptr@V?$allocator@U?$_Tree_node@U?$pair@$$CBV?$basic_string@DU?$char_traits@D@std@@V?$allocator@D@2@@std@@UREGISTERED_INFO@@@std@@PAX@std@@@std@@@std@@QAE@XZ 004d3920 f i PartySearch.obj
 0001:000d2940       ??_GCPath@@UAEPAXI@Z       004d3940 f i Path.obj
 0001:000d2940       ??_ECPath@@UAEPAXI@Z       004d3940 f i * CIL library *:* CIL module *
 0001:000d2970       ??_GCShop@@UAEPAXI@Z       004d3970 f i Shop.obj
 0001:000d2970       ??_GCPcPoint@@UAEPAXI@Z    004d3970 f i PcPoint.obj
 0001:000d2970       ??_ECPcPoint@@UAEPAXI@Z    004d3970 f i * CIL library *:* CIL module *
 0001:000d2970       ??_ECShop@@UAEPAXI@Z       004d3970 f i * CIL library *:* CIL module *
 0001:000d29a0       ??_ECPentagramSystem@@UAEPAXI@Z 004d39a0 f i * CIL library *:* CIL module *
 0001:000d29a0       ??_GCPentagramSystem@@UAEPAXI@Z 004d39a0 f i PentagramSystem.obj
 0001:000d2a00       ??1?$map@HUPENTAGRAM_JEWEL_OPTION_INFO@@U?$less@H@std@@V?$allocator@U?$pair@$$CBHUPENTAGRAM_JEWEL_OPTION_INFO@@@std@@@3@@std@@QAE@XZ 004d3a00 f i PentagramSystem.obj
 0001:000d2a10       ??1?$map@HUPENTAGRAM_JEWEL_REMOVE_INFO@@U?$less@H@std@@V?$allocator@U?$pair@$$CBHUPENTAGRAM_JEWEL_REMOVE_INFO@@@std@@@3@@std@@QAE@XZ 004d3a10 f i PentagramSystem.obj
 0001:000d2a20       ??1?$_Tree@V?$_Tmap_traits@HUPENTAGRAM_JEWEL_REMOVE_INFO@@U?$less@H@std@@V?$allocator@U?$pair@$$CBHUPENTAGRAM_JEWEL_REMOVE_INFO@@@std@@@3@$0A@@std@@@std@@QAE@XZ 004d3a20 f i PentagramSystem.obj
 0001:000d2a60       ??$_Erase_tree@V?$allocator@U?$_Tree_node@U?$pair@$$CBHUPENTAGRAM_JEWEL_REMOVE_INFO@@@std@@PAX@std@@@std@@@?$_Tree_val@U?$_Tree_simple_types@U?$pair@$$CBHUPENTAGRAM_JEWEL_REMOVE_INFO@@@std@@@std@@@std@@QAEXAAV?$allocator@U?$_Tree_node@U?$pair@$$CBHUPENTAGRAM_JEWEL_REMOVE_INFO@@@std@@PAX@std@@@1@PAU?$_Tree_node@U?$pair@$$CBHUPENTAGRAM_JEWEL_REMOVE_INFO@@@std@@PAX@1@@Z 004d3a60 f i PentagramSystem.obj
 0001:000d2aa0       ??_ECPersonalShop@@UAEPAXI@Z 004d3aa0 f i * CIL library *:* CIL module *
 0001:000d2aa0       ??_GCPersonalShop@@UAEPAXI@Z 004d3aa0 f i PersonalShop.obj
 0001:000d2ad0       ?CheckPersonalShop@CPersonalShop@@QAE_NH@Z 004d3ad0 f   PersonalShop.obj
 0001:000d2b30       ?CheckPersonalShopOpen@CPersonalShop@@QAE_NH@Z 004d3b30 f   PersonalShop.obj
 0001:000d2b90       ?SetPaymentJewelCount@CPersonalShop@@QAEXPAUOBJECTSTRUCT@@PAHH@Z 004d3b90 f   PersonalShop.obj
 0001:000d2e20       ?CGPShopSetItemPriceRecv@CPersonalShop@@QAEXPAUPMSG_PSHOP_SET_ITEM_PRICE_RECV@@H@Z 004d3e20 f   PersonalShop.obj
 0001:000d2f40       ?CGPShopSetItemPriceRecvEx@CPersonalShop@@QAEXPAUPMSG_PSHOP_SET_ITEM_PRICE_EX_RECV@@H@Z 004d3f40 f   PersonalShop.obj
 0001:000d31b0       ?CGPShopOpenRecv@CPersonalShop@@QAEXPAUPMSG_PSHOP_OPEN_RECV@@H@Z 004d41b0 f   PersonalShop.obj
 0001:000d3390       ?CGPShopItemListRecv@CPersonalShop@@QAEXPAUPMSG_PSHOP_ITEM_LIST_RECV@@H@Z 004d4390 f   PersonalShop.obj
 0001:000d3580       ?CGPShopBuyItemRecv@CPersonalShop@@QAEXPAUPMSG_PSHOP_BUY_ITEM_RECV@@H@Z 004d4580 f   PersonalShop.obj
 0001:000d3b90       ?GCPShopViewportSend@CPersonalShop@@QAEXH@Z 004d4b90 f   PersonalShop.obj
 0001:000d3f90       ?GCPShopItemListSend@CPersonalShop@@QAEXHHEE@Z 004d4f90 f   PersonalShop.obj
 0001:000d4180       ?Load@Pickup@@QAEXPAD@Z    004d5180 f   Pickup.obj
 0001:000d42f0       ?PickCommand@Pickup@@QAEXPAUOBJECTSTRUCT@@PAD@Z 004d52f0 f   Pickup.obj
 0001:000d4610       ??$_Emplace_reallocate@ABUPICKUP@@@?$vector@UPICKUP@@V?$allocator@UPICKUP@@@std@@@std@@QAEPAUPICKUP@@QAU2@ABU2@@Z 004d5610 f i Pickup.obj
 0001:000d4790       ??_GCPremiumDrop@@UAEPAXI@Z 004d5790 f i PremiumDrop.obj
 0001:000d4790       ??_ECPremiumDrop@@UAEPAXI@Z 004d5790 f i * CIL library *:* CIL module *
 0001:000d47c0       ?Load@CPremiumDrop@@QAEXPAD@Z 004d57c0 f   PremiumDrop.obj
 0001:000d4b50       ?DropPremium@CPremiumDrop@@QBE_NPAUOBJECTSTRUCT@@0@Z 004d5b50 f   PremiumDrop.obj
 0001:000d4e10       ??$sprintf_s@$0DC@@@YAHAAY0DC@DPBDZZ 004d5e10 f i PremiumDrop.obj
 0001:000d4e30       ??_ECProtect@@UAEPAXI@Z    004d5e30 f i * CIL library *:* CIL module *
 0001:000d4e30       ??_GCProtect@@UAEPAXI@Z    004d5e30 f i Protect.obj
 0001:000d4e60       ??_ECProtection@@UAEPAXI@Z 004d5e60 f i * CIL library *:* CIL module *
 0001:000d4e60       ??_GCProtection@@UAEPAXI@Z 004d5e60 f i Protection.obj
 0001:000d4e90       ?Auth@CProtection@@QAEXPAUHINSTANCE__@@PAUHWND__@@@Z 004d5e90 f   Protection.obj
 0001:000d4ee0       ?SetCustomState@CProtection@@QAEXH_N@Z 004d5ee0 f   Protection.obj
 0001:000d4ff0       ?InitDialog@CProtection@@QAEXPAUHWND__@@@Z 004d5ff0 f   Protection.obj
 0001:000d5910       ?ProtocolCore@@YAXEPAEHHHH@Z 004d6910 f   Protocol.obj
 0001:000db170       ?CGChatRecv@@YAXPAUPMSG_CHAT_RECV@@H@Z 004dc170 f   Protocol.obj
 0001:000dbdb0       ?CGChatWhisperRecv@@YAXPAUPMSG_CHAT_WHISPER_RECV@@H@Z 004dcdb0 f   Protocol.obj
 0001:000dc180       ?CGLiveClientRecv@@YAXPAUPMSG_LIVE_CLIENT_RECV@@H@Z 004dd180 f   Protocol.obj
 0001:000dc2b0       ?CGPositionRecv@@YAXPAUPMSG_POSITION_RECV@@H@Z 004dd2b0 f   Protocol.obj
 0001:000dc560       ?CGEventRemainTimeRecv@@YAXPAUPMSG_EVENT_REMAIN_TIME_RECV@@H@Z 004dd560 f   Protocol.obj
 0001:000dc8d0       ?CGPetItemInfoRecv@@YAXPAUPMSG_PET_ITEM_INFO_RECV@@H@Z 004dd8d0 f   Protocol.obj
 0001:000dcb60       ?CGMapServerMoveAuthRecv@@YAXPAUPMSG_MAP_SERVER_MOVE_AUTH_RECV@@H@Z 004ddb60 f   Protocol.obj
 0001:000dcdb0       ?CGMoveRecv@@YAXPAUPMSG_MOVE_RECV@@H@Z 004dddb0 f   Protocol.obj
 0001:000dd4b0       ?CGConnectAccountRecv@@YAXPAUPMSG_CONNECT_ACCOUNT_RECV@@H@Z 004de4b0 f   Protocol.obj
 0001:000dd750       ?CGCharacterCreateRecv@@YAXPAUPMSG_CHARACTER_CREATE_RECV@@H@Z 004de750 f   Protocol.obj
 0001:000dd8d0       ?CGLevelUpPointRecv@@YAXPAUPMSG_LEVEL_UP_POINT_RECV@@H@Z 004de8d0 f   Protocol.obj
 0001:000ddac0       ?GCChatTargetSend@@YAXPAUOBJECTSTRUCT@@HPAD@Z 004deac0 f   Protocol.obj
 0001:000ddb50       ?GCMapEventStateSend@@YAXHEE@Z 004deb50 f   Protocol.obj
 0001:000ddbc0       ?GCDamageSend@@YAXHHEHHH@Z 004debc0 f   Protocol.obj
 0001:000ddcc0       ?GCUserDieSend@@YAXPAUOBJECTSTRUCT@@HHH@Z 004decc0 f   Protocol.obj
 0001:000ddd50       ?GCMoneySend@@YAXHK@Z      004ded50 f   Protocol.obj
 0001:000dddd0       ?GCLifeSend@@YAXHEHH@Z     004dedd0 f   Protocol.obj
 0001:000dde60       ?GCManaSend@@YAXHEHH@Z     004dee60 f   Protocol.obj
 0001:000ddef0       ?GCMapAttrSend@@YAXHEEEEPAUPMSG_MAP_ATTR@@@Z 004deef0 f   Protocol.obj
 0001:000ddfb0       ?GCMonsterSkillSend@@YAXPAUOBJECTSTRUCT@@0H@Z 004defb0 f   Protocol.obj
 0001:000de030       ?GCMonsterDieSend@@YAXHHHHE@Z 004df030 f   Protocol.obj
 0001:000de0c0       ?GCRewardExperienceSend@@YAXHH@Z 004df0c0 f   Protocol.obj
 0001:000de120       ?GCConnectAccountSend@@YAXHEI@Z 004df120 f   Protocol.obj
 0001:000de190       ?GCCharacterRegenSend@@YAXPAUOBJECTSTRUCT@@@Z 004df190 f   Protocol.obj
 0001:000de350       ?GCLevelUpSend@@YAXPAUOBJECTSTRUCT@@@Z 004df350 f   Protocol.obj
 0001:000de5a0       ?GCMonsterDamageSend@@YAXHHH@Z 004df5a0 f   Protocol.obj
 0001:000de660       ?GCNewCharacterInfoSend@@YAXPAUOBJECTSTRUCT@@@Z 004df660 f   Protocol.obj
 0001:000de9f0       ?GCNewCharacterCalcSend@@YAXPAUOBJECTSTRUCT@@@Z 004df9f0 f   Protocol.obj
 0001:000df020       ?GCNewHealthBarSend@@YAXPAUOBJECTSTRUCT@@@Z 004e0020 f   Protocol.obj
 0001:000df420       ?GCNewGensBattleInfoSend@@YAXPAUOBJECTSTRUCT@@@Z 004e0420 f   Protocol.obj
 0001:000df640       ?CGWarehouseOpen@@YAXPAUPMSG_WAREHOUSEINTERFACE_RECV@@H@Z 004e0640 f   Protocol.obj
 0001:000df8a0       ?CGStatAddRecv@@YAXPAUPMSG_UPDATE_STATS_RECV@@H@Z 004e08a0 f   Protocol.obj
 0001:000dfca0       ?CGRecvJBankAct@@YAXPAUPMSG_JBANK_ACT_SEND@@H@Z 004e0ca0 f   Protocol.obj
 0001:000dfe40       ?CGResetStatsRecv@@YAXPAUPMSG_RESET_STATS_RECV@@H@Z 004e0e40 f   Protocol.obj
 0001:000e0080       ?ResetStatsCallback@@YAXPAUOBJECTSTRUCT@@HKKKK@Z 004e1080 f   Protocol.obj
 0001:000e02d0       ??_EcPVPZone@@UAEPAXI@Z    004e12d0 f i * CIL library *:* CIL module *
 0001:000e02d0       ??_GcPVPZone@@UAEPAXI@Z    004e12d0 f i PVPZone.obj
 0001:000e0300       ?Load@cPVPZone@@QAEXPAD@Z  004e1300 f   PVPZone.obj
 0001:000e04c0       ??1?$vector@UPVPZONE_DATA@@V?$allocator@UPVPZONE_DATA@@@std@@@std@@QAE@XZ 004e14c0 f i PVPZone.obj
 0001:000e0530       ??$_Emplace_reallocate@ABUPVPZONE_DATA@@@?$vector@UPVPZONE_DATA@@V?$allocator@UPVPZONE_DATA@@@std@@@std@@QAEPAUPVPZONE_DATA@@QAU2@ABU2@@Z 004e1530 f i PVPZone.obj
 0001:000e06d0       ??_GCQuest@@UAEPAXI@Z      004e16d0 f i Quest.obj
 0001:000e06d0       ??_ECQuest@@UAEPAXI@Z      004e16d0 f i * CIL library *:* CIL module *
 0001:000e0700       ?Load@CQuest@@QAEXPAD@Z    004e1700 f   Quest.obj
 0001:000e0960       ?CheckQuestRequisite@CQuest@@QAE_NPAUOBJECTSTRUCT@@PAUQUEST_INFO@@@Z 004e1960 f   Quest.obj
 0001:000e0a40       ?CGQuestStateRecv@CQuest@@QAEXPAUPMSG_QUEST_STATE_RECV@@H@Z 004e1a40 f   Quest.obj
 0001:000e0d60       ?GCQuestInfoSend@CQuest@@QAEXH@Z 004e1d60 f   Quest.obj
 0001:000e0df0       ??_ECQuestObjective@@UAEPAXI@Z 004e1df0 f i * CIL library *:* CIL module *
 0001:000e0df0       ??_GCQuestObjective@@UAEPAXI@Z 004e1df0 f i QuestObjective.obj
 0001:000e0e20       ?Load@CQuestObjective@@QAEXPAD@Z 004e1e20 f   QuestObjective.obj
 0001:000e10d0       ?GetQuestObjectiveCount@CQuestObjective@@QAEHPAUOBJECTSTRUCT@@PAUQUEST_OBJECTIVE_INFO@@@Z 004e20d0 f   QuestObjective.obj
 0001:000e1150       ?InitQuestObjectiveKillCount@CQuestObjective@@QAEXPAUOBJECTSTRUCT@@H@Z 004e2150 f   QuestObjective.obj
 0001:000e1230       ?RemoveQuestObjective@CQuestObjective@@QAEXPAUOBJECTSTRUCT@@H@Z 004e2230 f   QuestObjective.obj
 0001:000e1360       ?MonsterItemDrop@CQuestObjective@@QAE_NPAUOBJECTSTRUCT@@@Z 004e2360 f   QuestObjective.obj
 0001:000e1510       ?MonsterItemDropParty@CQuestObjective@@QAE_NPAUOBJECTSTRUCT@@H@Z 004e2510 f   QuestObjective.obj
 0001:000e16c0       ?MonsterKill@CQuestObjective@@QAEXPAUOBJECTSTRUCT@@@Z 004e26c0 f   QuestObjective.obj
 0001:000e1840       ?MonsterKillParty@CQuestObjective@@QAEXPAUOBJECTSTRUCT@@H@Z 004e2840 f   QuestObjective.obj
 0001:000e19d0       ??_GCQuestReward@@UAEPAXI@Z 004e29d0 f i QuestReward.obj
 0001:000e19d0       ??_ECQuestReward@@UAEPAXI@Z 004e29d0 f i * CIL library *:* CIL module *
 0001:000e1a00       ?Load@CQuestReward@@QAEXPAD@Z 004e2a00 f   QuestReward.obj
 0001:000e1ca0       ?InsertQuestReward@CQuestReward@@QAEXPAUOBJECTSTRUCT@@H@Z 004e2ca0 f   QuestReward.obj
 0001:000e20c0       ??_ECQuestSystem@@UAEPAXI@Z 004e30c0 f i * CIL library *:* CIL module *
 0001:000e20c0       ??_GCQuestSystem@@UAEPAXI@Z 004e30c0 f i QuestSystemEx.obj
 0001:000e2100       ?Init@CQuestSystem@@QAEXXZ 004e3100 f   QuestSystemEx.obj
 0001:000e21b0       ?LoadFile@CQuestSystem@@QAEXPAD@Z 004e31b0 f   QuestSystemEx.obj
 0001:000e2cf0       ?NpcTalk@CQuestSystem@@QAEXPAUOBJECTSTRUCT@@@Z 004e3cf0 f   QuestSystemEx.obj
 0001:000e30d0       ?connect@CQuestSystem@@QAEXPAUOBJECTSTRUCT@@@Z 004e40d0 f   QuestSystemEx.obj
 0001:000e3320       ?make_reward@CQuestSystem@@QAEXPAUOBJECTSTRUCT@@@Z 004e4320 f   QuestSystemEx.obj
 0001:000e3750       ?MonsterKill@CQuestSystem@@QAEXPAUOBJECTSTRUCT@@0@Z 004e4750 f   QuestSystemEx.obj
 0001:000e3920       ?send_message@CQuestSystem@@SAXHHPADZZ 004e4920 f   QuestSystemEx.obj
 0001:000e39f0       ?MakeItem@CQuestSystem@@QAE_NPAUOBJECTSTRUCT@@H@Z 004e49f0 f   QuestSystemEx.obj
 0001:000e3c10       ?gc_send_quest_info@CQuestSystem@@QAEXH_N@Z 004e4c10 f   QuestSystemEx.obj
 0001:000e3cf0       ??1?$_Tree@V?$_Tmap_traits@HUQUEST_DATA@@U?$less@H@std@@V?$allocator@U?$pair@$$CBHUQUEST_DATA@@@std@@@3@$0A@@std@@@std@@QAE@XZ 004e4cf0 f i QuestSystemEx.obj
 0001:000e3d40       ??1?$vector@UQUEST_DATA@@V?$allocator@UQUEST_DATA@@@std@@@std@@QAE@XZ 004e4d40 f i QuestSystemEx.obj
 0001:000e3db0       ??$_Erase_tree@V?$allocator@U?$_Tree_node@U?$pair@$$CBHUQUEST_DATA@@@std@@PAX@std@@@std@@@?$_Tree_val@U?$_Tree_simple_types@U?$pair@$$CBHUQUEST_DATA@@@std@@@std@@@std@@QAEXAAV?$allocator@U?$_Tree_node@U?$pair@$$CBHUQUEST_DATA@@@std@@PAX@std@@@1@PAU?$_Tree_node@U?$pair@$$CBHUQUEST_DATA@@@std@@PAX@1@@Z 004e4db0 f i QuestSystemEx.obj
 0001:000e3df0       ??_ECQuestWorld@@UAEPAXI@Z 004e4df0 f i * CIL library *:* CIL module *
 0001:000e3df0       ??_GCQuestWorld@@UAEPAXI@Z 004e4df0 f i QuestWorld.obj
 0001:000e3e20       ?Load@CQuestWorld@@QAEXPAD@Z 004e4e20 f   QuestWorld.obj
 0001:000e4160       ?GetInfoByIndex@CQuestWorld@@QAEPAUQUEST_WORLD_INFO@@PAUOBJECTSTRUCT@@HH@Z 004e5160 f   QuestWorld.obj
 0001:000e41d0       ?AddQuestWorldList@CQuestWorld@@QAE_NPAUOBJECTSTRUCT@@HHHH@Z 004e51d0 f   QuestWorld.obj
 0001:000e42d0       ?CheckQuestWorldRequisite@CQuestWorld@@QAE_NPAUOBJECTSTRUCT@@PAUQUEST_WORLD_INFO@@@Z 004e52d0 f   QuestWorld.obj
 0001:000e4520       ?CGQuestWorldDialogRecv@CQuestWorld@@QAEXPAUPMSG_QUEST_WORLD_DIALOG_RECV@@H@Z 004e5520 f   QuestWorld.obj
 0001:000e4880       ?CGQuestWorldAcceptRecv@CQuestWorld@@QAEXPAUPMSG_QUEST_WORLD_ACCEPT_RECV@@H@Z 004e5880 f   QuestWorld.obj
 0001:000e4e00       ?CGQuestWorldFinishRecv@CQuestWorld@@QAEXPAUPMSG_QUEST_WORLD_FINISH_RECV@@H@Z 004e5e00 f   QuestWorld.obj
 0001:000e5110       ?CGQuestWorldCancelRecv@CQuestWorld@@QAEXPAUPMSG_QUEST_WORLD_CANCEL_RECV@@H@Z 004e6110 f   QuestWorld.obj
 0001:000e5430       ?CGQuestWorldButtonRecv@CQuestWorld@@QAEXPAUPMSG_QUEST_WORLD_BUTTON_RECV@@H@Z 004e6430 f   QuestWorld.obj
 0001:000e55a0       ?CGQuestWorldDetailRecv@CQuestWorld@@QAEXPAUPMSG_QUEST_WORLD_DETAIL_RECV@@H@Z 004e65a0 f   QuestWorld.obj
 0001:000e5730       ?GCQuestWorldButtonSend@CQuestWorld@@QAEXPAUOBJECTSTRUCT@@HHH@Z 004e6730 f   QuestWorld.obj
 0001:000e5810       ?GCQuestWorldDetailSend@CQuestWorld@@QAEXPAUOBJECTSTRUCT@@HHH@Z 004e6810 f   QuestWorld.obj
 0001:000e5910       ??_ECQuestWorldObjective@@UAEPAXI@Z 004e6910 f i * CIL library *:* CIL module *
 0001:000e5910       ??_GCQuestWorldObjective@@UAEPAXI@Z 004e6910 f i QuestWorldObjective.obj
 0001:000e5940       ?Load@CQuestWorldObjective@@QAEXPAD@Z 004e6940 f   QuestWorldObjective.obj
 0001:000e5be0       ?GetQuestWorldObjectiveCount@CQuestWorldObjective@@QAEHPAUOBJECTSTRUCT@@PAUQUEST_WORLD_OBJECTIVE_INFO@@@Z 004e6be0 f   QuestWorldObjective.obj
 0001:000e5c70       ?GetQuestWorldObjective@CQuestWorldObjective@@QAE_NPAUOBJECTSTRUCT@@HHPAUQUEST_WORLD_OBJECTIVE@@H@Z 004e6c70 f   QuestWorldObjective.obj
 0001:000e5df0       ?MonsterKill@CQuestWorldObjective@@QAEXPAUOBJECTSTRUCT@@@Z 004e6df0 f   QuestWorldObjective.obj
 0001:000e5f60       ?MonsterKillParty@CQuestWorldObjective@@QAEXPAUOBJECTSTRUCT@@H@Z 004e6f60 f   QuestWorldObjective.obj
 0001:000e60f0       ??_GCQuestWorldReward@@UAEPAXI@Z 004e70f0 f i QuestWorldReward.obj
 0001:000e60f0       ??_ECQuestWorldReward@@UAEPAXI@Z 004e70f0 f i * CIL library *:* CIL module *
 0001:000e6120       ?Load@CQuestWorldReward@@QAEXPAD@Z 004e7120 f   QuestWorldReward.obj
 0001:000e63c0       ?GetQuestWorldReward@CQuestWorldReward@@QAE_NPAUOBJECTSTRUCT@@HHPAUQUEST_WORLD_REWARD@@H@Z 004e73c0 f   QuestWorldReward.obj
 0001:000e6520       ?InsertQuestWorldReward@CQuestWorldReward@@QAEXPAUOBJECTSTRUCT@@HH@Z 004e7520 f   QuestWorldReward.obj
 0001:000e67e0       ??0CQueue@@QAE@XZ          004e77e0 f   Queue.obj
 0001:000e6880       ??_ECQueue@@UAEPAXI@Z      004e7880 f i * CIL library *:* CIL module *
 0001:000e6880       ??_GCQueue@@UAEPAXI@Z      004e7880 f i Queue.obj
 0001:000e6900       ?ClearQueue@CQueue@@QAEXXZ 004e7900 f   Queue.obj
 0001:000e69a0       ?AddToQueue@CQueue@@QAE_NPAUQUEUE_INFO@@@Z 004e79a0 f   Queue.obj
 0001:000e6a50       ??1?$deque@UQUEUE_INFO@@V?$allocator@UQUEUE_INFO@@@std@@@std@@QAE@XZ 004e7a50 f i Queue.obj
 0001:000e6b00       ?_Growmap@?$deque@UQUEUE_INFO@@V?$allocator@UQUEUE_INFO@@@std@@@std@@AAEXI@Z 004e7b00 f i Queue.obj
 0001:000e6cb0       ?_Xlen@?$deque@UQUEUE_INFO@@V?$allocator@UQUEUE_INFO@@@std@@@std@@ABEXXZ 004e7cb0 f i Queue.obj
 0001:000e6cc0       ??_GCQueueTimer@@UAEPAXI@Z 004e7cc0 f i QueueTimer.obj
 0001:000e6cc0       ??_ECQueueTimer@@UAEPAXI@Z 004e7cc0 f i * CIL library *:* CIL module *
 0001:000e6d00       ?CreateTimer@CQueueTimer@@QAEXHHP6GXPAXE@Z@Z 004e7d00 f   QueueTimer.obj
 0001:000e6e00       ?clear@?$_Tree@V?$_Tmap_traits@HUSOCKET_ITEM_TYPE_INFO@@U?$less@H@std@@V?$allocator@U?$pair@$$CBHUSOCKET_ITEM_TYPE_INFO@@@std@@@3@$0A@@std@@@std@@QAEXXZ 004e7e00 f i SocketItemType.obj
 0001:000e6e00       ?clear@?$_Tree@V?$_Tmap_traits@HUQUEUE_TIMER_INFO@@U?$less@H@std@@V?$allocator@U?$pair@$$CBHUQUEUE_TIMER_INFO@@@std@@@3@$0A@@std@@@std@@QAEXXZ 004e7e00 f i QueueTimer.obj
 0001:000e6e50       ??_ECRaklion@@UAEPAXI@Z    004e7e50 f i * CIL library *:* CIL module *
 0001:000e6e50       ??_GCRaklion@@UAEPAXI@Z    004e7e50 f i Raklion.obj
 0001:000e6e90       ?Load@CRaklion@@QAEXPAD@Z  004e7e90 f   Raklion.obj
 0001:000e7250       ?MainProc@CRaklion@@QAEXXZ 004e8250 f   Raklion.obj
 0001:000e7600       ?ProcState_READY@CRaklion@@QAEXXZ 004e8600 f   Raklion.obj
 0001:000e7640       ?ProcState_START_BATTLE@CRaklion@@QAEXXZ 004e8640 f   Raklion.obj
 0001:000e7720       ?ProcState_NOTIFY3@CRaklion@@QAEXXZ 004e8720 f   Raklion.obj
 0001:000e7770       ?ProcState_CLOSE_DOOR@CRaklion@@QAEXXZ 004e8770 f   Raklion.obj
 0001:000e7900       ?ProcState_ALL_USER_DIE@CRaklion@@QAEXXZ 004e8900 f   Raklion.obj
 0001:000e79f0       ?ProcState_NOTIFY4@CRaklion@@QAEXXZ 004e89f0 f   Raklion.obj
 0001:000e7a30       ?ProcState_END@CRaklion@@QAEXXZ 004e8a30 f   Raklion.obj
 0001:000e7a60       ?SetState_END@CRaklion@@QAEXXZ 004e8a60 f   Raklion.obj
 0001:000e7cc0       ?GetBossEggCount@CRaklion@@QAEHXZ 004e8cc0 f   Raklion.obj
 0001:000e7d10       ??_GCRaklionBattleOfSelupan@@UAEPAXI@Z 004e8d10 f i RaklionBattleOfSelupan.obj
 0001:000e7d10       ??_ECRaklionBattleOfSelupan@@UAEPAXI@Z 004e8d10 f i * CIL library *:* CIL module *
 0001:000e7d40       ?ResetAllData@CRaklionBattleOfSelupan@@QAEXXZ 004e8d40 f   RaklionBattleOfSelupan.obj
 0001:000e7f60       ?Run@CRaklionBattleOfSelupan@@QAEXXZ 004e8f60 f   RaklionBattleOfSelupan.obj
 0001:000e81c0       ?PatternStateSkillUseProc@CRaklionBattleOfSelupan@@QAEXH@Z 004e91c0 f   RaklionBattleOfSelupan.obj
 0001:000e8630       ?SelupanLifeCheck@CRaklionBattleOfSelupan@@QAEXXZ 004e9630 f   RaklionBattleOfSelupan.obj
 0001:000e8a00       ?DeleteSummonMonster@CRaklionBattleOfSelupan@@QAEXXZ 004e9a00 f   RaklionBattleOfSelupan.obj
 0001:000e8a60       ??_ECRaklionBattleUserMng@@UAEPAXI@Z 004e9a60 f i * CIL library *:* CIL module *
 0001:000e8a60       ??_GCRaklionBattleUserMng@@UAEPAXI@Z 004e9a60 f i RaklionBattleUserMng.obj
 0001:000e8a90       ?DelUserData@CRaklionBattleUserMng@@QAEXH@Z 004e9a90 f   RaklionBattleUserMng.obj
 0001:000e8b50       ??_GCRaklionSelupan@@UAEPAXI@Z 004e9b50 f i RaklionSelupan.obj
 0001:000e8b50       ??_ECRaklionSelupan@@UAEPAXI@Z 004e9b50 f i * CIL library *:* CIL module *
 0001:000e8b80       ?SelupanAct_BerserkCansel@CRaklionSelupan@@QAEXXZ 004e9b80 f   RaklionSelupan.obj
 0001:000e8be0       ?SelupanAct_Berserk2@CRaklionSelupan@@QAEXXZ 004e9be0 f   RaklionSelupan.obj
 0001:000e8c70       ?SelupanAct_Berserk4@CRaklionSelupan@@QAEXXZ 004e9c70 f   RaklionSelupan.obj
 0001:000e8d00       ?CreateSelupan@CRaklionSelupan@@QAE_NXZ 004e9d00 f   RaklionSelupan.obj
 0001:000e8dc0       ??_GCRaklionUtil@@UAEPAXI@Z 004e9dc0 f i RaklionUtil.obj
 0001:000e8dc0       ??_ECRaklionUtil@@UAEPAXI@Z 004e9dc0 f i * CIL library *:* CIL module *
 0001:000e8df0       ?NotifyRaklionChangeState@CRaklionUtil@@QAEXHH@Z 004e9df0 f   RaklionUtil.obj
 0001:000e8e80       ?SendDataRaklionBossMapUser@CRaklionUtil@@QAEXPAEH@Z 004e9e80 f   RaklionUtil.obj
 0001:000e8ee0       ??_ECRandomManager@@UAEPAXI@Z 004e9ee0 f i * CIL library *:* CIL module *
 0001:000e8ee0       ??_GCRandomManager@@UAEPAXI@Z 004e9ee0 f i RandomManager.obj
 0001:000e8f10       ??1CRandomManager@@UAE@XZ  004e9f10 f   RandomManager.obj
 0001:000e8f20       ?GetRandomElement@CRandomManager@@QAE_NPAE@Z 004e9f20 f   RandomManager.obj
 0001:000e8f70       ?Load@CRandomMonsterCall@@QAEXPAD@Z 004e9f70 f   RandomMonsterCall.obj
 0001:000e93a0       ??1RAND_MONSTERCALL_DATA@@QAE@XZ 004ea3a0 f i RandomMonsterCall.obj
 0001:000e93b0       ?CreateMonster@CRandomMonsterCall@@QAE_NPAUOBJECTSTRUCT@@H@Z 004ea3b0 f   RandomMonsterCall.obj
 0001:000e98f0       ??1?$vector@URAND_MONSTERCALL_DATA@@V?$allocator@URAND_MONSTERCALL_DATA@@@std@@@std@@QAE@XZ 004ea8f0 f i RandomMonsterCall.obj
 0001:000e9960       ?_Destroy@?$vector@URAND_MONSTERCALL_DATA@@V?$allocator@URAND_MONSTERCALL_DATA@@@std@@@std@@AAEXPAURAND_MONSTERCALL_DATA@@0@Z 004ea960 f i RandomMonsterCall.obj
 0001:000e9990       ?deallocate@?$allocator@URAND_MONSTERCALL_DATA@@@std@@QAEXQAURAND_MONSTERCALL_DATA@@I@Z 004ea990 f i RandomMonsterCall.obj
 0001:000e99d0       ??$_Emplace_reallocate@AAURAND_MONSTERCALL_INFO@@@?$vector@URAND_MONSTERCALL_INFO@@V?$allocator@URAND_MONSTERCALL_INFO@@@std@@@std@@QAEPAURAND_MONSTERCALL_INFO@@QAU2@AAU2@@Z 004ea9d0 f i RandomMonsterCall.obj
 0001:000e9b60       ??$construct@URAND_MONSTERCALL_DATA@@AAU1@@?$_Default_allocator_traits@V?$allocator@URAND_MONSTERCALL_DATA@@@std@@@std@@SAXAAV?$allocator@URAND_MONSTERCALL_DATA@@@1@QAURAND_MONSTERCALL_DATA@@AAU3@@Z 004eab60 f i RandomMonsterCall.obj
 0001:000e9bf0       ??$_Emplace_reallocate@AAURAND_MONSTERCALL_DATA@@@?$vector@URAND_MONSTERCALL_DATA@@V?$allocator@URAND_MONSTERCALL_DATA@@@std@@@std@@QAEPAURAND_MONSTERCALL_DATA@@QAU2@AAU2@@Z 004eabf0 f i RandomMonsterCall.obj
 0001:000e9df0       ?allocate@?$allocator@URAND_MONSTERCALL_INFO@@@std@@QAEPAURAND_MONSTERCALL_INFO@@I@Z 004eadf0 f i RandomMonsterCall.obj
 0001:000e9e60       ??$_Uninitialized_move@PAURAND_MONSTERCALL_DATA@@V?$allocator@URAND_MONSTERCALL_DATA@@@std@@@std@@YAPAURAND_MONSTERCALL_DATA@@QAU1@0PAU1@AAV?$allocator@URAND_MONSTERCALL_DATA@@@0@@Z 004eae60 f i RandomMonsterCall.obj
 0001:000e9ed0       ?GCSendRankings@CRankings@@QAEXH@Z 004eaed0 f   Rankings.obj
 0001:000ea090       ??$_Emplace_reallocate@AAUSDHP_RANKINGS_INFO@@@?$vector@USDHP_RANKINGS_INFO@@V?$allocator@USDHP_RANKINGS_INFO@@@std@@@std@@QAEPAUSDHP_RANKINGS_INFO@@QAU2@AAU2@@Z 004eb090 f i Rankings.obj
 0001:000ea210       ??_GCReconnect@@UAEPAXI@Z  004eb210 f i Reconnect.obj
 0001:000ea210       ??_ECReconnect@@UAEPAXI@Z  004eb210 f i * CIL library *:* CIL module *
 0001:000ea260       ?SetReconnectInfo@CReconnect@@QAEXPAUOBJECTSTRUCT@@@Z 004eb260 f   Reconnect.obj
 0001:000ea620       ?GetReconnectInfo@CReconnect@@QAEXPAUOBJECTSTRUCT@@@Z 004eb620 f   Reconnect.obj
 0001:000ea8d0       ??$erase@V?$_Tree_iterator@V?$_Tree_val@U?$_Tree_simple_types@U?$pair@$$CBV?$basic_string@DU?$char_traits@D@std@@V?$allocator@D@2@@std@@URECONNECT_INFO@@@std@@@std@@@std@@@std@@$0A@@?$_Tree@V?$_Tmap_traits@V?$basic_string@DU?$char_traits@D@std@@V?$allocator@D@2@@std@@URECONNECT_INFO@@U?$less@V?$basic_string@DU?$char_traits@D@std@@V?$allocator@D@2@@std@@@2@V?$allocator@U?$pair@$$CBV?$basic_string@DU?$char_traits@D@std@@V?$allocator@D@2@@std@@URECONNECT_INFO@@@std@@@2@$0A@@std@@@std@@QAE?AV?$_Tree_iterator@V?$_Tree_val@U?$_Tree_simple_types@U?$pair@$$CBV?$basic_string@DU?$char_traits@D@std@@V?$allocator@D@2@@std@@URECONNECT_INFO@@@std@@@std@@@std@@@1@V21@@Z 004eb8d0 f i Reconnect.obj
 0001:000ea990       ??$_Erase_tree@V?$allocator@U?$_Tree_node@U?$pair@$$CBV?$basic_string@DU?$char_traits@D@std@@V?$allocator@D@2@@std@@URECONNECT_INFO@@@std@@PAX@std@@@std@@@?$_Tree_val@U?$_Tree_simple_types@U?$pair@$$CBV?$basic_string@DU?$char_traits@D@std@@V?$allocator@D@2@@std@@URECONNECT_INFO@@@std@@@std@@@std@@QAEXAAV?$allocator@U?$_Tree_node@U?$pair@$$CBV?$basic_string@DU?$char_traits@D@std@@V?$allocator@D@2@@std@@URECONNECT_INFO@@@std@@PAX@std@@@1@PAU?$_Tree_node@U?$pair@$$CBV?$basic_string@DU?$char_traits@D@std@@V?$allocator@D@2@@std@@URECONNECT_INFO@@@std@@PAX@1@@Z 004eb990 f i Reconnect.obj
 0001:000eaa30       ??1?$_Alloc_construct_ptr@V?$allocator@U?$_Tree_node@U?$pair@$$CBV?$basic_string@DU?$char_traits@D@std@@V?$allocator@D@2@@std@@URECONNECT_INFO@@@std@@PAX@std@@@std@@@std@@QAE@XZ 004eba30 f i Reconnect.obj
 0001:000eaa50       ?load@CRegionSystem@@QAEXPAD@Z 004eba50 f   RegionSystem.obj
 0001:000eaeb0       ??1REGION_DATA@@QAE@XZ     004ebeb0 f i RegionSystem.obj
 0001:000eaf00       ??1?$pair@V?$basic_string@DU?$char_traits@D@std@@V?$allocator@D@2@@std@@UREGION_DATA@@@std@@QAE@XZ 004ebf00 f i RegionSystem.obj
 0001:000eaf90       ?clear@?$_Tree@V?$_Tmap_traits@V?$basic_string@DU?$char_traits@D@std@@V?$allocator@D@2@@std@@UREGION_DATA@@U?$less@V?$basic_string@DU?$char_traits@D@std@@V?$allocator@D@2@@std@@@2@V?$allocator@U?$pair@$$CBV?$basic_string@DU?$char_traits@D@std@@V?$allocator@D@2@@std@@UREGION_DATA@@@std@@@2@$0A@@std@@@std@@QAEXXZ 004ebf90 f i RegionSystem.obj
 0001:000eb000       ??1?$_Tree@V?$_Tmap_traits@V?$basic_string@DU?$char_traits@D@std@@V?$allocator@D@2@@std@@UREGION_DATA@@U?$less@V?$basic_string@DU?$char_traits@D@std@@V?$allocator@D@2@@std@@@2@V?$allocator@U?$pair@$$CBV?$basic_string@DU?$char_traits@D@std@@V?$allocator@D@2@@std@@UREGION_DATA@@@std@@@2@$0A@@std@@@std@@QAE@XZ 004ec000 f i RegionSystem.obj
 0001:000eb050       ??$_Erase_tree@V?$allocator@U?$_Tree_node@U?$pair@$$CBV?$basic_string@DU?$char_traits@D@std@@V?$allocator@D@2@@std@@UREGION_DATA@@@std@@PAX@std@@@std@@@?$_Tree_val@U?$_Tree_simple_types@U?$pair@$$CBV?$basic_string@DU?$char_traits@D@std@@V?$allocator@D@2@@std@@UREGION_DATA@@@std@@@std@@@std@@QAEXAAV?$allocator@U?$_Tree_node@U?$pair@$$CBV?$basic_string@DU?$char_traits@D@std@@V?$allocator@D@2@@std@@UREGION_DATA@@@std@@PAX@std@@@1@PAU?$_Tree_node@U?$pair@$$CBV?$basic_string@DU?$char_traits@D@std@@V?$allocator@D@2@@std@@UREGION_DATA@@@std@@PAX@1@@Z 004ec050 f i RegionSystem.obj
 0001:000eb0a0       ??$destroy@U?$pair@$$CBV?$basic_string@DU?$char_traits@D@std@@V?$allocator@D@2@@std@@UREGION_DATA@@@std@@@?$_Default_allocator_traits@V?$allocator@U?$_Tree_node@U?$pair@$$CBV?$basic_string@DU?$char_traits@D@std@@V?$allocator@D@2@@std@@UREGION_DATA@@@std@@PAX@std@@@std@@@std@@SAXAAV?$allocator@U?$_Tree_node@U?$pair@$$CBV?$basic_string@DU?$char_traits@D@std@@V?$allocator@D@2@@std@@UREGION_DATA@@@std@@PAX@std@@@1@QAU?$pair@$$CBV?$basic_string@DU?$char_traits@D@std@@V?$allocator@D@2@@std@@UREGION_DATA@@@1@@Z 004ec0a0 f i RegionSystem.obj
 0001:000eb130       ??_EResetSystem@@UAEPAXI@Z 004ec130 f i * CIL library *:* CIL module *
 0001:000eb130       ??_GResetSystem@@UAEPAXI@Z 004ec130 f i ResetSystem.obj
 0001:000eb170       ?Init@ResetSystem@@QAEXXZ  004ec170 f   ResetSystem.obj
 0001:000eb1f0       ?ReadGroupData@ResetSystem@@QAEXPAD@Z 004ec1f0 f   ResetSystem.obj
 0001:000eb5f0       ?ReadItemRewardData@ResetSystem@@QAEXPAD@Z 004ec5f0 f   ResetSystem.obj
 0001:000ebdb0       ?ReadMainData@ResetSystem@@QAEXPAD@Z 004ecdb0 f   ResetSystem.obj
 0001:000ebfa0       ?GetResetMoney@ResetSystem@@QAEHPAUOBJECTSTRUCT@@@Z 004ecfa0 f   ResetSystem.obj
 0001:000ec030       ?GetResetGroup@ResetSystem@@QAEHPAUOBJECTSTRUCT@@@Z 004ed030 f   ResetSystem.obj
 0001:000ec0a0       ?GetResetReward@ResetSystem@@QAEPAURESET_ITEM_REWARD@@PAUOBJECTSTRUCT@@@Z 004ed0a0 f   ResetSystem.obj
 0001:000ec100       ?SearchQuestItem@ResetSystem@@QAE_NPAUOBJECTSTRUCT@@E@Z 004ed100 f   ResetSystem.obj
 0001:000ec3a0       ?DeleteQuestItem@ResetSystem@@QAE_NPAUOBJECTSTRUCT@@E@Z 004ed3a0 f   ResetSystem.obj
 0001:000ec6b0       ?CheckAllReq@ResetSystem@@QAE_NPAUOBJECTSTRUCT@@@Z 004ed6b0 f   ResetSystem.obj
 0001:000ec850       ?FinishResetReq@ResetSystem@@QAEXPAUOBJECTSTRUCT@@@Z 004ed850 f   ResetSystem.obj
 0001:000ed440       ?SendResetData@ResetSystem@@QAEXPAUOBJECTSTRUCT@@_N@Z 004ee440 f   ResetSystem.obj
 0001:000ed6b0       ??1?$vector@URESET_ITEM_REWARD_DATA@@V?$allocator@URESET_ITEM_REWARD_DATA@@@std@@@std@@QAE@XZ 004ee6b0 f i ResetSystem.obj
 0001:000ed720       ??$_Emplace_reallocate@ABURESET_ITEM_REWARD_DATA@@@?$vector@URESET_ITEM_REWARD_DATA@@V?$allocator@URESET_ITEM_REWARD_DATA@@@std@@@std@@QAEPAURESET_ITEM_REWARD_DATA@@QAU2@ABU2@@Z 004ee720 f i ResetSystem.obj
 0001:000ed8e0       ??_GCResetTable@@UAEPAXI@Z 004ee8e0 f i ResetTable.obj
 0001:000ed8e0       ??_ECResetTable@@UAEPAXI@Z 004ee8e0 f i * CIL library *:* CIL module *
 0001:000ed910       ?Load@CResetTable@@QAEXPAD@Z 004ee910 f   ResetTable.obj
 0001:000ede20       ?GetResetLevel@CResetTable@@QAEHPAUOBJECTSTRUCT@@@Z 004eee20 f   ResetTable.obj
 0001:000ede90       ?GetResetMoney@CResetTable@@QAEHPAUOBJECTSTRUCT@@@Z 004eee90 f   ResetTable.obj
 0001:000edf10       ??_GcRespawnLocation@@UAEPAXI@Z 004eef10 f i RespawnLocation.obj
 0001:000edf10       ??_EcRespawnLocation@@UAEPAXI@Z 004eef10 f i * CIL library *:* CIL module *
 0001:000edf40       ?Load@cRespawnLocation@@QAEXPAD@Z 004eef40 f   RespawnLocation.obj
 0001:000ee0d0       ?load@CRoulette@@QAEXPAD@Z 004ef0d0 f   Roulette.obj
 0001:000ee560       ?send_roulette_data@CRoulette@@QAEXH@Z 004ef560 f   Roulette.obj
 0001:000ee620       ?size@?$vector@UROULETTE_INFO@@V?$allocator@UROULETTE_INFO@@@std@@@std@@QBEIXZ 004ef620 f i Roulette.obj
 0001:000ee630       ??$_Emplace_reallocate@AAUROULETTE_INFO@@@?$vector@UROULETTE_INFO@@V?$allocator@UROULETTE_INFO@@@std@@@std@@QAEPAUROULETTE_INFO@@QAU2@AAU2@@Z 004ef630 f i Roulette.obj
 0001:000ee7b0       ??_ECScheduleManager@@UAEPAXI@Z 004ef7b0 f i * CIL library *:* CIL module *
 0001:000ee7b0       ??_GCScheduleManager@@UAEPAXI@Z 004ef7b0 f i ScheduleManager.obj
 0001:000ee830       ??1CScheduleManager@@UAE@XZ 004ef830 f   ScheduleManager.obj
 0001:000ee890       ?AddSchedule@CScheduleManager@@QAE_NHHHHHHH@Z 004ef890 f   ScheduleManager.obj
 0001:000eeff0       ?AdjustSchedule@CScheduleManager@@QAE_NPAVCTime@ATL@@_N11111@Z 004efff0 f   ScheduleManager.obj
 0001:000ef900       ??$_Emplace_reallocate@ABVCTime@ATL@@@?$vector@VCTime@ATL@@V?$allocator@VCTime@ATL@@@std@@@std@@QAEPAVCTime@ATL@@QAV23@ABV23@@Z 004f0900 f i ScheduleManager.obj
 0001:000efaa0       ??0CSerialCheck@@QAE@XZ    004f0aa0 f   SerialCheck.obj
 0001:000efab0       ??_GCSerialCheck@@UAEPAXI@Z 004f0ab0 f i SerialCheck.obj
 0001:000efab0       ??_ECSerialCheck@@UAEPAXI@Z 004f0ab0 f i * CIL library *:* CIL module *
 0001:000efae0       ??1CSerialCheck@@UAE@XZ    004f0ae0 f   SerialCheck.obj
 0001:000efaf0       ??_ECServerDisplayer@@UAEPAXI@Z 004f0af0 f i * CIL library *:* CIL module *
 0001:000efaf0       ??_GCServerDisplayer@@UAEPAXI@Z 004f0af0 f i ServerDisplayer.obj
 0001:000efb40       ?Init@CServerDisplayer@@QAEXPAUHWND__@@0@Z 004f0b40 f   ServerDisplayer.obj
 0001:000efc80       ?UpdateInfoBar@CServerDisplayer@@QAEXXZ 004f0c80 f   ServerDisplayer.obj
 0001:000efe10       ?PaintAllInfo@CServerDisplayer@@QAEXXZ 004f0e10 f   ServerDisplayer.obj
 0001:000f0080       ?LogAddText@CServerDisplayer@@QAEXW4eLogColor@@PADH@Z 004f1080 f   ServerDisplayer.obj
 0001:000f0140       ?Interface@CServerDisplayer@@QAEXPAUHWND__@@@Z 004f1140 f   ServerDisplayer.obj
 0001:000f01b0       ??_ECServerInfo@@UAEPAXI@Z 004f11b0 f i * CIL library *:* CIL module *
 0001:000f01b0       ??_GCServerInfo@@UAEPAXI@Z 004f11b0 f i ServerInfo.obj
 0001:000f01e0       ?SendServerInfo@CServerInfo@@QAEXH@Z 004f11e0 f   ServerInfo.obj
 0001:000f09a0       ?ReadLTPData@CServerInfo@@QAEXXZ 004f19a0 f   ServerInfo.obj
 0001:000f1d40       ?ReadCashShopInfo@CServerInfo@@QAEXXZ 004f2d40 f   ServerInfo.obj
 0001:000f1e80       ?ReadCharacterInfo@CServerInfo@@QAEXXZ 004f2e80 f   ServerInfo.obj
 0001:000f1ee0       ?ReadCommonInfo@CServerInfo@@QAEXXZ 004f2ee0 f   ServerInfo.obj
 0001:000f1ff0       ?ReadCustomInfo@CServerInfo@@QAEXXZ 004f2ff0 f   ServerInfo.obj
 0001:000f21b0       ?ReadEventInfo@CServerInfo@@QAEXXZ 004f31b0 f   ServerInfo.obj
 0001:000f2430       ?ReadHackInfo@CServerInfo@@QAEXXZ 004f3430 f   ServerInfo.obj
 0001:000f2660       ?ReadItemInfo@CServerInfo@@QAEXXZ 004f3660 f   ServerInfo.obj
 0001:000f29a0       ?ReadMapInfo@CServerInfo@@QAEXXZ 004f39a0 f   ServerInfo.obj
 0001:000f2bd0       ?ReadMonsterInfo@CServerInfo@@QAEXXZ 004f3bd0 f   ServerInfo.obj
 0001:000f2e10       ?ReadMoveInfo@CServerInfo@@QAEXXZ 004f3e10 f   ServerInfo.obj
 0001:000f2ef0       ?ReadQuestInfo@CServerInfo@@QAEXXZ 004f3ef0 f   ServerInfo.obj
 0001:000f3030       ?ReadShopInfo@CServerInfo@@QAEXXZ 004f4030 f   ServerInfo.obj
 0001:000f31c0       ?ReadSkillInfo@CServerInfo@@QAEXXZ 004f41c0 f   ServerInfo.obj
 0001:000f3350       ?ReadUtilInfo@CServerInfo@@QAEXXZ 004f4350 f   ServerInfo.obj
 0001:000f3490       ?ReadStartupInfo@CServerInfo@@QAEXPAD0@Z 004f4490 f   ServerInfo.obj
 0001:000f3820       ?ReadChaosMixInfo@CServerInfo@@QAEXPAD0@Z 004f4820 f   ServerInfo.obj
 0001:000f4dc0       ?ReadCharacterInfo@CServerInfo@@QAEXPAD0@Z 004f5dc0 f   ServerInfo.obj
 0001:000f6f50       ?ReadCommandInfo@CServerInfo@@QAEXPAD0@Z 004f7f50 f   ServerInfo.obj
 0001:000f8090       ?ReadCommonInfo@CServerInfo@@QAEXPAD0@Z 004f9090 f   ServerInfo.obj
 0001:000f9e00       ?ReadCustomInfo@CServerInfo@@QAEXPAD0@Z 004fae00 f   ServerInfo.obj
 0001:000fa220       ?ReadEventInfo@CServerInfo@@QAEXPAD0@Z 004fb220 f   ServerInfo.obj
 0001:000fa830       ?ReadSkillInfo@CServerInfo@@QAEXPAD0@Z 004fb830 f   ServerInfo.obj
 0001:000fb560       ??_ECSetItemOption@@UAEPAXI@Z 004fc560 f i * CIL library *:* CIL module *
 0001:000fb560       ??_GCSetItemOption@@UAEPAXI@Z 004fc560 f i SetItemOption.obj
 0001:000fb590       ?Load@CSetItemOption@@QAEXPAD@Z 004fc590 f   SetItemOption.obj
 0001:000fb7e0       ?CalcSetItemOption@CSetItemOption@@QAEXPAUOBJECTSTRUCT@@_N@Z 004fc7e0 f   SetItemOption.obj
 0001:000fba90       ?InsertOption@CSetItemOption@@QAEXPAUOBJECTSTRUCT@@HH_N@Z 004fca90 f   SetItemOption.obj
 0001:000fc060       ??_GCSetItemType@@UAEPAXI@Z 004fd060 f i SetItemType.obj
 0001:000fc060       ??_ECSetItemType@@UAEPAXI@Z 004fd060 f i * CIL library *:* CIL module *
 0001:000fc090       ?Load@CSetItemType@@QAEXPAD@Z 004fd090 f   SetItemType.obj
 0001:000fc2a0       ?GetInfo@CSetItemType@@QAEPAUSET_ITEM_TYPE_INFO@@H@Z 004fd2a0 f   SetItemType.obj
 0001:000fc2f0       ?GetSetOption@CSetItemType@@QAEHH@Z 004fd2f0 f   SetItemType.obj
 0001:000fc380       ?MakeRandomSetItem@CSetItemType@@QAEXHHHH@Z 004fd380 f   SetItemType.obj
 0001:000fc570       ?Load@CShop@@QAEXPAD@Z     004fd570 f   Shop.obj
 0001:000fc8a0       ?LoadDonateShop@CShop@@QAEXPADH@Z 004fd8a0 f   Shop.obj
 0001:000fcd60       ?ShopItemSet@CShop@@QAEXHE@Z 004fdd60 f   Shop.obj
 0001:000fce30       ?ShopRectCheck@CShop@@QAEEHHHH@Z 004fde30 f   Shop.obj
 0001:000fcea0       ?InsertDonateItem@CShop@@QAEXPAUDONATE_SHOP_ITEMS@@@Z 004fdea0 f   Shop.obj
 0001:000fd0b0       ?GCShopItemListSend@CShop@@QAE_NH@Z 004fe0b0 f   Shop.obj
 0001:000fd1c0       ??_ECShopManager@@UAEPAXI@Z 004fe1c0 f i * CIL library *:* CIL module *
 0001:000fd1c0       ??_GCShopManager@@UAEPAXI@Z 004fe1c0 f i ShopManager.obj
 0001:000fd220       ?Load@CShopManager@@QAEXPAD@Z 004fe220 f   ShopManager.obj
 0001:000fd640       ??1SHOP_MANAGER_INFO@@QAE@XZ 004fe640 f i ShopManager.obj
 0001:000fd650       ??1?$pair@HUSHOP_MANAGER_INFO@@@std@@QAE@XZ 004fe650 f i ShopManager.obj
 0001:000fd660       ?LoadShop@CShopManager@@QAEXXZ 004fe660 f   ShopManager.obj
 0001:000fd900       ?LoadDonateShop@CShopManager@@QAEXXZ 004fe900 f   ShopManager.obj
 0001:000fdbb0       ?GetShopNumber@CShopManager@@QAEJH@Z 004febb0 f   ShopManager.obj
 0001:000fdc30       ?GetClassByShopNumber@CShopManager@@QAEJH@Z 004fec30 f   ShopManager.obj
 0001:000fdcb0       ?GetShopNumberByDonateShopIndex@CShopManager@@QAEJHH@Z 004fecb0 f   ShopManager.obj
 0001:000fdd30       ?GetDonateShopCount@CShopManager@@QAEJH@Z 004fed30 f   ShopManager.obj
 0001:000fdda0       ??$_Erase_tree@V?$allocator@U?$_Tree_node@U?$pair@$$CBHUSHOP_MANAGER_INFO@@@std@@PAX@std@@@std@@@?$_Tree_val@U?$_Tree_simple_types@U?$pair@$$CBHUSHOP_MANAGER_INFO@@@std@@@std@@@std@@QAEXAAV?$allocator@U?$_Tree_node@U?$pair@$$CBHUSHOP_MANAGER_INFO@@@std@@PAX@std@@@1@PAU?$_Tree_node@U?$pair@$$CBHUSHOP_MANAGER_INFO@@@std@@PAX@1@@Z 004feda0 f i ShopManager.obj
 0001:000fde00       ??1?$_Alloc_construct_ptr@V?$allocator@U?$_Tree_node@U?$pair@$$CBHUSHOP_MANAGER_INFO@@@std@@PAX@std@@@std@@@std@@QAE@XZ 004fee00 f i ShopManager.obj
 0001:000fde30       ?Init@ShopPointEx@@QAEXXZ  004fee30 f   ShopPointEx.obj
 0001:000fdf80       ?Load@ShopPointEx@@QAEXPAD@Z 004fef80 f   ShopPointEx.obj
 0001:000fe2f0       ?AddMonsterBonus@ShopPointEx@@QAEXPAUOBJECTSTRUCT@@0@Z 004ff2f0 f   ShopPointEx.obj
 0001:000fe4b0       ?SendNotify@ShopPointEx@@QAEXHHHHHPAD@Z 004ff4b0 f   ShopPointEx.obj
 0001:000fe6c0       ??$_Emplace_reallocate@ABUSHOPPOINTEX_MONSTER@@@?$vector@USHOPPOINTEX_MONSTER@@V?$allocator@USHOPPOINTEX_MONSTER@@@std@@@std@@QAEPAUSHOPPOINTEX_MONSTER@@QAU2@ABU2@@Z 004ff6c0 f i ShopPointEx.obj
 0001:000fe8f0       ??0CSkill@@QAE@XZ          004ff8f0 f   Skill.obj
 0001:000fe920       ??1CSkill@@UAE@XZ          004ff920 f   Skill.obj
 0001:000fe930       ?Set@CSkill@@QAE_NHH@Z     004ff930 f   Skill.obj
 0001:000fe9f0       ??_ECSkillHitBox@@UAEPAXI@Z 004ff9f0 f i * CIL library *:* CIL module *
 0001:000fe9f0       ??_GCSkillHitBox@@UAEPAXI@Z 004ff9f0 f i SkillHitBox.obj
 0001:000fea20       ??_ECSkillManager@@UAEPAXI@Z 004ffa20 f i * CIL library *:* CIL module *
 0001:000fea20       ??_GCSkillManager@@UAEPAXI@Z 004ffa20 f i SkillManager.obj
 0001:000fea50       ?Load@CSkillManager@@QAEXPAD@Z 004ffa50 f   SkillManager.obj
 0001:000fedc0       ?GetSkillAngle@CSkillManager@@QAEHHHHH@Z 004ffdc0 f   SkillManager.obj
 0001:000fee20       ?GetSkillFrustrum@CSkillManager@@QAEHPAH0EHHMMMM@Z 004ffe20 f   SkillManager.obj
 0001:000fef90       ?CheckSkillMana@CSkillManager@@QAE_NPAUOBJECTSTRUCT@@H@Z 004fff90 f   SkillManager.obj
 0001:000ff020       ?CheckSkillBP@CSkillManager@@QAE_NPAUOBJECTSTRUCT@@H@Z 00500020 f   SkillManager.obj
 0001:000ff0a0       ?CheckSkillRange@CSkillManager@@QAE_NHHHHH@Z 005000a0 f   SkillManager.obj
 0001:000ff190       ?CheckSkillRadio@CSkillManager@@QAE_NHHHHH@Z 00500190 f   SkillManager.obj
 0001:000ff280       ?CheckSkillFrustrum@CSkillManager@@QAE_NPAH0HH@Z 00500280 f   SkillManager.obj
 0001:000ff2f0       ?CheckSkillDelay@CSkillManager@@QAE_NPAUOBJECTSTRUCT@@H@Z 005002f0 f   SkillManager.obj
 0001:000ff390       ?CheckSkillTarget@CSkillManager@@QAE_NPAUOBJECTSTRUCT@@HHH@Z 00500390 f   SkillManager.obj
 0001:000ff4c0       ?CheckSkillRequireLevel@CSkillManager@@QAE_NPAUOBJECTSTRUCT@@H@Z 005004c0 f   SkillManager.obj
 0001:000ff530       ?CheckSkillRequireEnergy@CSkillManager@@QAE_NPAUOBJECTSTRUCT@@H@Z 00500530 f   SkillManager.obj
 0001:000ff5a0       ?CheckSkillRequireLeadership@CSkillManager@@QAE_NPAUOBJECTSTRUCT@@H@Z 005005a0 f   SkillManager.obj
 0001:000ff610       ?CheckSkillRequireKillPoint@CSkillManager@@QAE_NPAUOBJECTSTRUCT@@H@Z 00500610 f   SkillManager.obj
 0001:000ff680       ?CheckSkillRequireGuildStatus@CSkillManager@@QAE_NPAUOBJECTSTRUCT@@H@Z 00500680 f   SkillManager.obj
 0001:000ff710       ?CheckSkillRequireClass@CSkillManager@@QAE_NPAUOBJECTSTRUCT@@H@Z 00500710 f   SkillManager.obj
 0001:000ff7b0       ?CheckSkillRequireWeapon@CSkillManager@@QAE_NPAUOBJECTSTRUCT@@H@Z 005007b0 f   SkillManager.obj
 0001:000ff880       ?AddSkill@CSkillManager@@QAEHPAUOBJECTSTRUCT@@HH@Z 00500880 f   SkillManager.obj
 0001:000ff920       ?GetSkill@CSkillManager@@QAEPAVCSkill@@PAUOBJECTSTRUCT@@H@Z 00500920 f   SkillManager.obj
 0001:000ff980       ?AddMasterSkill@CSkillManager@@QAEHPAUOBJECTSTRUCT@@HH@Z 00500980 f   SkillManager.obj
 0001:000ffa20       ?GetMasterSkill@CSkillManager@@QAEPAVCSkill@@PAUOBJECTSTRUCT@@H@Z 00500a20 f   SkillManager.obj
 0001:000ffa90       ?UseAttackSkill@CSkillManager@@QAEXHHPAVCSkill@@@Z 00500a90 f   SkillManager.obj
 0001:000ffdd0       ?UseDurationSkillAttack@CSkillManager@@QAEXHHPAVCSkill@@EEEE@Z 00500dd0 f   SkillManager.obj
 0001:00100080       ?RunningSkill@CSkillManager@@QAE_NHHPAVCSkill@@EEE_N@Z 00501080 f   SkillManager.obj
 0001:00102d10       ?BasicSkillAttack@CSkillManager@@QAE_NHHPAVCSkill@@_N@Z 00503d10 f   SkillManager.obj
 0001:00102dc0       ?MultiSkillAttack@CSkillManager@@QAE_NHHPAVCSkill@@_N@Z 00503dc0 f   SkillManager.obj
 0001:00102f50       ?SkillChangeUse@CSkillManager@@QAE_NH@Z 00503f50 f   SkillManager.obj
 0001:00103210       ?SkillManaShield@CSkillManager@@QAE_NHHPAVCSkill@@@Z 00504210 f   SkillManager.obj
 0001:001033f0       ?SkillHeal@CSkillManager@@QAE_NHHPAVCSkill@@@Z 005043f0 f   SkillManager.obj
 0001:00103610       ?SkillGreaterDefense@CSkillManager@@QAE_NHHPAVCSkill@@@Z 00504610 f   SkillManager.obj
 0001:00103860       ?SkillGreaterDamage@CSkillManager@@QAE_NHHPAVCSkill@@@Z 00504860 f   SkillManager.obj
 0001:00103ab0       ?SkillSummon@CSkillManager@@QAE_NHHPAVCSkill@@@Z 00504ab0 f   SkillManager.obj
 0001:00103e20       ?SkillDeathStab@CSkillManager@@QAE_NHHPAVCSkill@@_N@Z 00504e20 f   SkillManager.obj
 0001:00103fb0       ?SkillGreaterLife@CSkillManager@@QAE_NHHPAVCSkill@@@Z 00504fb0 f   SkillManager.obj
 0001:00104260       ?SkillForce@CSkillManager@@QAE_NHHPAVCSkill@@_N@Z 00505260 f   SkillManager.obj
 0001:001044a0       ?SkillFireBurst@CSkillManager@@QAE_NHHPAVCSkill@@_N@Z 005054a0 f   SkillManager.obj
 0001:00104630       ?SkillSummonParty@CSkillManager@@QAE_NHHPAVCSkill@@@Z 00505630 f   SkillManager.obj
 0001:00104920       ?SkillGreaterCriticalDamage@CSkillManager@@QAE_NHHPAVCSkill@@@Z 00505920 f   SkillManager.obj
 0001:00104b60       ?SkillCastleSiege@CSkillManager@@QAE_NHHPAVCSkill@@@Z 00505b60 f   SkillManager.obj
 0001:00104c40       ?SkillStern@CSkillManager@@QAE_NHHPAVCSkill@@E@Z 00505c40 f   SkillManager.obj
 0001:00104ea0       ?SkillGreaterMana@CSkillManager@@QAE_NHHPAVCSkill@@@Z 00505ea0 f   SkillManager.obj
 0001:00105070       ?SkillChainLightning@CSkillManager@@QAE_NHHPAVCSkill@@@Z 00506070 f   SkillManager.obj
 0001:001052c0       ?SkillDamageReflect@CSkillManager@@QAE_NHHPAVCSkill@@@Z 005062c0 f   SkillManager.obj
 0001:00105450       ?SkillSwordPowerGetDefense@CSkillManager@@QAE_NHPAH@Z 00506450 f   SkillManager.obj
 0001:00105520       ?SkillSwordPowerGetPhysiDamage@CSkillManager@@QAE_NHPAH0@Z 00506520 f   SkillManager.obj
 0001:00105670       ?SkillSwordPowerGetMagicDamage@CSkillManager@@QAE_NHPAH0@Z 00506670 f   SkillManager.obj
 0001:001057b0       ?SkillSwordPowerGetCurseDamage@CSkillManager@@QAE_NHPAH0@Z 005067b0 f   SkillManager.obj
 0001:001058f0       ?SkillSleep@CSkillManager@@QAE_NHHPAVCSkill@@@Z 005068f0 f   SkillManager.obj
 0001:00105b40       ?SkillLesserDefense@CSkillManager@@QAE_NHHPAVCSkill@@@Z 00506b40 f   SkillManager.obj
 0001:00105d40       ?SkillLesserDamage@CSkillManager@@QAE_NHHPAVCSkill@@@Z 00506d40 f   SkillManager.obj
 0001:00105f50       ?SkillShieldRecover@CSkillManager@@QAE_NHHPAVCSkill@@_N@Z 00506f50 f   SkillManager.obj
 0001:001060e0       ?SkillFiveShot@CSkillManager@@QAE_NHHPAVCSkill@@E_N@Z 005070e0 f   SkillManager.obj
 0001:001066e0       ?SkillBirds@CSkillManager@@QAE_NHHPAVCSkill@@E_N@Z 005076e0 f   SkillManager.obj
 0001:00106890       ?SkillDragonLore@CSkillManager@@QAE_NHHPAVCSkill@@_N@Z 00507890 f   SkillManager.obj
 0001:00106890       ?SkillPhoenixShot@CSkillManager@@QAE_NHHPAVCSkill@@_N@Z 00507890 f   SkillManager.obj
 0001:00106a40       ?SkillFitness@CSkillManager@@QAE_NHHPAVCSkill@@@Z 00507a40 f   SkillManager.obj
 0001:00106c40       ?SkillGreaterDefenseSuccessRate@CSkillManager@@QAE_NHHPAVCSkill@@@Z 00507c40 f   SkillManager.obj
 0001:00106e50       ?SkillCure@CSkillManager@@QAE_NHHPAVCSkill@@@Z 00507e50 f   SkillManager.obj
 0001:00106fa0       ?SkillPartyHeal@CSkillManager@@QAE_NHHPAVCSkill@@@Z 00507fa0 f   SkillManager.obj
 0001:001072c0       ?SkillBlind@CSkillManager@@QAE_NHHPAVCSkill@@@Z 005082c0 f   SkillManager.obj
 0001:00107500       ?CGMultiSkillAttackRecv@CSkillManager@@QAEXPAUPMSG_MULTI_SKILL_ATTACK_RECV@@H_N@Z 00508500 f   SkillManager.obj
 0001:00107800       ?CGSkillAttackRecv@CSkillManager@@QAEXPAUPMSG_SKILL_ATTACK_RECV@@H@Z 00508800 f   SkillManager.obj
 0001:00107a50       ?CGDurationSkillAttackRecv@CSkillManager@@QAEXPAUPMSG_DURATION_SKILL_ATTACK_RECV@@H@Z 00508a50 f   SkillManager.obj
 0001:00107bc0       ?CGRageFighterSkillAttackRecv@CSkillManager@@QAEXPAUPMSG_RAGE_FIGHTER_SKILL_ATTACK_RECV@@H@Z 00508bc0 f   SkillManager.obj
 0001:00107cd0       ?CGSkillDarkSideRecv@CSkillManager@@QAEXPAUPMSG_SKILL_DARK_SIDE_RECV@@H@Z 00508cd0 f   SkillManager.obj
 0001:00107ee0       ?CGSkillTeleportAllyRecv@CSkillManager@@QAEXPAUPMSG_SKILL_TELEPORT_ALLY_RECV@@H@Z 00508ee0 f   SkillManager.obj
 0001:001081d0       ?GCSkillAttackSend@CSkillManager@@QAEXPAUOBJECTSTRUCT@@HHE@Z 005091d0 f   SkillManager.obj
 0001:00108270       ?GCDurationSkillAttackSend@CSkillManager@@QAEXPAUOBJECTSTRUCT@@HEEE@Z 00509270 f   SkillManager.obj
 0001:00108310       ?GCRageFighterSkillAttackSend@CSkillManager@@QAEXPAUOBJECTSTRUCT@@HHE@Z 00509310 f   SkillManager.obj
 0001:001083b0       ?GCSkillAddSend@CSkillManager@@QAEXHEHEE@Z 005093b0 f   SkillManager.obj
 0001:00108440       ?GCSkillListSend@CSkillManager@@QAEXPAUOBJECTSTRUCT@@E@Z 00509440 f   SkillManager.obj
 0001:00108510       ?clear@?$_Tree@V?$_Tmap_traits@HUSKILL_INFO@@U?$less@H@std@@V?$allocator@U?$pair@$$CBHUSKILL_INFO@@@std@@@3@$0A@@std@@@std@@QAEXXZ 00509510 f i SkillManager.obj
 0001:00108560       ??1?$_Tree@V?$_Tmap_traits@HUSKILL_INFO@@U?$less@H@std@@V?$allocator@U?$pair@$$CBHUSKILL_INFO@@@std@@@3@$0A@@std@@@std@@QAE@XZ 00509560 f i SkillManager.obj
 0001:001085b0       ??$_Erase_tree@V?$allocator@U?$_Tree_node@U?$pair@$$CBHUSKILL_INFO@@@std@@PAX@std@@@std@@@?$_Tree_val@U?$_Tree_simple_types@U?$pair@$$CBHUSKILL_INFO@@@std@@@std@@@std@@QAEXAAV?$allocator@U?$_Tree_node@U?$pair@$$CBHUSKILL_INFO@@@std@@PAX@std@@@1@PAU?$_Tree_node@U?$pair@$$CBHUSKILL_INFO@@@std@@PAX@1@@Z 005095b0 f i SkillManager.obj
 0001:001085f0       ??1?$_Alloc_construct_ptr@V?$allocator@U?$_Tree_node@U?$pair@$$CBHUSKILL_INFO@@@std@@PAX@std@@@std@@@std@@QAE@XZ 005095f0 f i SkillManager.obj
 0001:00108610       _atan2f                    00509610 f i SkillManager.obj
 0001:00108650       ?Read@CSmithy@@QAEXPAD@Z   00509650 f   Smithy.obj
 0001:00108e40       ?GCItemSend@CSmithy@@QAEXH@Z 00509e40 f   Smithy.obj
 0001:001091a0       ?CGCreateItem@CSmithy@@QAEXPAUCG_SmithyCreateItem@@H@Z 0050a1a0 f   Smithy.obj
 0001:00109880       ??_GCSocketItemOption@@UAEPAXI@Z 0050a880 f i SocketItemOption.obj
 0001:00109880       ??_ECSocketItemOption@@UAEPAXI@Z 0050a880 f i * CIL library *:* CIL module *
 0001:001098b0       ?Init@CSocketItemOption@@QAEXXZ 0050a8b0 f   SocketItemOption.obj
 0001:001098f0       ?Load@CSocketItemOption@@QAEXPAD@Z 0050a8f0 f   SocketItemOption.obj
 0001:00109d90       ?GetSocketItemBonusOption@CSocketItemOption@@QAEEPAVCItem@@@Z 0050ad90 f   SocketItemOption.obj
 0001:00109e90       ?CalcSocketItemOption@CSocketItemOption@@QAEXPAUOBJECTSTRUCT@@_N@Z 0050ae90 f   SocketItemOption.obj
 0001:0010a0f0       ?InsertOption@CSocketItemOption@@QAEXPAUOBJECTSTRUCT@@HH_N@Z 0050b0f0 f   SocketItemOption.obj
 0001:0010a500       ??_ECSocketItemType@@UAEPAXI@Z 0050b500 f i * CIL library *:* CIL module *
 0001:0010a500       ??_GCSocketItemType@@UAEPAXI@Z 0050b500 f i SocketItemType.obj
 0001:0010a530       ?Load@CSocketItemType@@QAEXPAD@Z 0050b530 f   SocketItemType.obj
 0001:0010a750       ??_ECSocketManager@@UAEPAXI@Z 0050b750 f i * CIL library *:* CIL module *
 0001:0010a750       ??_GCSocketManager@@UAEPAXI@Z 0050b750 f i SocketManager.obj
 0001:0010a800       ?Start@CSocketManager@@QAE_NG@Z 0050b800 f   SocketManager.obj
 0001:0010aae0       ?Clean@CSocketManager@@QAEXXZ 0050bae0 f   SocketManager.obj
 0001:0010aae0       ?Clean@CSocketManagerSimple@@QAEXXZ 0050bae0 f   SocketManagerSimple.obj
 0001:0010abb0       ?DataRecv@CSocketManager@@QAE_NHPAUIO_MAIN_BUFFER@@@Z 0050bbb0 f   SocketManager.obj
 0001:0010af20       ?DataRecvDefault@CSocketManager@@QAE_NHPAUIO_MAIN_BUFFER@@@Z 0050bf20 f   SocketManager.obj
 0001:0010b240       ?DataSend@CSocketManager@@QAE_NHPAEH@Z 0050c240 f   SocketManager.obj
 0001:0010b480       ?Disconnect@CSocketManager@@QAEXH@Z 0050c480 f   SocketManager.obj
 0001:0010b520       ?OnSend@CSocketManager@@QAEXHKPAUIO_SEND_CONTEXT@@@Z 0050c520 f   SocketManager.obj
 0001:0010b6d0       ?ServerAcceptCondition@CSocketManager@@SGHPAU_WSABUF@@0PAU_QualityOfService@@100PAIPAV1@@Z 0050c6d0 f   SocketManager.obj
 0001:0010b6e0       ?ServerAcceptThread@CSocketManager@@SGKPAV1@@Z 0050c6e0 f   SocketManager.obj
 0001:0010bb70       ?ServerWorkerThread@CSocketManager@@SGKPAV1@@Z 0050cb70 f   SocketManager.obj
 0001:0010bd70       ?ServerQueueThread@CSocketManager@@SGKPAV1@@Z 0050cd70 f   SocketManager.obj
 0001:0010be60       ??_ECSocketManagerSimple@@UAEPAXI@Z 0050ce60 f i * CIL library *:* CIL module *
 0001:0010be60       ??_GCSocketManagerSimple@@UAEPAXI@Z 0050ce60 f i SocketManagerSimple.obj
 0001:0010bf10       ??_GCSocketManagerUdp@@UAEPAXI@Z 0050cf10 f i SocketManagerUdp.obj
 0001:0010bf10       ??_ECSocketManagerUdp@@UAEPAXI@Z 0050cf10 f i * CIL library *:* CIL module *
 0001:0010bf70       ?_AtlRaiseException@ATL@@YAXKK@Z 0050cf70 f i stdafx.obj
 0001:0010bf90       ?Init@CComCriticalSection@ATL@@QAEJXZ 0050cf90 f i stdafx.obj
 0001:0010bfc0       ??_ECSummonScroll@@UAEPAXI@Z 0050cfc0 f i * CIL library *:* CIL module *
 0001:0010bfc0       ??_GCSummonScroll@@UAEPAXI@Z 0050cfc0 f i SummonScroll.obj
 0001:0010c000       ??_EcSuperPoints@@UAEPAXI@Z 0050d000 f i * CIL library *:* CIL module *
 0001:0010c000       ??_GcSuperPoints@@UAEPAXI@Z 0050d000 f i SuperPoints.obj
 0001:0010c030       ?Load@cSuperPoints@@QAEXPAD@Z 0050d030 f   SuperPoints.obj
 0001:0010c280       ??_ECTeleportPanel@@UAEPAXI@Z 0050d280 f i * CIL library *:* CIL module *
 0001:0010c280       ??_GCTeleportPanel@@UAEPAXI@Z 0050d280 f i TeleportPanel.obj
 0001:0010c2b0       ?load@CTeleportPanel@@QAEXPAD@Z 0050d2b0 f   TeleportPanel.obj
 0001:0010c870       ?send_open_window@CTeleportPanel@@QAEXH@Z 0050d870 f   TeleportPanel.obj
 0001:0010c990       ?TeleportCallback@CTeleportPanel@@SAXPAUOBJECTSTRUCT@@HKKKK@Z 0050d990 f   TeleportPanel.obj
 0001:0010cca0       ?check_req@CTeleportPanel@@QAE_NPAUOBJECTSTRUCT@@HKKK@Z 0050dca0 f   TeleportPanel.obj
 0001:0010cf10       ?clear_pk@CTeleportPanel@@QAEXPAUOBJECTSTRUCT@@KKK@Z 0050df10 f   TeleportPanel.obj
 0001:0010d290       ?find@?$_Tree@V?$_Tmap_traits@GUTELEPORT_PANEL_INFO@@U?$less@G@std@@V?$allocator@U?$pair@$$CBGUTELEPORT_PANEL_INFO@@@std@@@3@$0A@@std@@@std@@QAE?AV?$_Tree_iterator@V?$_Tree_val@U?$_Tree_simple_types@U?$pair@$$CBGUTELEPORT_PANEL_INFO@@@std@@@std@@@std@@@2@ABG@Z 0050e290 f i TeleportPanel.obj
 0001:0010d2f0       ??1?$_Tree@V?$_Tmap_traits@GUTELEPORT_PANEL_INFO@@U?$less@G@std@@V?$allocator@U?$pair@$$CBGUTELEPORT_PANEL_INFO@@@std@@@3@$0A@@std@@@std@@QAE@XZ 0050e2f0 f i TeleportPanel.obj
 0001:0010d330       ??$_Erase_tree@V?$allocator@U?$_Tree_node@U?$pair@$$CBGUTELEPORT_PANEL_INFO@@@std@@PAX@std@@@std@@@?$_Tree_val@U?$_Tree_simple_types@U?$pair@$$CBGUTELEPORT_PANEL_INFO@@@std@@@std@@@std@@QAEXAAV?$allocator@U?$_Tree_node@U?$pair@$$CBGUTELEPORT_PANEL_INFO@@@std@@PAX@std@@@1@PAU?$_Tree_node@U?$pair@$$CBGUTELEPORT_PANEL_INFO@@@std@@PAX@1@@Z 0050e330 f i TeleportPanel.obj
 0001:0010d370       ??_ECTrade@@UAEPAXI@Z      0050e370 f i * CIL library *:* CIL module *
 0001:0010d370       ??_GCTrade@@UAEPAXI@Z      0050e370 f i Trade.obj
 0001:0010d3a0       ?ClearTrade@CTrade@@QAEXPAUOBJECTSTRUCT@@@Z 0050e3a0 f   Trade.obj
 0001:0010d3f0       ?ResetTrade@CTrade@@QAEXH@Z 0050e3f0 f   Trade.obj
 0001:0010d4f0       ?ExchangeTradeItem@CTrade@@QAE_NPAUOBJECTSTRUCT@@0@Z 0050e4f0 f   Trade.obj
 0001:0010d570       ?ExchangeTradeItemLog@CTrade@@QAEXPAUOBJECTSTRUCT@@0@Z 0050e570 f   Trade.obj
 0001:0010d660       ?CGTradeRequestRecv@CTrade@@QAEXPAUPMSG_TRADE_REQUEST_RECV@@H@Z 0050e660 f   Trade.obj
 0001:0010da80       ?CGTradeResponseRecv@CTrade@@QAEXPAUPMSG_TRADE_RESPONSE_RECV@@H@Z 0050ea80 f   Trade.obj
 0001:0010de80       ?CGTradeMoneyRecv@CTrade@@QAEXPAUPMSG_TRADE_MONEY_RECV@@H@Z 0050ee80 f   Trade.obj
 0001:0010e060       ?CGTradeOkButtonRecv@CTrade@@QAEXPAUPMSG_TRADE_OK_BUTTON_RECV@@H@Z 0050f060 f   Trade.obj
 0001:0010e4e0       ?CGTradeCancelButtonRecv@CTrade@@QAEXH@Z 0050f4e0 f   Trade.obj
 0001:0010e620       ??0TVT_EVENT_INFO@@QAE@XZ  0050f620 f i TvTEvent.obj
 0001:0010e650       ??_GCTvTEvent@@UAEPAXI@Z   0050f650 f i TvTEvent.obj
 0001:0010e650       ??_ECTvTEvent@@UAEPAXI@Z   0050f650 f i * CIL library *:* CIL module *
 0001:0010e6d0       ??1TVT_EVENT_INFO@@QAE@XZ  0050f6d0 f i TvTEvent.obj
 0001:0010e6e0       ?ReadTvTEventInfo@CTvTEvent@@QAEXPAD0@Z 0050f6e0 f   TvTEvent.obj
 0001:0010e8c0       ?Load@CTvTEvent@@QAEXPAD@Z 0050f8c0 f   TvTEvent.obj
 0001:0010ed90       ?MainProc@CTvTEvent@@QAEXXZ 0050fd90 f   TvTEvent.obj
 0001:0010f1b0       ?SetState@CTvTEvent@@QAEXPAUTVT_EVENT_INFO@@H@Z 005101b0 f   TvTEvent.obj
 0001:0010f3a0       ?SetState_CLEAN@CTvTEvent@@QAEXPAUTVT_EVENT_INFO@@@Z 005103a0 f   TvTEvent.obj
 0001:0010f5c0       ?CheckSync@CTvTEvent@@QAEXPAUTVT_EVENT_INFO@@@Z 005105c0 f   TvTEvent.obj
 0001:0010f7b0       ?CheckEnterEnabled@CTvTEvent@@QAE_NPAUOBJECTSTRUCT@@@Z 005107b0 f   TvTEvent.obj
 0001:0010f9a0       ?CheckEnteredUser@CTvTEvent@@QAE_NHH@Z 005109a0 f   TvTEvent.obj
 0001:0010fa40       ?CheckPlayerTarget@CTvTEvent@@QAE_NPAUOBJECTSTRUCT@@@Z 00510a40 f   TvTEvent.obj
 0001:0010fae0       ?CheckPlayerJoined@CTvTEvent@@QAE_NPAUOBJECTSTRUCT@@0@Z 00510ae0 f   TvTEvent.obj
 0001:0010fb80       ?AddUser@CTvTEvent@@QAE_NPAUTVT_EVENT_INFO@@H@Z 00510b80 f   TvTEvent.obj
 0001:0010fdc0       ?CheckUser@CTvTEvent@@QAEXPAUTVT_EVENT_INFO@@@Z 00510dc0 f   TvTEvent.obj
 0001:0010fe70       ?DivisionTeam@CTvTEvent@@QAEXPAUTVT_EVENT_INFO@@@Z 00510e70 f   TvTEvent.obj
 0001:00110070       ?UserDieProc@CTvTEvent@@QAEXPAUOBJECTSTRUCT@@0@Z 00511070 f   TvTEvent.obj
 0001:00110260       ?NoticeSendToAll@CTvTEvent@@QAAXPAUTVT_EVENT_INFO@@HPADZZ 00511260 f   TvTEvent.obj
 0001:001102f0       ??_GCUnion@@UAEPAXI@Z      005112f0 f i Union.obj
 0001:001102f0       ??_ECUnion@@UAEPAXI@Z      005112f0 f i * CIL library *:* CIL module *
 0001:00110330       ?GetGuildRelationShip@CUnion@@QAEHHH@Z 00511330 f   Union.obj
 0001:001103e0       ?SearchUnion@CUnion@@QAEPAVCUnionInfo@@H@Z 005113e0 f   Union.obj
 0001:00110460       ?AddUnion@CUnion@@QAEHHPAD@Z 00511460 f   Union.obj
 0001:00110660       ?erase@?$_Tree@V?$_Tmap_traits@HPAVCUnionInfo@@U?$less@H@std@@V?$allocator@U?$pair@$$CBHPAVCUnionInfo@@@std@@@3@$0A@@std@@@std@@QAEIABH@Z 00511660 f i Union.obj
 0001:00110800       ??_GCUnionInfo@@UAEPAXI@Z  00511800 f i UnionInfo.obj
 0001:00110800       ??_ECUnionInfo@@UAEPAXI@Z  00511800 f i * CIL library *:* CIL module *
 0001:00110870       ??0MESSAGE_STATE_MACHINE_COMMON@@QAE@XZ 00511870 f i User.obj
 0001:001108d0       ??0MESSAGE_STATE_ATTACK_MACHINE_COMMON@@QAE@XZ 005118d0 f i User.obj
 0001:00110930       ??0OBJECTSTRUCT@@QAE@XZ    00511930 f i User.obj
 0001:001109a0       ?gObjEventRunProc@@YAXXZ   005119a0 f   User.obj
 0001:001110b0       ?gObjFirstProc@@YAXXZ      005120b0 f   User.obj
 0001:00111660       ?gObjCloseProc@@YAXXZ      00512660 f   User.obj
 0001:001118b0       ?gObjAllLogOut@@YAXXZ      005128b0 f   User.obj
 0001:00111960       ?gObjAllDisconnect@@YAXXZ  00512960 f   User.obj
 0001:00111a10       ?gObjCharZeroSet@@YAXH@Z   00512a10 f   User.obj
 0001:00112700       ?gObjClearPlayerOption@@YAXPAUOBJECTSTRUCT@@@Z 00513700 f   User.obj
 0001:00112a40       ?gObjClearSpecialOption@@YAXPAUOBJECTSTRUCT@@@Z 00513a40 f   User.obj
 0001:00112cb0       ?gObjCalcExperience@@YAXPAUOBJECTSTRUCT@@@Z 00513cb0 f   User.obj
 0001:00112d60       ?gObjGetRandomFreeLocation@@YA_NHPAH0HHH@Z 00513d60 f   User.obj
 0001:00112e60       ?gObjAllocData@@YA_NH@Z    00513e60 f   User.obj
 0001:00113050       ?gObjDelOffExp@@YAFH@Z     00514050 f   User.obj
 0001:001130c0       ?gObjDel@@YAFH@Z           005140c0 f   User.obj
 0001:00113380       ?gObjFind@@YAPAUOBJECTSTRUCT@@PAD@Z 00514380 f   User.obj
 0001:00113400       ?gObjFindByAcc@@YAPAUOBJECTSTRUCT@@PAD@Z 00514400 f   User.obj
 0001:00113480       ?gObjCalcDistance@@YAHPAUOBJECTSTRUCT@@0@Z 00514480 f   User.obj
 0001:00113530       ?gObjIsNameValid@@YA_NHPAD@Z 00514530 f   User.obj
 0001:001135c0       ?gObjIsAccountValid@@YA_NHPAD@Z 005145c0 f   User.obj
 0001:00113650       ?gObjIsChangeSkin@@YA_NH@Z 00514650 f   User.obj
 0001:00113700       ?gObjCheckResistance@@YA_NPAUOBJECTSTRUCT@@H@Z 00514700 f   User.obj
 0001:001137e0       ?gObjCheckTeleportArea@@YA_NHHH@Z 005147e0 f   User.obj
 0001:001138b0       ?gObjCheckMapTile@@YA_NPAUOBJECTSTRUCT@@H@Z 005148b0 f   User.obj
 0001:001139d0       ?gObjFixInventoryPointer@@YA_NH@Z 005149d0 f   User.obj
 0001:00113a50       ?gObjInventoryTransaction@@YA_NH@Z 00514a50 f   User.obj
 0001:00113b90       ?gObjInventoryCommit@@YA_NH@Z 00514b90 f   User.obj
 0001:00113c90       ?gObjInventoryRollback@@YA_NH@Z 00514c90 f   User.obj
 0001:00113d50       ?gObjClearViewport@@YAXPAUOBJECTSTRUCT@@@Z 00514d50 f   User.obj
 0001:00113dd0       ?gObjViewportListProtocolCreate@@YAXPAUOBJECTSTRUCT@@@Z 00514dd0 f   User.obj
 0001:00114190       ?gObjViewportListProtocol@@YAXH@Z 00515190 f   User.obj
 0001:00114750       ?gObjViewportListDestroy@@YAXH@Z 00515750 f   User.obj
 0001:00114cf0       ?gObjViewportListCreate@@YAXH@Z 00515cf0 f   User.obj
 0001:00114f90       ?gObjTeleportMagicUse@@YAXHHH@Z 00515f90 f   User.obj
 0001:001151a0       ?gObjInterfaceCheckTime@@YAXPAUOBJECTSTRUCT@@@Z 005161a0 f   User.obj
 0001:001153c0       ?gObjPKDownCheckTime@@YAXPAUOBJECTSTRUCT@@H@Z 005163c0 f   User.obj
 0001:001154d0       ?gObjKillReward@@YAXPAUOBJECTSTRUCT@@0@Z 005164d0 f   User.obj
 0001:00115590       ?gObjUserDie@@YAXPAUOBJECTSTRUCT@@0@Z 00516590 f   User.obj
 0001:00115de0       ?gObjPlayerKiller@@YAXPAUOBJECTSTRUCT@@0@Z 00516de0 f   User.obj
 0001:001160f0       ?gObjMoveGate@@YAHHH@Z     005170f0 f   User.obj
 0001:00116b00       ?gObjTeleport@@YAXHHHH@Z   00517b00 f   User.obj
 0001:00116d30       ?gObjSkillUseProc@@YAXPAUOBJECTSTRUCT@@@Z 00517d30 f   User.obj
 0001:00117050       ?gObjInventorySearchSerialNumber@@YA_NPAUOBJECTSTRUCT@@K@Z 00518050 f   User.obj
 0001:00117120       ?gObjWarehouseSearchSerialNumber@@YA_NPAUOBJECTSTRUCT@@K@Z 00518120 f   User.obj
 0001:001171f0       ?gObjGuildWarehouseSearchSerialNumber@@YA_NPAUOBJECTSTRUCT@@K@Z 005181f0 f   User.obj
 0001:001172d0       ?gObjAddMsgSendDelay@@YAXPAUOBJECTSTRUCT@@HHHH@Z 005182d0 f   User.obj
 0001:00117410       ?gObjAddAttackProcMsgSendDelay@@YAXPAUOBJECTSTRUCT@@HHHHH@Z 00518410 f   User.obj
 0001:00117580       ?gObjSecondProc@@YAXXZ     00518580 f   User.obj
 0001:001181c0       ?gObjBackSpring@@YAHPAUOBJECTSTRUCT@@0@Z 005191c0 f   User.obj
 0001:00118400       ?BackSpringCheck@@YAHAAH00E@Z 00519400 f   User.obj
 0001:001184a0       ?gObjBackSpring2@@YAHPAUOBJECTSTRUCT@@0H@Z 005194a0 f   User.obj
 0001:00118770       ?gObjCheckSelfDefense@@YAXPAUOBJECTSTRUCT@@H@Z 00519770 f   User.obj
 0001:001189c0       ?gObjTimeCheckSelfDefense@@YAXPAUOBJECTSTRUCT@@@Z 005199c0 f   User.obj
 0001:00118b20       ?gObjTargetGuildWarCheck@@YAHPAUOBJECTSTRUCT@@0@Z 00519b20 f   User.obj
 0001:00118bb0       ?gObjGuildWarEndSend@@YAXPAUOBJECTSTRUCT@@EE@Z 00519bb0 f   User.obj
 0001:00118d20       ?gObjGuildWarEndSend@@YAXPAUGUILD_INFO_STRUCT@@0EE@Z 00519d20 f   User.obj
 0001:00118e40       ?gObjGuildWarProc@@YAHPAUGUILD_INFO_STRUCT@@0H@Z 00519e40 f   User.obj
 0001:001191f0       ?gObjGuildWarMasterClose@@YAHPAUOBJECTSTRUCT@@@Z 0051a1f0 f   User.obj
 0001:00119310       ?gObjSetPosition@@YAXHHH@Z 0051a310 f   User.obj
 0001:00119400       ?gObjNotifyUpdateUnionV1@@YAXPAUOBJECTSTRUCT@@@Z 0051a400 f   User.obj
 0001:001195e0       ?gObjNotifyUpdateUnionV2@@YAXPAUOBJECTSTRUCT@@@Z 0051a5e0 f   User.obj
 0001:00119730       ?gObjRebuildMasterSkillTree@@YA_NPAUOBJECTSTRUCT@@@Z 0051a730 f   User.obj
 0001:00119970       ?gObjUseDrink@@YAXPAUOBJECTSTRUCT@@H@Z 0051a970 f   User.obj
 0001:00119a10       ?ReadData@UserPanel@@QAEXPAD@Z 0051aa10 f   UserPanel.obj
 0001:00119b60       ?ErrorMessageBox@@YAXPADZZ 0051ab60 f   Util.obj
 0001:00119bf0       ?MsgBox@@YAXPADZZ          0051abf0 f   Util.obj
 0001:00119c90       ?LogAdd@@YAXW4eLogColor@@PADZZ 0051ac90 f   Util.obj
 0001:00119db0       ?DataSend@@YA_NHPAEK@Z     0051adb0 f   Util.obj
 0001:00119dd0       ?MsgSendV2@@YAXPAUOBJECTSTRUCT@@PAEH@Z 0051add0 f   Util.obj
 0001:00119e20       ?PostMessage1@@YAXPAD00@Z  0051ae20 f   Util.obj
 0001:00119f40       ?PostMessage2@@YAXPAD00@Z  0051af40 f   Util.obj
 0001:0011a060       ?PostMessage3@@YAXPAD00@Z  0051b060 f   Util.obj
 0001:0011a180       ?PostMessage4@@YAXPAD00@Z  0051b180 f   Util.obj
 0001:0011a2a0       ?GetLargeRand@@YAJXZ       0051b2a0 f   Util.obj
 0001:0011a360       ??0?$mersenne_twister@I$0CA@$0CHA@$0BIN@$0BP@$0JJAILANP@$0L@$06$0JNCMFGIA@$0P@$0OPMGAAAA@$0BC@@std@@QAE@III@Z 0051b360 f i Util.obj
 0001:0011a3b0       ??R?$mersenne_twister@I$0CA@$0CHA@$0BIN@$0BP@$0JJAILANP@$0L@$06$0JNCMFGIA@$0P@$0OPMGAAAA@$0BC@@std@@QAEIXZ 0051b3b0 f i Util.obj
 0001:0011a540       _modff                     0051b540 f i Util.obj
 0001:0011a590       ??_GCViewport@@UAEPAXI@Z   0051b590 f i Viewport.obj
 0001:0011a590       ??_ECViewport@@UAEPAXI@Z   0051b590 f i * CIL library *:* CIL module *
 0001:0011a5c0       ?AddViewportObject1@CViewport@@QAE_NHHH@Z 0051b5c0 f   Viewport.obj
 0001:0011a6c0       ?AddViewportObject2@CViewport@@QAE_NHHH@Z 0051b6c0 f   Viewport.obj
 0001:0011a750       ?DestroyViewportMonster1@CViewport@@QAEXH@Z 0051b750 f   Viewport.obj
 0001:0011aa20       ?CreateViewportItem@CViewport@@QAEXH@Z 0051ba20 f   Viewport.obj
 0001:0011abc0       ?GCViewportNewPetSend@CViewport@@QAEXH@Z 0051bbc0 f   Viewport.obj
 0001:0011adc0       ?GCViewportPlayerSend@CViewport@@QAEXH@Z 0051bdc0 f   Viewport.obj
 0001:0011b040       ?GCViewportMonsterSend@CViewport@@QAEXH@Z 0051c040 f   Viewport.obj
 0001:0011b250       ?GCViewportSummonSend@CViewport@@QAEXH@Z 0051c250 f   Viewport.obj
 0001:0011b460       ?GCViewportChangeSend@CViewport@@QAEXH@Z 0051c460 f   Viewport.obj
 0001:0011b710       ?GCViewportGuildSend@CViewport@@QAEXH@Z 0051c710 f   Viewport.obj
 0001:0011b960       ?GCViewportCastleSiegeWeaponSend@CViewport@@QAEXHHH@Z 0051c960 f   Viewport.obj
 0001:0011bb90       ?GCViewportSimplePlayerSend@CViewport@@QAEXPAUOBJECTSTRUCT@@@Z 0051cb90 f   Viewport.obj
 0001:0011bd90       ?GCViewportSimpleChangeSend@CViewport@@QAEXPAUOBJECTSTRUCT@@@Z 0051cd90 f   Viewport.obj
 0001:0011bfa0       ?GCViewportSimpleGuildSend@CViewport@@QAEXPAUOBJECTSTRUCT@@@Z 0051cfa0 f   Viewport.obj
 0001:0011c110       ?GCViewportSimpleGensSystemSend@CViewport@@QAEXPAUOBJECTSTRUCT@@@Z 0051d110 f   Viewport.obj
 0001:0011c220       ??0CUSTOM_VIP_LOTTERY_INFO@@QAE@XZ 0051d220 f i VipLotteryEvent.obj
 0001:0011c250       ??_EcVipLottery@@UAEPAXI@Z 0051d250 f i * CIL library *:* CIL module *
 0001:0011c250       ??_GcVipLottery@@UAEPAXI@Z 0051d250 f i VipLotteryEvent.obj
 0001:0011c2d0       ??1CUSTOM_VIP_LOTTERY_INFO@@QAE@XZ 0051d2d0 f i VipLotteryEvent.obj
 0001:0011c2f0       ?ProcState_EMPTY@cVipLottery@@QAEXPAUCUSTOM_VIP_LOTTERY_INFO@@@Z 0051d2f0 f   VipLotteryEvent.obj
 0001:0011c460       ?SetState@cVipLottery@@QAEXPAUCUSTOM_VIP_LOTTERY_INFO@@H@Z 0051d460 f   VipLotteryEvent.obj
 0001:0011c4c0       ?SetState_EMPTY@cVipLottery@@QAEXPAUCUSTOM_VIP_LOTTERY_INFO@@@Z 0051d4c0 f   VipLotteryEvent.obj
 0001:0011c680       ??_GCVoteParcer@@UAEPAXI@Z 0051d680 f i VoteParcer.obj
 0001:0011c680       ??_ECVoteParcer@@UAEPAXI@Z 0051d680 f i * CIL library *:* CIL module *
 0001:0011c6c0       ??_ECWarehouse@@UAEPAXI@Z  0051d6c0 f i * CIL library *:* CIL module *
 0001:0011c6c0       ??_GCWarehouse@@UAEPAXI@Z  0051d6c0 f i Warehouse.obj
 0001:0011c6f0       ?GetWarehouseTaxMoney@CWarehouse@@QAEHHH@Z 0051d6f0 f   Warehouse.obj
 0001:0011c780       ?CGWarehouseMoneyRecv@CWarehouse@@QAEXPAUPMSG_WAREHOUSE_MONEY_RECV@@H@Z 0051d780 f   Warehouse.obj
 0001:0011c990       ?CGWarehouseClose@CWarehouse@@QAEXHH@Z 0051d990 f   Warehouse.obj
 0001:0011cc40       ?CGWarehousePasswordRecv@CWarehouse@@QAEXPAUPMSG_WAREHOUSE_PASSWORD_RECV@@H@Z 0051dc40 f   Warehouse.obj
 0001:0011ce10       ?DGWarehouseItemRecv@CWarehouse@@QAEXPAUSDHP_WAREHOUSE_ITEM_RECV@@@Z 0051de10 f   Warehouse.obj
 0001:0011d130       ?GDWarehouseItemSaveSend@CWarehouse@@QAEXH@Z 0051e130 f   Warehouse.obj
 0001:0011d230       ??_EcZenDrop@@UAEPAXI@Z    0051e230 f i * CIL library *:* CIL module *
 0001:0011d230       ??_GcZenDrop@@UAEPAXI@Z    0051e230 f i ZenDrop.obj
 0001:0011d260       ?Load@cZenDrop@@QAEXPAD@Z  0051e260 f   ZenDrop.obj
 0001:0011d650       ?GetZenAmount@cZenDrop@@QAEKEG@Z 0051e650 f   ZenDrop.obj
 0001:0011d760       _lua_checkstack            0051e760 f   liblua:lapi.obj
 0001:0011d810       _lua_xmove                 0051e810 f   liblua:lapi.obj
 0001:0011d870       _lua_settop                0051e870 f   liblua:lapi.obj
 0001:0011d940       _lua_rotate                0051e940 f   liblua:lapi.obj
 0001:0011d9b0       _lua_copy                  0051e9b0 f   liblua:lapi.obj
 0001:0011da50       _lua_pushvalue             0051ea50 f   liblua:lapi.obj
 0001:0011da80       _lua_type                  0051ea80 f   liblua:lapi.obj
 0001:0011dab0       _lua_typename              0051eab0 f   liblua:lapi.obj
 0001:0011dac0       _lua_isstring              0051eac0 f   liblua:lapi.obj
 0001:0011dae0       _lua_compare               0051eae0 f   liblua:lapi.obj
 0001:0011dc30       _lua_tolstring             0051ec30 f   liblua:lapi.obj
 0001:0011dcf0       _lua_rawlen                0051ecf0 f   liblua:lapi.obj
 0001:0011dd70       _lua_touserdata            0051ed70 f   liblua:lapi.obj
 0001:0011ddb0       _lua_pushstring            0051edb0 f   liblua:lapi.obj
 0001:0011de00       _lua_pushvfstring          0051ee00 f   liblua:lapi.obj
 0001:0011de30       _lua_pushfstring           0051ee30 f   liblua:lapi.obj
 0001:0011de70       _lua_pushcclosure          0051ee70 f   liblua:lapi.obj
 0001:0011dff0       _lua_geti                  0051eff0 f   liblua:lapi.obj
 0001:0011e1f0       _lua_seti                  0051f1f0 f   liblua:lapi.obj
 0001:0011e3c0       _lua_rawseti               0051f3c0 f   liblua:lapi.obj
 0001:0011e4a0       _lua_setmetatable          0051f4a0 f   liblua:lapi.obj
 0001:0011e5a0       _lua_load                  0051f5a0 f   liblua:lapi.obj
 0001:0011e780       _lua_status                0051f780 f   liblua:lapi.obj
 0001:0011e790       _lua_gc                    0051f790 f   liblua:lapi.obj
 0001:0011ea00       _lua_error                 0051fa00 f   liblua:lapi.obj
 0001:0011ea30       _lua_concat                0051fa30 f   liblua:lapi.obj
 0001:0011ea50       _lua_newuserdatauv         0051fa50 f   liblua:lapi.obj
 0001:0011eaf0       _lua_setupvalue            0051faf0 f   liblua:lapi.obj
 0001:0011ef20       _luaL_traceback            0051ff20 f   liblua:lauxlib.obj
 0001:0011f430       _luaL_argerror             00520430 f   liblua:lauxlib.obj
 0001:0011f500       _luaL_typeerror            00520500 f   liblua:lauxlib.obj
 0001:0011f590       _luaL_where                00520590 f   liblua:lauxlib.obj
 0001:0011f610       _luaL_error                00520610 f   liblua:lauxlib.obj
 0001:0011f650       _luaL_fileresult           00520650 f   liblua:lauxlib.obj
 0001:0011f700       _luaL_execresult           00520700 f   liblua:lauxlib.obj
 0001:0011f800       _luaL_newmetatable         00520800 f   liblua:lauxlib.obj
 0001:0011f920       _luaL_testudata            00520920 f   liblua:lauxlib.obj
 0001:0011fa60       _luaL_checkoption          00520a60 f   liblua:lauxlib.obj
 0001:0011fb30       _luaL_checkany             00520b30 f   liblua:lauxlib.obj
 0001:0011fba0       _luaL_checkinteger         00520ba0 f   liblua:lauxlib.obj
 0001:0011fc60       _luaL_optinteger           00520c60 f   liblua:lauxlib.obj
 0001:0011ffa0       _luaL_pushresult           00520fa0 f   liblua:lauxlib.obj
 0001:00120220       _luaL_loadfilex            00521220 f   liblua:lauxlib.obj
 0001:001204a0       _luaL_getmetafield         005214a0 f   liblua:lauxlib.obj
 0001:001205e0       _luaL_len                  005215e0 f   liblua:lauxlib.obj
 0001:001206d0       _luaL_tolstring            005216d0 f   liblua:lauxlib.obj
 0001:00120ac0       _luaL_setfuncs             00521ac0 f   liblua:lauxlib.obj
 0001:00120ba0       _luaL_getsubtable          00521ba0 f   liblua:lauxlib.obj
 0001:00120c60       _luaL_requiref             00521c60 f   liblua:lauxlib.obj
 0001:00120df0       _luaL_addgsub              00521df0 f   liblua:lauxlib.obj
 0001:00121510       _luaE_resetthread          00522510 f   liblua:lstate.obj
 0001:00121590       _lua_resetthread           00522590 f   liblua:lstate.obj
 0001:001215a0       _lua_newstate              005225a0 f   liblua:lstate.obj
 0001:001217b0       _luaV_tonumber_            005227b0 f   liblua:lvm.obj
 0001:00121870       _luaV_tointegerns          00522870 f   liblua:lvm.obj
 0001:00121c00       _luaV_finishget            00522c00 f   liblua:lvm.obj
 0001:00121d60       _luaV_finishset            00522d60 f   liblua:lvm.obj
 0001:00122480       _luaV_equalobj             00523480 f   liblua:lvm.obj
 0001:00122840       _luaV_concat               00523840 f   liblua:lvm.obj
 0001:00122ad0       _luaV_objlen               00523ad0 f   liblua:lvm.obj
 0001:00122c00       _luaV_idiv                 00523c00 f   liblua:lvm.obj
 0001:00122e40       _luaV_execute              00523e40 f   liblua:lvm.obj
 0001:00127340       _luaH_next                 00528340 f   liblua:ltable.obj
 0001:00127650       _luaH_resize               00528650 f   liblua:ltable.obj
 0001:00127c80       _luaH_new                  00528c80 f   liblua:ltable.obj
 0001:00127ce0       _luaH_newkey               00528ce0 f   liblua:ltable.obj
 0001:00127fc0       _luaH_getint               00528fc0 f   liblua:ltable.obj
 0001:001280c0       _luaH_getshortstr          005290c0 f   liblua:ltable.obj
 0001:00128100       _luaH_get                  00529100 f   liblua:ltable.obj
 0001:00128200       _luaH_getn                 00529200 f   liblua:ltable.obj
 0001:00128820       _luaO_rawarith             00529820 f   liblua:lobject.obj
 0001:00128ec0       _luaO_str2num              00529ec0 f   liblua:lobject.obj
 0001:001291b0       _luaO_pushvfstring         0052a1b0 f   liblua:lobject.obj
 0001:00129730       _luaO_pushfstring          0052a730 f   liblua:lobject.obj
 0001:00129750       _luaO_chunkid              0052a750 f   liblua:lobject.obj
 0001:001298a0       _luaD_seterrorobj          0052a8a0 f   liblua:ldo.obj
 0001:00129940       _luaD_throw                0052a940 f   liblua:ldo.obj
 0001:001299e0       _luaD_rawrunprotected      0052a9e0 f   liblua:ldo.obj
 0001:00129a60       _luaD_reallocstack         0052aa60 f   liblua:ldo.obj
 0001:00129be0       _luaD_shrinkstack          0052abe0 f   liblua:ldo.obj
 0001:00129cb0       _luaD_inctop               0052acb0 f   liblua:ldo.obj
 0001:00129d30       _luaD_hook                 0052ad30 f   liblua:ldo.obj
 0001:00129f20       _luaD_tryfuncTM            0052af20 f   liblua:ldo.obj
 0001:0012a3e0       _luaD_pretailcall          0052b3e0 f   liblua:ldo.obj
 0001:0012a5b0       _luaD_precall              0052b5b0 f   liblua:ldo.obj
 0001:0012a7a0       _luaD_callnoyield          0052b7a0 f   liblua:ldo.obj
 0001:0012ab20       _lua_resume                0052bb20 f   liblua:ldo.obj
 0001:0012acb0       _luaD_closeprotected       0052bcb0 f   liblua:ldo.obj
 0001:0012ad50       _luaD_pcall                0052bd50 f   liblua:ldo.obj
 0001:0012c250       _luaC_checkfinalizer       0052d250 f   liblua:lgc.obj
 0001:0012caa0       _luaC_freeallobjects       0052daa0 f   liblua:lgc.obj
 0001:0012d030       _luaC_step                 0052e030 f   liblua:lgc.obj
 0001:0012d100       _luaC_fullgc               0052e100 f   liblua:lgc.obj
 0001:0012d1d0       _luaG_getfuncline          0052e1d0 f   liblua:ldebug.obj
 0001:0012d340       _lua_getstack              0052e340 f   liblua:ldebug.obj
 0001:0012d390       _luaG_findlocal            0052e390 f   liblua:ldebug.obj
 0001:0012d6d0       _lua_getinfo               0052e6d0 f   liblua:ldebug.obj
 0001:0012e090       _luaG_typeerror            0052f090 f   liblua:ldebug.obj
 0001:0012e0b0       _luaG_callerror            0052f0b0 f   liblua:ldebug.obj
 0001:0012e100       _luaG_forerror             0052f100 f   liblua:ldebug.obj
 0001:0012e120       _luaG_concaterror          0052f120 f   liblua:ldebug.obj
 0001:0012e140       _luaG_opinterror           0052f140 f   liblua:ldebug.obj
 0001:0012e160       _luaG_tointerror           0052f160 f   liblua:ldebug.obj
 0001:0012e1a0       _luaG_ordererror           0052f1a0 f   liblua:ldebug.obj
 0001:0012e210       _luaG_addinfo              0052f210 f   liblua:ldebug.obj
 0001:0012e290       _luaG_errormsg             0052f290 f   liblua:ldebug.obj
 0001:0012e2f0       _luaG_runerror             0052f2f0 f   liblua:ldebug.obj
 0001:0012e350       _luaG_traceexec            0052f350 f   liblua:ldebug.obj
 0001:0012e4f0       _luaF_newtbcupval          0052f4f0 f   liblua:lfunc.obj
 0001:0012e5c0       _luaF_closeupval           0052f5c0 f   liblua:lfunc.obj
 0001:0012e690       _luaF_close                0052f690 f   liblua:lfunc.obj
 0001:0012e7d0       _luaF_newproto             0052f7d0 f   liblua:lfunc.obj
 0001:0012e880       _luaF_getlocalname         0052f880 f   liblua:lfunc.obj
 0001:0012e8d0       _luaZ_fill                 0052f8d0 f   liblua:lzio.obj
 0001:0012e930       _luaS_eqlngstr             0052f930 f   liblua:lstring.obj
 0001:0012ea20       _luaS_resize               0052fa20 f   liblua:lstring.obj
 0001:0012eca0       _luaS_newlstr              0052fca0 f   liblua:lstring.obj
 0001:0012ed30       _luaS_new                  0052fd30 f   liblua:lstring.obj
 0001:0012f5b0       _luaU_dump                 005305b0 f   liblua:ldump.obj
 0001:0012f740       _luaT_objtypename          00530740 f   liblua:ltm.obj
 0001:0012f7a0       _luaT_callTMres            005307a0 f   liblua:ltm.obj
 0001:0012f910       _luaT_trybinTM             00530910 f   liblua:ltm.obj
 0001:00130cf0       _luaopen_table             00531cf0 f   liblua:ltablib.obj
 0001:00132a70       _luaopen_base              00533a70 f   liblua:lbaselib.obj
 0001:00133740       _luaopen_utf8              00534740 f   liblua:lutf8lib.obj
 0001:00134f30       _luaopen_package           00535f30 f   liblua:loadlib.obj
 0001:00135f80       _luaopen_os                00536f80 f   liblua:loslib.obj
 0001:0013aaf0       _luaopen_string            0053baf0 f   liblua:lstrlib.obj
 0001:0013c2c0       _luaopen_math              0053d2c0 f   liblua:lmathlib.obj
 0001:0013e370       _luaopen_io                0053f370 f   liblua:liolib.obj
 0001:001401d0       _luaopen_debug             005411d0 f   liblua:ldblib.obj
 0001:00140970       _luaopen_coroutine         00541970 f   liblua:lcorolib.obj
 0001:001409d0       _luaM_toobig               005419d0 f   liblua:lmem.obj
 0001:00140a30       _luaM_saferealloc_         00541a30 f   liblua:lmem.obj
 0001:00140aa0       _luaM_malloc_              00541aa0 f   liblua:lmem.obj
 0001:00140b90       _luaX_token2str            00541b90 f   liblua:llex.obj
 0001:00140c90       _luaX_syntaxerror          00541c90 f   liblua:llex.obj
 0001:00140ca0       _luaX_newstring            00541ca0 f   liblua:llex.obj
 0001:00143c10       _luaU_undump               00544c10 f   liblua:lundump.obj
 0001:001489c0       _luaY_parser               005499c0 f   liblua:lparser.obj
 0001:00148d40       _luaK_semerror             00549d40 f   liblua:lcode.obj
 0001:00148d50       _luaK_nil                  00549d50 f   liblua:lcode.obj
 0001:00148e10       _luaK_concat               00549e10 f   liblua:lcode.obj
 0001:00148e80       _luaK_ret                  00549e80 f   liblua:lcode.obj
 0001:00149220       _luaK_code                 0054a220 f   liblua:lcode.obj
 0001:001496b0       _luaK_int                  0054a6b0 f   liblua:lcode.obj
 0001:00149760       _luaK_setreturns           0054a760 f   liblua:lcode.obj
 0001:001497e0       _luaK_dischargevars        0054a7e0 f   liblua:lcode.obj
 0001:00149e30       _luaK_exp2nextreg          0054ae30 f   liblua:lcode.obj
 0001:00149ed0       _luaK_exp2anyreg           0054aed0 f   liblua:lcode.obj
 0001:0014a080       _luaK_storevar             0054b080 f   liblua:lcode.obj
 0001:0014a290       _luaK_self                 0054b290 f   liblua:lcode.obj
 0001:0014a4f0       _luaK_goiftrue             0054b4f0 f   liblua:lcode.obj
 0001:0014a7e0       _luaK_indexed              0054b7e0 f   liblua:lcode.obj
 0001:0014b050       _luaK_posfix               0054c050 f   liblua:lcode.obj
 0001:0014b590       ??_Gxml_writer@pugi@@UAEPAXI@Z 0054c590 f i libpugixml:pugixml.obj
 0001:0014b590       ??_Exml_writer@pugi@@UAEPAXI@Z 0054c590 f i * CIL library *:* CIL module *
 0001:0014b5d0       ??3@YAXPAX@Z               0054c5d0 f   LIBCMT:delete_scalar.obj
 0001:0014d980       ??1xml_writer_file@pugi@@UAE@XZ 0054e980 f i libpugixml:pugixml.obj
 0001:0014d990       ??_Exml_writer_file@pugi@@UAEPAXI@Z 0054e990 f i * CIL library *:* CIL module *
 0001:0014d990       ??_Gxml_writer_file@pugi@@UAEPAXI@Z 0054e990 f i libpugixml:pugixml.obj
 0001:0014d9c0       ?write@xml_writer_file@pugi@@UAEXPBXI@Z 0054e9c0 f   libpugixml:pugixml.obj
 0001:0014d9e0       ?child@xml_node@pugi@@QBE?AV12@PBD@Z 0054e9e0 f   libpugixml:pugixml.obj
 0001:0014da50       ?attribute@xml_node@pugi@@QBE?AVxml_attribute@2@PBD@Z 0054ea50 f   libpugixml:pugixml.obj
 0001:0014dac0       ?append_child@xml_node@pugi@@QAE?AV12@W4xml_node_type@2@@Z 0054eac0 f   libpugixml:pugixml.obj
 0001:0014db60       ?insert_child_after@xml_node@pugi@@QAE?AV12@W4xml_node_type@2@ABV12@@Z 0054eb60 f   libpugixml:pugixml.obj
 0001:0014dc60       ?description@xml_parse_result@pugi@@QBEPBDXZ 0054ec60 f   libpugixml:pugixml.obj
 0001:0014dd10       ??1xml_document@pugi@@QAE@XZ 0054ed10 f   libpugixml:pugixml.obj
 0001:0014dd20       ?create@xml_document@pugi@@AAEXXZ 0054ed20 f   libpugixml:pugixml.obj
 0001:0014ddb0       ?destroy@xml_document@pugi@@AAEXXZ 0054edb0 f   libpugixml:pugixml.obj
 0001:0014de20       ?load_buffer_impl@xml_document@pugi@@AAE?AUxml_parse_result@2@PAXIIW4xml_encoding@2@_N2@Z 0054ee20 f   libpugixml:pugixml.obj
 0001:0014e000       ?save@xml_document@pugi@@QBEXAAVxml_writer@2@PBDIW4xml_encoding@2@@Z 0054f000 f   libpugixml:pugixml.obj
 0001:0014e140       ?save_file@xml_document@pugi@@QBE_NPBD0IW4xml_encoding@2@@Z 0054f140 f   libpugixml:pugixml.obj
 0001:0014ef66       ??0bad_alloc@std@@QAE@XZ   0054ff66 f i libcpmt:xthrow.obj
 0001:0014ef7e       ??0length_error@std@@QAE@ABV01@@Z 0054ff7e f i libcpmt:xthrow.obj
 0001:0014ef99       ??0length_error@std@@QAE@PBD@Z 0054ff99 f i libcpmt:xthrow.obj
 0001:0014efb8       ??0logic_error@std@@QAE@ABV01@@Z 0054ffb8 f i libcpmt:xthrow.obj
 0001:0014efd3       ??0out_of_range@std@@QAE@ABV01@@Z 0054ffd3 f i libcpmt:xthrow.obj
 0001:0014efee       ??0out_of_range@std@@QAE@PBD@Z 0054ffee f i libcpmt:xthrow.obj
 0001:0014f00d       ??0runtime_error@std@@QAE@PBD@Z 0055000d f i libcpmt:xthrow.obj
 0001:0014f02c       ??_Eout_of_range@std@@UAEPAXI@Z 0055002c f i libcpmt:xthrow.obj
 0001:0014f02c       ??_Elogic_error@std@@UAEPAXI@Z 0055002c f i libcpmt:xthrow.obj
 0001:0014f02c       ??_Gout_of_range@std@@UAEPAXI@Z 0055002c f i libcpmt:xthrow.obj
 0001:0014f02c       ??_Ebad_exception@std@@UAEPAXI@Z 0055002c f i libvcruntime:frame.obj
 0001:0014f02c       ??_Glength_error@std@@UAEPAXI@Z 0055002c f i libcpmt:xthrow.obj
 0001:0014f02c       ??_Elength_error@std@@UAEPAXI@Z 0055002c f i libcpmt:xthrow.obj
 0001:0014f02c       ??_Glogic_error@std@@UAEPAXI@Z 0055002c f i libcpmt:xthrow.obj
 0001:0014f02c       ??_Gbad_exception@std@@UAEPAXI@Z 0055002c f i libvcruntime:frame.obj
 0001:0014f059       ?_Xbad_alloc@std@@YAXXZ    00550059 f   libcpmt:xthrow.obj
 0001:0014f059       ?__scrt_throw_std_bad_alloc@@YAXXZ 00550059 f   LIBCMT:throw_bad_alloc.obj
 0001:0014f076       ?_Xlength_error@std@@YAXPBD@Z 00550076 f   libcpmt:xthrow.obj
 0001:0014f096       ?_Xout_of_range@std@@YAXPBD@Z 00550096 f   libcpmt:xthrow.obj
 0001:0014f0b6       ?_Xruntime_error@std@@YAXPBD@Z 005500b6 f   libcpmt:xthrow.obj
 0001:0014f0d6       ?_Callfns@ios_base@std@@AAEXW4event@12@@Z 005500d6 f i libcpmt:ios.obj
 0001:0014f109       ?_Ios_base_dtor@ios_base@std@@CAXPAV12@@Z 00550109 f   libcpmt:ios.obj
 0001:0014f149       ?_Tidy@ios_base@std@@AAEXXZ 00550149 f i libcpmt:ios.obj
 0001:0014f1c4       ?uncaught_exception@std@@YA_NXZ 005501c4 f   libcpmt:uncaught_exception.obj
 0001:0014f1c9       ??0_Locimp@locale@std@@AAE@_N@Z 005501c9 f i libcpmt:locale0.obj
 0001:0014f20a       ??1_Fac_node@std@@QAE@XZ   0055020a f i libcpmt:locale0.obj
 0001:0014f23b       ??1_Fac_tidy_reg_t@std@@QAE@XZ 0055023b f i libcpmt:locale0.obj
 0001:0014f262       ??1_Locimp@locale@std@@MAE@XZ 00550262 f i libcpmt:locale0.obj
 0001:0014f28d       ??4?$_Yarn@D@std@@QAEAAV01@PBD@Z 0055028d f i libcpmt:locale0.obj
 0001:0014f2e1       ??_E_Locimp@locale@std@@MAEPAXI@Z 005502e1 f i libcpmt:locale0.obj
 0001:0014f2e1       ??_G_Locimp@locale@std@@MAEPAXI@Z 005502e1 f i libcpmt:locale0.obj
 0001:0014f303       ?_Facet_Register@std@@YAXPAV_Facet_base@1@@Z 00550303 f   libcpmt:locale0.obj
 0001:0014f32f       ?_Getgloballocale@locale@std@@CAPAV_Locimp@12@XZ 0055032f f   libcpmt:locale0.obj
 0001:0014f335       ?_Init@locale@std@@CAPAV_Locimp@12@_N@Z 00550335 f   libcpmt:locale0.obj
 0001:0014f3c5       ?_Locimp_dtor@_Locimp@locale@std@@CAXPAV123@@Z 005503c5 f   libcpmt:locale0.obj
 0001:0014f435       ?_Locinfo_ctor@_Locinfo@std@@SAXPAV12@PBD@Z 00550435 f   libcpmt:locale0.obj
 0001:0014f480       ?_Locinfo_dtor@_Locinfo@std@@SAXPAV12@@Z 00550480 f   libcpmt:locale0.obj
 0001:0014f49a       ?_New_Locimp@_Locimp@locale@std@@CAPAV123@_N@Z 0055049a f   libcpmt:locale0.obj
 0001:0014f4bd       ?_Setgloballocale@locale@std@@CAXPAX@Z 005504bd f   libcpmt:locale0.obj
 0001:0014f4e5       __Deletegloballocale       005504e5 f   libcpmt:locale0.obj
 0001:0014f54a       ??0_Init_locks@std@@QAE@XZ 0055054a f   libcpmt:xlock.obj
 0001:0014f577       ??0_Lockit@std@@QAE@H@Z    00550577 f   libcpmt:xlock.obj
 0001:0014f5a8       ??1_Init_locks@std@@QAE@XZ 005505a8 f   libcpmt:xlock.obj
 0001:0014f5cf       ??1_Lockit@std@@QAE@XZ     005505cf f   libcpmt:xlock.obj
 0001:0014f5ee       __Getctype                 005505ee f   libcpmt:_tolower.obj
 0001:0014f659       __Tolower                  00550659 f   libcpmt:_tolower.obj
 0001:0014f757       __Toupper                  00550757 f   libcpmt:_toupper.obj
 0001:0014f855       ?_Syserror_map@std@@YAPBDH@Z 00550855 f   libcpmt:syserror.obj
 0001:0014f87a       ?_Winerror_map@std@@YAHH@Z 0055087a f   libcpmt:syserror.obj
 0001:0014f89c       __Getcvt                   0055089c f   libcpmt:xwctomb.obj
 0001:0014f90f       ??$_Xfiopen@D@std@@YAPAU_iobuf@@PBDHH@Z 0055090f f i libcpmt:fiopen.obj
 0001:0014f9b5       ?_Fiopen@std@@YAPAU_iobuf@@PBDHH@Z 005509b5 f   libcpmt:fiopen.obj
 0001:0014f9be       ?_Xfsopen@std@@YAPAU_iobuf@@PBDHH@Z 005509be f   libcpmt:fiopen.obj
 0001:0014f9db       ___std_fs_close_handle@4   005509db f   libcpmt:filesystem.obj
 0001:0014f9fb       ___std_fs_code_page@0      005509fb f   libcpmt:filesystem.obj
 0001:0014fa18       ___std_fs_convert_narrow_to_wide@20 00550a18 f   libcpmt:filesystem.obj
 0001:0014fa4c       ___std_fs_convert_wide_to_narrow_replace_chars@20 00550a4c f   libcpmt:filesystem.obj
 0001:0014fabb       ___std_fs_create_directory@4 00550abb f   libcpmt:filesystem.obj
 0001:0014fb1a       ___std_fs_get_stats@16     00550b1a f   libcpmt:filesystem.obj
 0001:0014fd09       ___std_fs_open_handle@16   00550d09 f   libcpmt:filesystem.obj
 0001:0014fd3d       ___std_fs_rename@8         00550d3d f   libcpmt:filesystem.obj
 0001:0014fd60       ___std_get_string_size_without_trailing_whitespace@8 00550d60 f   libcpmt:syserror_import_lib.obj
 0001:0014fd84       ___std_system_error_allocate_message@8 00550d84 f   libcpmt:syserror_import_lib.obj
 0001:0014fdad       ___std_system_error_deallocate_message@4 00550dad f   libcpmt:syserror_import_lib.obj
 0001:0014fdb3       ?_Random_device@std@@YAIXZ 00550db3 f   libcpmt:xrngdev.obj
 0001:0014fdd5       ??1_Init_atexit@@QAE@XZ    00550dd5 f i libcpmt:iosptrs.obj
 0001:0014fe3d       ?_Atexit@@YAXP6AXXZ@Z      00550e3d f   libcpmt:iosptrs.obj
 0001:0014fe6c       __Mtxdst                   00550e6c f   libcpmt:xmtx.obj
 0001:0014fe7a       __Mtxinit                  00550e7a f   libcpmt:xmtx.obj
 0001:0014fe8f       __Mtxlock                  00550e8f f   libcpmt:xmtx.obj
 0001:0014fe9d       __Mtxunlock                00550e9d f   libcpmt:xmtx.obj
 0001:0014feab       ??1?$__crt_scoped_stack_ptr@_W@@QAE@XZ 00550eab f i libcpmt:StlLCMapStringA.obj
 0001:0014fec4       ___crtLCMapStringA         00550ec4 f   libcpmt:StlLCMapStringA.obj
 0001:00150090       __freea_crt                00551090 f i libcpmt:StlLCMapStringA.obj
 0001:001500ae       ??0CAtlBaseModule@ATL@@QAE@XZ 005510ae f   atls:atlbase.obj
 0001:00150101       ??0_ATL_BASE_MODULE70@ATL@@QAE@XZ 00551101 f i atls:atlbase.obj
 0001:00150124       ??1CAtlBaseModule@ATL@@QAE@XZ 00551124 f   atls:atlbase.obj
 0001:0015013a       ??A?$CSimpleArray@PAUHINSTANCE__@@V?$CSimpleArrayEqualHelper@PAUHINSTANCE__@@@ATL@@@ATL@@QAEAAPAUHINSTANCE__@@H@Z 0055113a f i atls:atlbase.obj
 0001:0015015f       ?GetHInstanceAt@CAtlBaseModule@ATL@@QAEPAUHINSTANCE__@@H@Z 0055115f f   atls:atlbase.obj
 0001:001501a4       ?RemoveAll@?$CSimpleArray@PAUHINSTANCE__@@V?$CSimpleArrayEqualHelper@PAUHINSTANCE__@@@ATL@@@ATL@@QAEXXZ 005511a4 f i atls:atlbase.obj
 0001:001501c1       @__security_check_cookie@4 005511c1 f   LIBCMT:secchk.obj
 0001:001501cf       ??2@YAPAXI@Z               005511cf f   LIBCMT:new_scalar.obj
 0001:001501ff       ??3@YAXPAXI@Z              005511ff f   LIBCMT:delete_scalar_size.obj
 0001:00150251       ___scrt_acquire_startup_lock 00551251 f   LIBCMT:utility.obj
 0001:00150283       ___scrt_initialize_crt     00551283 f   LIBCMT:utility.obj
 0001:001502bc       ___scrt_initialize_onexit_tables 005512bc f   LIBCMT:utility.obj
 0001:00150343       ___scrt_is_nonwritable_in_current_image 00551343 f   LIBCMT:utility.obj
 0001:001503d7       ___scrt_release_startup_lock 005513d7 f   LIBCMT:utility.obj
 0001:001503f4       ___scrt_uninitialize_crt   005513f4 f   LIBCMT:utility.obj
 0001:0015041c       __onexit                   0055141c f   LIBCMT:utility.obj
 0001:00150449       _atexit                    00551449 f   LIBCMT:utility.obj
 0001:0015045e       ??_Gtype_info@@UAEPAXI@Z   0055145e f i LIBCMT:std_type_info_static.obj
 0001:0015045e       ??_Etype_info@@UAEPAXI@Z   0055145e f i LIBCMT:std_type_info_static.obj
 0001:00150481       ??_U@YAPAXI@Z              00551481 f   LIBCMT:new_array.obj
 0001:0015048a       ??_V@YAXPAX@Z              0055148a f   LIBCMT:delete_array.obj
 0001:00150554       __Init_thread_footer       00551554 f   LIBCMT:thread_safe_statics.obj
 0001:0015059e       __Init_thread_header       0055159e f   LIBCMT:thread_safe_statics.obj
 0001:001505f0       __Init_thread_notify       005515f0 f   LIBCMT:thread_safe_statics.obj
 0001:00150626       __Init_thread_wait         00551626 f   LIBCMT:thread_safe_statics.obj
 0001:00150674       ??_L@YGXPAXIIP6EX0@Z1@Z    00551674 f   LIBCMT:ehvecctr.obj
 0001:001506e8       ??_M@YGXPAXIIP6EX0@Z@Z     005516e8 f   LIBCMT:ehvecdtr.obj
 0001:0015076d       ?__ArrayUnwind@@YGXPAXIIP6EX0@Z@Z 0055176d f   LIBCMT:ehvecdtr.obj
 0001:001507fd       ??_V@YAXPAXI@Z             005517fd f   LIBCMT:delete_array_size.obj
 0001:0015080b       ___raise_securityfailure   0055180b f   LIBCMT:gs_report.obj
 0001:00150833       ___report_gsfailure        00551833 f   LIBCMT:gs_report.obj
 0001:0015092d       ___report_rangecheckfailure 0055192d f   LIBCMT:gs_report.obj
 0001:00150939       ___report_securityfailure  00551939 f   LIBCMT:gs_report.obj
 0001:00150c49       _WinMainCRTStartup         00551c49 f   LIBCMT:exe_winmain.obj
 0001:00150c53       __EH_epilog3               00551c53 f   LIBCMT:ehprolg3.obj
 0001:00150c67       __EH_epilog3_GS            00551c67 f   LIBCMT:ehprolg3.obj
 0001:00150c76       __EH_prolog3               00551c76 f   LIBCMT:ehprolg3.obj
 0001:00150ca9       __EH_prolog3_GS            00551ca9 f   LIBCMT:ehprolg3.obj
 0001:00150cdf       __EH_prolog3_catch         00551cdf f   LIBCMT:ehprolg3.obj
 0001:00150d20       __alloca_probe_16          00551d20 f   LIBCMT:alloca16.obj
 0001:00150d36       __alloca_probe_8           00551d36     LIBCMT:alloca16.obj
 0001:00150d50       __allmul                   00551d50 f   LIBCMT:llmul.obj
 0001:00150d90       __aulldiv                  00551d90 f   LIBCMT:ulldiv.obj
 0001:00150df8       ___isa_available_init      00551df8 f   LIBCMT:cpu_disp.obj
 0001:00150fc9       __get_startup_argv_mode    00551fc9 f   LIBCMT:argv_mode.obj
 0001:00150fcd       ___scrt_is_ucrt_dll_in_use 00551fcd f   LIBCMT:ucrt_detection.obj
 0001:00150fd9       ___scrt_fastfail           00551fd9 f   LIBCMT:utility_desktop.obj
 0001:001510f4       ___scrt_get_show_window_mode 005520f4 f   LIBCMT:utility_desktop.obj
 0001:00151125       ___scrt_initialize_mta     00552125 f   LIBCMT:utility_desktop.obj
 0001:0015112a       ___scrt_is_managed_app     0055212a f   LIBCMT:utility_desktop.obj
 0001:0015116d       ___scrt_set_unhandled_exception_filter 0055216d f   LIBCMT:utility_desktop.obj
 0001:00151179       ___scrt_unhandled_exception_filter@4 00552179 f   LIBCMT:utility_desktop.obj
 0001:001511cf       __crt_debugger_hook        005521cf f   LIBCMT:utility_desktop.obj
 0001:001511e0       __SEH_prolog4              005521e0 f   LIBCMT:sehprolg4.obj
 0001:00151272       ___security_init_cookie    00552272 f   LIBCMT:gs_support.obj
 0001:001512bd       __get_startup_file_mode    005522bd f   LIBCMT:file_mode.obj
 0001:001512c3       ?__scrt_initialize_type_info@@YAXXZ 005522c3 f   LIBCMT:tncleanup.obj
 0001:001512cf       __initialize_default_precision 005522cf f   LIBCMT:default_precision.obj
 0001:001512f0       ___scrt_initialize_default_local_stdio_options 005522f0 f   LIBCMT:default_local_stdio_options.obj
 0001:0015130d       ___scrt_is_user_matherr_present 0055230d f   LIBCMT:matherr_detection.obj
 0001:00151319       ___scrt_get_dyn_tls_init_callback 00552319 f   LIBCMT:dyn_tls_init.obj
 0001:0015131f       ___scrt_get_dyn_tls_dtor_callback 0055231f f   LIBCMT:dyn_tls_dtor.obj
 0001:00151325       __RTC_Initialize           00552325 f   LIBCMT:initsect.obj
 0001:00151351       __RTC_Terminate            00552351 f   LIBCMT:initsect.obj
 0001:00151380       __chkstk                   00552380 f   LIBCMT:chkstk.obj
 0001:00151380       __alloca_probe             00552380 f   LIBCMT:chkstk.obj
 0001:001513ab       ?GetRangeOfTrysToCheck@__FrameHandler3@@SA?AU?$pair@Viterator@TryBlockMap@__FrameHandler3@@V123@@std@@AAVTryBlockMap@1@HPAXPBU_s_FuncInfo@@H@Z 005523ab f   libvcruntime:trnsctrl.obj
 0001:0015141b       ?_CallCatchBlock2@@YAPAXPAUEHRegistrationNode@@PBU_s_FuncInfo@@PAXHK@Z 0055241b f   libvcruntime:trnsctrl.obj
 0001:00151478       ?_CallSETranslator@@YAHPAUEHExceptionRecord@@PAUEHRegistrationNode@@PAX2PBU_s_FuncInfo@@H1@Z 00552478 f   libvcruntime:trnsctrl.obj
 0001:0015156e       ?_JumpToContinuation@@YGXPAXPAUEHRegistrationNode@@@Z 0055256e f   libvcruntime:trnsctrl.obj
 0001:0015159e       ?_UnwindNestedFrames@@YGXPAUEHRegistrationNode@@PAUEHExceptionRecord@@@Z 0055259e f   libvcruntime:trnsctrl.obj
 0001:001515f1       __CatchGuardHandler        005525f1 f   libvcruntime:trnsctrl.obj
 0001:00151622       __CreateFrameInfo          00552622 f   libvcruntime:trnsctrl.obj
 0001:00151646       __FindAndUnlinkFrame       00552646 f   libvcruntime:trnsctrl.obj
 0001:0015168e       __TranslatorGuardHandler   0055268e f   libvcruntime:trnsctrl.obj
 0001:0015172b       ___CxxFrameHandler3        0055272b f   libvcruntime:trnsctrl.obj
 0001:00151761       ___DestructExceptionObject 00552761 f   libvcruntime:ehhelpers.obj
 0001:00151802       ?_CallMemberFunction0@@YGXQAX0@Z 00552802 f i libvcruntime:ehhelpers.obj
 0001:00151867       __IsExceptionObjectToBeDestroyed 00552867 f   libvcruntime:ehhelpers.obj
 0001:0015188d       ___AdjustPointer           0055288d f   libvcruntime:ehhelpers.obj
 0001:001518b2       ___FrameUnwindFilter       005528b2 f   libvcruntime:ehhelpers.obj
 0001:00151908       ___current_exception       00552908 f   libvcruntime:ehhelpers.obj
 0001:00151911       ___current_exception_context 00552911 f   libvcruntime:ehhelpers.obj
 0001:0015191a       ___std_terminate           0055291a f   libvcruntime:ehhelpers.obj
 0001:0015191f       ___std_exception_copy      0055291f f   libvcruntime:std_exception.obj
 0001:00151982       ___std_exception_destroy   00552982 f   libvcruntime:std_exception.obj
 0001:001519a1       __get_purecall_handler     005529a1 f   libvcruntime:purevirt.obj
 0001:001519a7       __purecall                 005529a7 f   libvcruntime:purevirt.obj
 0001:001519d0       _strstr                    005529d0 f   libvcruntime:strstr.obj
 0001:00151c80       __except_handler4          00552c80 f   libvcruntime:chandler4.obj
 0001:00151dde       __CxxThrowException@8      00552dde f   libvcruntime:throw.obj
 0001:00151e4a       ___uncaught_exception      00552e4a f   libvcruntime:uncaught_exception.obj
 0001:00151e60       _memcpy                    00552e60 f   libvcruntime:memcpy.obj
 0001:00151e60       _memmove                   00552e60 f   libvcruntime:memmove.obj
 0001:001523e0       _memset                    005533e0 f   libvcruntime:memset.obj
 0001:00152540       _memchr                    00553540 f   libvcruntime:memchr.obj
 0001:001525f0       _memcmp                    005535f0 f   libvcruntime:memcmp.obj
 0001:00153500       _strchr                    00554500 f   libvcruntime:strchr.obj
 0001:0015356e       ___from_strstr_to_strchr   0055456e     libvcruntime:strchr.obj
 0001:0015362b       _longjmp                   0055462b f   libvcruntime:longjmpc.obj
 0001:00153640       _strrchr                   00554640 f   libvcruntime:strrchr.obj
 0001:00153777       ___vcrt_initialize         00554777 f   libvcruntime:initialization.obj
 0001:00153796       ___vcrt_uninitialize       00554796 f   libvcruntime:initialization.obj
 0001:001537ad       ___std_type_info_compare   005547ad f   libvcruntime:std_type_info.obj
 0001:001537e9       ___vcrt_freefls@4          005547e9 f   libvcruntime:per_thread_data.obj
 0001:00153805       ___vcrt_getptd             00554805 f   libvcruntime:per_thread_data.obj
 0001:00153813       ___vcrt_getptd_noexit      00554813 f   libvcruntime:per_thread_data.obj
 0001:001538a5       ___vcrt_getptd_noinit      005548a5 f   libvcruntime:per_thread_data.obj
 0001:001538dc       ___vcrt_initialize_ptd     005548dc f   libvcruntime:per_thread_data.obj
 0001:0015390f       ___vcrt_uninitialize_ptd   0055490f f   libvcruntime:per_thread_data.obj
 0001:00154061       ??$TypeMatchHelper@V__FrameHandler3@@@@YAHPBU_s_HandlerType@@PBU_s_CatchableType@@PBU_s_ThrowInfo@@@Z 00555061 f i libvcruntime:frame.obj
 0001:001540ef       ??$__InternalCxxFrameHandler@V__FrameHandler3@@@@YA?AW4_EXCEPTION_DISPOSITION@@PAUEHExceptionRecord@@PAUEHRegistrationNode@@PAU_CONTEXT@@PAXPBU_s_FuncInfo@@H1E@Z 005550ef f i libvcruntime:frame.obj
 0001:001541f1       ??0bad_exception@std@@QAE@ABV01@@Z 005551f1 f i libvcruntime:frame.obj
 0001:0015420c       ??0bad_exception@std@@QAE@XZ 0055520c f i libvcruntime:frame.obj
 0001:00154224       ??8type_info@@QBE_NABV0@@Z 00555224 f i libvcruntime:frame.obj
 0001:00154490       ?FrameUnwindToEmptyState@__FrameHandler3@@SAXPAUEHRegistrationNode@@PAXPBU_s_FuncInfo@@@Z 00555490 f   libvcruntime:frame.obj
 0001:001544a8       ?FrameUnwindToState@__FrameHandler3@@SAXPAUEHRegistrationNode@@PAXPBU_s_FuncInfo@@H@Z 005554a8 f   libvcruntime:frame.obj
 0001:0015462a       ?_CallMemberFunction1@@YGXQAX00@Z 0055562a f i libvcruntime:frame.obj
 0001:0015463a       ?_CallMemberFunction2@@YGXQAX00H@Z 0055563a f i libvcruntime:frame.obj
 0001:0015464d       ?getESTypes@__FrameHandler3@@SAPBU_s_ESTypeList@@PBU_s_FuncInfo@@@Z 0055564d f i libvcruntime:frame.obj
 0001:00154660       __CallSettingFrame@12      00555660 f   libvcruntime:lowhelpr.obj
 0001:00154687       __NLG_Return               00555687     libvcruntime:lowhelpr.obj
 0001:001546ac       ___except_validate_context_record 005556ac f   libvcruntime:jbcxrval.obj
 0001:001546dc       ___except_validate_jump_buffer 005556dc f   libvcruntime:jbcxrval.obj
 0001:00154710       __local_unwind4            00555710 f   libvcruntime:exsup4.obj
 0001:00154800       @_EH4_CallFilterFunc@8     00555800 f   libvcruntime:exsup4.obj
 0001:00154820       @_EH4_TransferToHandler@8  00555820 f   libvcruntime:exsup4.obj
 0001:00154840       @_EH4_GlobalUnwind2@8      00555840 f   libvcruntime:exsup4.obj
 0001:00154860       @_EH4_LocalUnwind@16       00555860 f   libvcruntime:exsup4.obj
 0001:00154880       ___longjmp_internal        00555880 f   libvcruntime:longjmp.obj
 0001:00154948       ___vcrt_initialize_locks   00555948 f   libvcruntime:locks.obj
 0001:00154984       ___vcrt_uninitialize_locks 00555984 f   libvcruntime:locks.obj
 0001:00154a96       ___vcrt_FlsAlloc           00555a96 f   libvcruntime:winapi_downlevel.obj
 0001:00154ad1       ___vcrt_FlsFree            00555ad1 f   libvcruntime:winapi_downlevel.obj
 0001:00154b0c       ___vcrt_FlsGetValue        00555b0c f   libvcruntime:winapi_downlevel.obj
 0001:00154b47       ___vcrt_FlsSetValue        00555b47 f   libvcruntime:winapi_downlevel.obj
 0001:00154b85       ___vcrt_InitializeCriticalSectionEx 00555b85 f   libvcruntime:winapi_downlevel.obj
 0001:00154bcc       _unexpected                00555bcc f   libvcruntime:unexpected.obj
 0001:00154be9       ?GetCurrentState@__FrameHandler3@@SAHPAUEHRegistrationNode@@PAXPBU_s_FuncInfo@@@Z 00555be9 f   libvcruntime:ehstate.obj
 0001:00154c06       ?SetState@__FrameHandler3@@SAXPAUEHRegistrationNode@@PBU_s_FuncInfo@@H@Z 00555c06 f   libvcruntime:ehstate.obj
 0001:00154c70       __local_unwind2            00555c70 f   libvcruntime:exsup.obj
 0001:00154d10       __NLG_Notify1              00555d10 f   libvcruntime:exsup.obj
 0001:00154d20       __NLG_Notify               00555d20 f   libvcruntime:exsup.obj
 0001:00154d37       __NLG_Dispatch             00555d37     libvcruntime:exsup.obj
 0001:00154d37       __NLG_Dispatch2            00555d37     libvcruntime:exsup.obj
 0001:00154d40       __NLG_Call                 00555d40 f   libvcruntime:exsup.obj
 0001:00154d42       __NLG_Return2              00555d42     libvcruntime:exsup.obj
 0001:00154d43       __rt_probe_read4@4         00555d43 f   libvcruntime:sehsupp.obj
 0001:00154e48       __fsopen                   00555e48 f   libucrt:fopen.obj
 0001:00154e53       _fopen                     00555e53 f   libucrt:fopen.obj
 0001:00154e6a       _fopen_s                   00555e6a f   libucrt:fopen.obj
 0001:00154eb1       _malloc                    00555eb1 f   libucrt:malloc.obj
 0001:00154ebc       __fclose_nolock            00555ebc f   libucrt:fclose.obj
 0001:00154f33       _fclose                    00555f33 f   libucrt:fclose.obj
 0001:00154fb7       __fread_nolock_s           00555fb7 f   libucrt:fread.obj
 0001:0015519d       _fread                     0055619d f   libucrt:fread.obj
 0001:001551ba       _fread_s                   005561ba f   libucrt:fread.obj
 0001:001552d8       _free                      005562d8 f   libucrt:free.obj
 0001:001552f3       _strcpy_s                  005562f3 f   libucrt:strcpy_s.obj
 0001:0015534d       ___acrt_call_reportfault   0055634d f   libucrt:invalid_parameter.obj
 0001:00155486       ___acrt_initialize_invalid_parameter_handler 00556486 f   libucrt:invalid_parameter.obj
 0001:00155495       __invalid_parameter        00556495 f   libucrt:invalid_parameter.obj
 0001:001554f9       __invalid_parameter_noinfo 005564f9 f   libucrt:invalid_parameter.obj
 0001:00155509       __invalid_parameter_noinfo_noreturn 00556509 f   libucrt:invalid_parameter.obj
 0001:00155526       __invoke_watson            00556526 f   libucrt:invalid_parameter.obj
 0001:0015555a       ___acrt_errno_from_os_error 0055655a f   libucrt:errno.obj
 0001:0015559d       ___acrt_errno_map_os_error 0055659d f   libucrt:errno.obj
 0001:001555c0       ___doserrno                005565c0 f   libucrt:errno.obj
 0001:001555d3       __errno                    005565d3 f   libucrt:errno.obj
 0001:00155c3f       ??$count@D@formatting_buffer@__crt_stdio_output@@QBEIXZ 00556c3f f i libucrt:output.obj
 0001:00155c57       ??$count@_W@formatting_buffer@__crt_stdio_output@@QBEIXZ 00556c57 f i libucrt:output.obj
 0001:00155c70       ??$ensure_buffer_is_big_enough@D@formatting_buffer@__crt_stdio_output@@QAE_NI@Z 00556c70 f i libucrt:output.obj
 0001:00155ced       ??$ensure_buffer_is_big_enough@_W@formatting_buffer@__crt_stdio_output@@QAE_NI@Z 00556ced f i libucrt:output.obj
 0001:00155d6b       ??$is_wide_character_specifier@D@__crt_stdio_output@@YA_N_KDW4length_modifier@0@@Z 00556d6b f i libucrt:output.obj
 0001:00155d9c       ??$is_wide_character_specifier@_W@__crt_stdio_output@@YA_N_K_WW4length_modifier@0@@Z 00556d9c f i libucrt:output.obj
 0001:00155dea       ??$scratch_data@D@formatting_buffer@__crt_stdio_output@@QAEPADXZ 00556dea f i libucrt:output.obj
 0001:00155e08       ??$type_case_integer_parse_into_buffer@I@?$output_processor@DV?$stream_output_adapter@D@__crt_stdio_output@@V?$standard_base@DV?$stream_output_adapter@D@__crt_stdio_output@@@2@@__crt_stdio_output@@AAEXII_N@Z 00556e08 f i libucrt:output.obj
 0001:00155e08       ??$type_case_integer_parse_into_buffer@I@?$output_processor@DV?$string_output_adapter@D@__crt_stdio_output@@V?$standard_base@DV?$string_output_adapter@D@__crt_stdio_output@@@2@@__crt_stdio_output@@AAEXII_N@Z 00556e08 f i libucrt:output.obj
 0001:00155e08       ??$type_case_integer_parse_into_buffer@I@?$output_processor@DV?$string_output_adapter@D@__crt_stdio_output@@V?$format_validation_base@DV?$string_output_adapter@D@__crt_stdio_output@@@2@@__crt_stdio_output@@AAEXII_N@Z 00556e08 f i libucrt:output.obj
 0001:00155e7b       ??$type_case_integer_parse_into_buffer@I@?$output_processor@_WV?$string_output_adapter@_W@__crt_stdio_output@@V?$format_validation_base@_WV?$string_output_adapter@_W@__crt_stdio_output@@@2@@__crt_stdio_output@@AAEXII_N@Z 00556e7b f i libucrt:output.obj
 0001:00155f02       ??$type_case_integer_parse_into_buffer@_K@?$output_processor@DV?$string_output_adapter@D@__crt_stdio_output@@V?$format_validation_base@DV?$string_output_adapter@D@__crt_stdio_output@@@2@@__crt_stdio_output@@AAEX_KI_N@Z 00556f02 f i libucrt:output.obj
 0001:00155f02       ??$type_case_integer_parse_into_buffer@_K@?$output_processor@DV?$string_output_adapter@D@__crt_stdio_output@@V?$standard_base@DV?$string_output_adapter@D@__crt_stdio_output@@@2@@__crt_stdio_output@@AAEX_KI_N@Z 00556f02 f i libucrt:output.obj
 0001:00155f02       ??$type_case_integer_parse_into_buffer@_K@?$output_processor@DV?$stream_output_adapter@D@__crt_stdio_output@@V?$standard_base@DV?$stream_output_adapter@D@__crt_stdio_output@@@2@@__crt_stdio_output@@AAEX_KI_N@Z 00556f02 f i libucrt:output.obj
 0001:00155f90       ??$type_case_integer_parse_into_buffer@_K@?$output_processor@_WV?$string_output_adapter@_W@__crt_stdio_output@@V?$format_validation_base@_WV?$string_output_adapter@_W@__crt_stdio_output@@@2@@__crt_stdio_output@@AAEX_KI_N@Z 00556f90 f i libucrt:output.obj
 0001:00156032       ??$write_multiple_characters@V?$stream_output_adapter@D@__crt_stdio_output@@D@__crt_stdio_output@@YAXABV?$stream_output_adapter@D@0@DHQAH@Z 00557032 f i libucrt:output.obj
 0001:0015606d       ??$write_multiple_characters@V?$string_output_adapter@D@__crt_stdio_output@@D@__crt_stdio_output@@YAXABV?$string_output_adapter@D@0@DHQAH@Z 0055706d f i libucrt:output.obj
 0001:00156099       ??$write_multiple_characters@V?$string_output_adapter@_W@__crt_stdio_output@@D@__crt_stdio_output@@YAXABV?$string_output_adapter@_W@0@DHQAH@Z 00557099 f i libucrt:output.obj
 0001:001560ca       ??0?$common_data@D@__crt_stdio_output@@IAE@XZ 005570ca f i libucrt:output.obj
 0001:0015610f       ??0?$common_data@_W@__crt_stdio_output@@IAE@XZ 0055710f f i libucrt:output.obj
 0001:00156159       ??0?$output_adapter_data@DV?$stream_output_adapter@D@__crt_stdio_output@@@__crt_stdio_output@@IAE@ABV?$stream_output_adapter@D@1@_KQBDQAU__crt_locale_pointers@@QAD@Z 00557159 f i libucrt:output.obj
 0001:00156159       ??0?$output_adapter_data@DV?$string_output_adapter@D@__crt_stdio_output@@@__crt_stdio_output@@IAE@ABV?$string_output_adapter@D@1@_KQBDQAU__crt_locale_pointers@@QAD@Z 00557159 f i libucrt:output.obj
 0001:00156195       ??0?$output_adapter_data@_WV?$string_output_adapter@_W@__crt_stdio_output@@@__crt_stdio_output@@IAE@ABV?$string_output_adapter@_W@1@_KQB_WQAU__crt_locale_pointers@@QAD@Z 00557195 f i libucrt:output.obj
 0001:001561d1       ??0_LocaleUpdate@@QAE@QAU__crt_locale_pointers@@@Z 005571d1 f i libucrt:output.obj
 0001:00156254       ??1_LocaleUpdate@@QAE@XZ   00557254 f i libucrt:output.obj
 0001:00156264       ??1formatting_buffer@__crt_stdio_output@@QAE@XZ 00557264 f i libucrt:output.obj
 0001:0015627e       ??4?$__crt_unique_heap_ptr@DU__crt_internal_free_policy@@@@QAEAAV0@$$QAV0@@Z 0055727e f i libucrt:output.obj
 0001:00156370       ?crop_zeroes@__crt_stdio_output@@YAXPADQAU__crt_locale_pointers@@@Z 00557370 f i libucrt:output.obj
 0001:001563f1       ?find_next_state@?$output_processor@DV?$stream_output_adapter@D@__crt_stdio_output@@V?$standard_base@DV?$stream_output_adapter@D@__crt_stdio_output@@@2@@__crt_stdio_output@@ABE?AW4state@2@DW432@@Z 005573f1 f i libucrt:output.obj
 0001:001563f1       ?find_next_state@?$output_processor@DV?$string_output_adapter@D@__crt_stdio_output@@V?$standard_base@DV?$string_output_adapter@D@__crt_stdio_output@@@2@@__crt_stdio_output@@ABE?AW4state@2@DW432@@Z 005573f1 f i libucrt:output.obj
 0001:00156428       ?find_next_state@?$output_processor@DV?$string_output_adapter@D@__crt_stdio_output@@V?$format_validation_base@DV?$string_output_adapter@D@__crt_stdio_output@@@2@@__crt_stdio_output@@ABE?AW4state@2@DW432@@Z 00557428 f i libucrt:output.obj
 0001:0015645f       ?find_next_state@?$output_processor@_WV?$string_output_adapter@_W@__crt_stdio_output@@V?$format_validation_base@_WV?$string_output_adapter@_W@__crt_stdio_output@@@2@@__crt_stdio_output@@ABE?AW4state@2@_WW432@@Z 0055745f f i libucrt:output.obj
 0001:001564a0       ?force_decimal_point@__crt_stdio_output@@YAXPADQAU__crt_locale_pointers@@@Z 005574a0 f i libucrt:output.obj
 0001:00156505       ?parse_int_from_format_string@?$output_processor@DV?$string_output_adapter@D@__crt_stdio_output@@V?$standard_base@DV?$string_output_adapter@D@__crt_stdio_output@@@2@@__crt_stdio_output@@AAE_NQAH@Z 00557505 f i libucrt:output.obj
 0001:00156505       ?parse_int_from_format_string@?$output_processor@DV?$string_output_adapter@D@__crt_stdio_output@@V?$format_validation_base@DV?$string_output_adapter@D@__crt_stdio_output@@@2@@__crt_stdio_output@@AAE_NQAH@Z 00557505 f i libucrt:output.obj
 0001:00156505       ?parse_int_from_format_string@?$output_processor@DV?$stream_output_adapter@D@__crt_stdio_output@@V?$standard_base@DV?$stream_output_adapter@D@__crt_stdio_output@@@2@@__crt_stdio_output@@AAE_NQAH@Z 00557505 f i libucrt:output.obj
 0001:00156579       ?parse_int_from_format_string@?$output_processor@_WV?$string_output_adapter@_W@__crt_stdio_output@@V?$format_validation_base@_WV?$string_output_adapter@_W@__crt_stdio_output@@@2@@__crt_stdio_output@@AAE_NQAH@Z 00557579 f i libucrt:output.obj
 0001:001565ef       ?process@?$output_processor@DV?$stream_output_adapter@D@__crt_stdio_output@@V?$standard_base@DV?$stream_output_adapter@D@__crt_stdio_output@@@2@@__crt_stdio_output@@QAEHXZ 005575ef f i libucrt:output.obj
 0001:00156703       ?process@?$output_processor@DV?$string_output_adapter@D@__crt_stdio_output@@V?$format_validation_base@DV?$string_output_adapter@D@__crt_stdio_output@@@2@@__crt_stdio_output@@QAEHXZ 00557703 f i libucrt:output.obj
 0001:00156827       ?process@?$output_processor@DV?$string_output_adapter@D@__crt_stdio_output@@V?$standard_base@DV?$string_output_adapter@D@__crt_stdio_output@@@2@@__crt_stdio_output@@QAEHXZ 00557827 f i libucrt:output.obj
 0001:0015693b       ?process@?$output_processor@_WV?$string_output_adapter@_W@__crt_stdio_output@@V?$format_validation_base@_WV?$string_output_adapter@_W@__crt_stdio_output@@@2@@__crt_stdio_output@@QAEHXZ 0055793b f i libucrt:output.obj
 0001:00156a63       ?state_case_flag@?$output_processor@DV?$string_output_adapter@D@__crt_stdio_output@@V?$standard_base@DV?$string_output_adapter@D@__crt_stdio_output@@@2@@__crt_stdio_output@@AAE_NXZ 00557a63 f i libucrt:output.obj
 0001:00156a63       ?state_case_flag@?$output_processor@DV?$stream_output_adapter@D@__crt_stdio_output@@V?$standard_base@DV?$stream_output_adapter@D@__crt_stdio_output@@@2@@__crt_stdio_output@@AAE_NXZ 00557a63 f i libucrt:output.obj
 0001:00156a63       ?state_case_flag@?$output_processor@DV?$string_output_adapter@D@__crt_stdio_output@@V?$format_validation_base@DV?$string_output_adapter@D@__crt_stdio_output@@@2@@__crt_stdio_output@@AAE_NXZ 00557a63 f i libucrt:output.obj
 0001:00156aa0       ?state_case_flag@?$output_processor@_WV?$string_output_adapter@_W@__crt_stdio_output@@V?$format_validation_base@_WV?$string_output_adapter@_W@__crt_stdio_output@@@2@@__crt_stdio_output@@AAE_NXZ 00557aa0 f i libucrt:output.obj
 0001:00156add       ?state_case_normal@?$output_processor@DV?$stream_output_adapter@D@__crt_stdio_output@@V?$standard_base@DV?$stream_output_adapter@D@__crt_stdio_output@@@2@@__crt_stdio_output@@AAE_NXZ 00557add f i libucrt:output.obj
 0001:00156afc       ?state_case_normal@?$output_processor@DV?$string_output_adapter@D@__crt_stdio_output@@V?$format_validation_base@DV?$string_output_adapter@D@__crt_stdio_output@@@2@@__crt_stdio_output@@AAE_NXZ 00557afc f i libucrt:output.obj
 0001:00156afc       ?state_case_normal@?$output_processor@DV?$string_output_adapter@D@__crt_stdio_output@@V?$standard_base@DV?$string_output_adapter@D@__crt_stdio_output@@@2@@__crt_stdio_output@@AAE_NXZ 00557afc f i libucrt:output.obj
 0001:00156b1b       ?state_case_normal@?$output_processor@_WV?$string_output_adapter@_W@__crt_stdio_output@@V?$format_validation_base@_WV?$string_output_adapter@_W@__crt_stdio_output@@@2@@__crt_stdio_output@@AAE_NXZ 00557b1b f i libucrt:output.obj
 0001:00156b3a       ?state_case_normal_common@?$output_processor@DV?$stream_output_adapter@D@__crt_stdio_output@@V?$standard_base@DV?$stream_output_adapter@D@__crt_stdio_output@@@2@@__crt_stdio_output@@AAE_NXZ 00557b3a f i libucrt:output.obj
 0001:00156b74       ?state_case_normal_common@?$output_processor@DV?$string_output_adapter@D@__crt_stdio_output@@V?$format_validation_base@DV?$string_output_adapter@D@__crt_stdio_output@@@2@@__crt_stdio_output@@AAE_NXZ 00557b74 f i libucrt:output.obj
 0001:00156b74       ?state_case_normal_common@?$output_processor@DV?$string_output_adapter@D@__crt_stdio_output@@V?$standard_base@DV?$string_output_adapter@D@__crt_stdio_output@@@2@@__crt_stdio_output@@AAE_NXZ 00557b74 f i libucrt:output.obj
 0001:00156b9e       ?state_case_normal_common@?$output_processor@_WV?$string_output_adapter@_W@__crt_stdio_output@@V?$format_validation_base@_WV?$string_output_adapter@_W@__crt_stdio_output@@@2@@__crt_stdio_output@@AAE_NXZ 00557b9e f i libucrt:output.obj
 0001:00156bb9       ?state_case_normal_tchar@?$output_processor@DV?$stream_output_adapter@D@__crt_stdio_output@@V?$standard_base@DV?$stream_output_adapter@D@__crt_stdio_output@@@2@@__crt_stdio_output@@AAE_ND@Z 00557bb9 f i libucrt:output.obj
 0001:00156c26       ?state_case_normal_tchar@?$output_processor@DV?$string_output_adapter@D@__crt_stdio_output@@V?$format_validation_base@DV?$string_output_adapter@D@__crt_stdio_output@@@2@@__crt_stdio_output@@AAE_ND@Z 00557c26 f i libucrt:output.obj
 0001:00156c26       ?state_case_normal_tchar@?$output_processor@DV?$string_output_adapter@D@__crt_stdio_output@@V?$standard_base@DV?$string_output_adapter@D@__crt_stdio_output@@@2@@__crt_stdio_output@@AAE_ND@Z 00557c26 f i libucrt:output.obj
 0001:00156c8a       ?state_case_precision@?$output_processor@DV?$string_output_adapter@D@__crt_stdio_output@@V?$standard_base@DV?$string_output_adapter@D@__crt_stdio_output@@@2@@__crt_stdio_output@@AAE_NXZ 00557c8a f i libucrt:output.obj
 0001:00156c8a       ?state_case_precision@?$output_processor@DV?$stream_output_adapter@D@__crt_stdio_output@@V?$standard_base@DV?$stream_output_adapter@D@__crt_stdio_output@@@2@@__crt_stdio_output@@AAE_NXZ 00557c8a f i libucrt:output.obj
 0001:00156c8a       ?state_case_precision@?$output_processor@DV?$string_output_adapter@D@__crt_stdio_output@@V?$format_validation_base@DV?$string_output_adapter@D@__crt_stdio_output@@@2@@__crt_stdio_output@@AAE_NXZ 00557c8a f i libucrt:output.obj
 0001:00156cb0       ?state_case_precision@?$output_processor@_WV?$string_output_adapter@_W@__crt_stdio_output@@V?$format_validation_base@_WV?$string_output_adapter@_W@__crt_stdio_output@@@2@@__crt_stdio_output@@AAE_NXZ 00557cb0 f i libucrt:output.obj
 0001:00156cd7       ?state_case_size@?$output_processor@DV?$stream_output_adapter@D@__crt_stdio_output@@V?$standard_base@DV?$stream_output_adapter@D@__crt_stdio_output@@@2@@__crt_stdio_output@@AAE_NXZ 00557cd7 f i libucrt:output.obj
 0001:00156e25       ?state_case_size@?$output_processor@DV?$string_output_adapter@D@__crt_stdio_output@@V?$standard_base@DV?$string_output_adapter@D@__crt_stdio_output@@@2@@__crt_stdio_output@@AAE_NXZ 00557e25 f i libucrt:output.obj
 0001:00156e25       ?state_case_size@?$output_processor@DV?$string_output_adapter@D@__crt_stdio_output@@V?$format_validation_base@DV?$string_output_adapter@D@__crt_stdio_output@@@2@@__crt_stdio_output@@AAE_NXZ 00557e25 f i libucrt:output.obj
 0001:00156f73       ?state_case_size@?$output_processor@_WV?$string_output_adapter@_W@__crt_stdio_output@@V?$format_validation_base@_WV?$string_output_adapter@_W@__crt_stdio_output@@@2@@__crt_stdio_output@@AAE_NXZ 00557f73 f i libucrt:output.obj
 0001:001570eb       ?state_case_type@?$output_processor@DV?$stream_output_adapter@D@__crt_stdio_output@@V?$standard_base@DV?$stream_output_adapter@D@__crt_stdio_output@@@2@@__crt_stdio_output@@AAE_NXZ 005580eb f i libucrt:output.obj
 0001:0015731d       ?state_case_type@?$output_processor@DV?$string_output_adapter@D@__crt_stdio_output@@V?$format_validation_base@DV?$string_output_adapter@D@__crt_stdio_output@@@2@@__crt_stdio_output@@AAE_NXZ 0055831d f i libucrt:output.obj
 0001:0015731d       ?state_case_type@?$output_processor@DV?$string_output_adapter@D@__crt_stdio_output@@V?$standard_base@DV?$string_output_adapter@D@__crt_stdio_output@@@2@@__crt_stdio_output@@AAE_NXZ 0055831d f i libucrt:output.obj
 0001:0015754f       ?state_case_type@?$output_processor@_WV?$string_output_adapter@_W@__crt_stdio_output@@V?$format_validation_base@_WV?$string_output_adapter@_W@__crt_stdio_output@@@2@@__crt_stdio_output@@AAE_NXZ 0055854f f i libucrt:output.obj
 0001:001577ac       ?state_case_width@?$output_processor@DV?$string_output_adapter@D@__crt_stdio_output@@V?$standard_base@DV?$string_output_adapter@D@__crt_stdio_output@@@2@@__crt_stdio_output@@AAE_NXZ 005587ac f i libucrt:output.obj
 0001:001577ac       ?state_case_width@?$output_processor@DV?$string_output_adapter@D@__crt_stdio_output@@V?$format_validation_base@DV?$string_output_adapter@D@__crt_stdio_output@@@2@@__crt_stdio_output@@AAE_NXZ 005587ac f i libucrt:output.obj
 0001:001577ac       ?state_case_width@?$output_processor@DV?$stream_output_adapter@D@__crt_stdio_output@@V?$standard_base@DV?$stream_output_adapter@D@__crt_stdio_output@@@2@@__crt_stdio_output@@AAE_NXZ 005587ac f i libucrt:output.obj
 0001:001577d7       ?state_case_width@?$output_processor@_WV?$string_output_adapter@_W@__crt_stdio_output@@V?$format_validation_base@_WV?$string_output_adapter@_W@__crt_stdio_output@@@2@@__crt_stdio_output@@AAE_NXZ 005587d7 f i libucrt:output.obj
 0001:00157810       ?to_integer_size@__crt_stdio_output@@YAIW4length_modifier@1@@Z 00558810 f i libucrt:output.obj
 0001:0015786c       ?type_case_Z@?$output_processor@DV?$stream_output_adapter@D@__crt_stdio_output@@V?$standard_base@DV?$stream_output_adapter@D@__crt_stdio_output@@@2@@__crt_stdio_output@@AAE_NXZ 0055886c f i libucrt:output.obj
 0001:0015786c       ?type_case_Z@?$output_processor@DV?$string_output_adapter@D@__crt_stdio_output@@V?$format_validation_base@DV?$string_output_adapter@D@__crt_stdio_output@@@2@@__crt_stdio_output@@AAE_NXZ 0055886c f i libucrt:output.obj
 0001:0015786c       ?type_case_Z@?$output_processor@DV?$string_output_adapter@D@__crt_stdio_output@@V?$standard_base@DV?$string_output_adapter@D@__crt_stdio_output@@@2@@__crt_stdio_output@@AAE_NXZ 0055886c f i libucrt:output.obj
 0001:001578c6       ?type_case_Z@?$output_processor@_WV?$string_output_adapter@_W@__crt_stdio_output@@V?$format_validation_base@_WV?$string_output_adapter@_W@__crt_stdio_output@@@2@@__crt_stdio_output@@AAE_NXZ 005588c6 f i libucrt:output.obj
 0001:00157920       ?type_case_a@?$output_processor@DV?$string_output_adapter@D@__crt_stdio_output@@V?$format_validation_base@DV?$string_output_adapter@D@__crt_stdio_output@@@2@@__crt_stdio_output@@AAE_NXZ 00558920 f i libucrt:output.obj
 0001:00157920       ?type_case_a@?$output_processor@DV?$stream_output_adapter@D@__crt_stdio_output@@V?$standard_base@DV?$stream_output_adapter@D@__crt_stdio_output@@@2@@__crt_stdio_output@@AAE_NXZ 00558920 f i libucrt:output.obj
 0001:00157920       ?type_case_a@?$output_processor@DV?$string_output_adapter@D@__crt_stdio_output@@V?$standard_base@DV?$string_output_adapter@D@__crt_stdio_output@@@2@@__crt_stdio_output@@AAE_NXZ 00558920 f i libucrt:output.obj
 0001:00157a71       ?type_case_a@?$output_processor@_WV?$string_output_adapter@_W@__crt_stdio_output@@V?$format_validation_base@_WV?$string_output_adapter@_W@__crt_stdio_output@@@2@@__crt_stdio_output@@AAE_NXZ 00558a71 f i libucrt:output.obj
 0001:00157bd8       ?type_case_c_tchar@?$output_processor@DV?$string_output_adapter@D@__crt_stdio_output@@V?$standard_base@DV?$string_output_adapter@D@__crt_stdio_output@@@2@@__crt_stdio_output@@AAE_ND@Z 00558bd8 f i libucrt:output.obj
 0001:00157bd8       ?type_case_c_tchar@?$output_processor@DV?$string_output_adapter@D@__crt_stdio_output@@V?$format_validation_base@DV?$string_output_adapter@D@__crt_stdio_output@@@2@@__crt_stdio_output@@AAE_ND@Z 00558bd8 f i libucrt:output.obj
 0001:00157bd8       ?type_case_c_tchar@?$output_processor@DV?$stream_output_adapter@D@__crt_stdio_output@@V?$standard_base@DV?$stream_output_adapter@D@__crt_stdio_output@@@2@@__crt_stdio_output@@AAE_ND@Z 00558bd8 f i libucrt:output.obj
 0001:00157c6b       ?type_case_c_tchar@?$output_processor@_WV?$string_output_adapter@_W@__crt_stdio_output@@V?$format_validation_base@_WV?$string_output_adapter@_W@__crt_stdio_output@@@2@@__crt_stdio_output@@AAE_N_W@Z 00558c6b f i libucrt:output.obj
 0001:00157d01       ?type_case_integer@?$output_processor@DV?$stream_output_adapter@D@__crt_stdio_output@@V?$standard_base@DV?$stream_output_adapter@D@__crt_stdio_output@@@2@@__crt_stdio_output@@AAE_NI_N@Z 00558d01 f i libucrt:output.obj
 0001:00157d01       ?type_case_integer@?$output_processor@DV?$string_output_adapter@D@__crt_stdio_output@@V?$standard_base@DV?$string_output_adapter@D@__crt_stdio_output@@@2@@__crt_stdio_output@@AAE_NI_N@Z 00558d01 f i libucrt:output.obj
 0001:00157d01       ?type_case_integer@?$output_processor@DV?$string_output_adapter@D@__crt_stdio_output@@V?$format_validation_base@DV?$string_output_adapter@D@__crt_stdio_output@@@2@@__crt_stdio_output@@AAE_NI_N@Z 00558d01 f i libucrt:output.obj
 0001:00157e52       ?type_case_integer@?$output_processor@_WV?$string_output_adapter@_W@__crt_stdio_output@@V?$format_validation_base@_WV?$string_output_adapter@_W@__crt_stdio_output@@@2@@__crt_stdio_output@@AAE_NI_N@Z 00558e52 f i libucrt:output.obj
 0001:00157fa7       ?type_case_n@?$output_processor@DV?$string_output_adapter@D@__crt_stdio_output@@V?$format_validation_base@DV?$string_output_adapter@D@__crt_stdio_output@@@2@@__crt_stdio_output@@AAE_NXZ 00558fa7 f i libucrt:output.obj
 0001:00157fa7       ?type_case_n@?$output_processor@_WV?$string_output_adapter@_W@__crt_stdio_output@@V?$format_validation_base@_WV?$string_output_adapter@_W@__crt_stdio_output@@@2@@__crt_stdio_output@@AAE_NXZ 00558fa7 f i libucrt:output.obj
 0001:00157fa7       ?type_case_n@?$output_processor@DV?$string_output_adapter@D@__crt_stdio_output@@V?$standard_base@DV?$string_output_adapter@D@__crt_stdio_output@@@2@@__crt_stdio_output@@AAE_NXZ 00558fa7 f i libucrt:output.obj
 0001:00157fa7       ?type_case_n@?$output_processor@DV?$stream_output_adapter@D@__crt_stdio_output@@V?$standard_base@DV?$stream_output_adapter@D@__crt_stdio_output@@@2@@__crt_stdio_output@@AAE_NXZ 00558fa7 f i libucrt:output.obj
 0001:0015801b       ?type_case_o@?$output_processor@DV?$stream_output_adapter@D@__crt_stdio_output@@V?$standard_base@DV?$stream_output_adapter@D@__crt_stdio_output@@@2@@__crt_stdio_output@@AAE_NXZ 0055901b f i libucrt:output.obj
 0001:0015801b       ?type_case_o@?$output_processor@DV?$string_output_adapter@D@__crt_stdio_output@@V?$format_validation_base@DV?$string_output_adapter@D@__crt_stdio_output@@@2@@__crt_stdio_output@@AAE_NXZ 0055901b f i libucrt:output.obj
 0001:0015801b       ?type_case_o@?$output_processor@DV?$string_output_adapter@D@__crt_stdio_output@@V?$standard_base@DV?$string_output_adapter@D@__crt_stdio_output@@@2@@__crt_stdio_output@@AAE_NXZ 0055901b f i libucrt:output.obj
 0001:0015803a       ?type_case_o@?$output_processor@_WV?$string_output_adapter@_W@__crt_stdio_output@@V?$format_validation_base@_WV?$string_output_adapter@_W@__crt_stdio_output@@@2@@__crt_stdio_output@@AAE_NXZ 0055903a f i libucrt:output.obj
 0001:00158059       ?type_case_p@?$output_processor@DV?$stream_output_adapter@D@__crt_stdio_output@@V?$standard_base@DV?$stream_output_adapter@D@__crt_stdio_output@@@2@@__crt_stdio_output@@AAE_NXZ 00559059 f i libucrt:output.obj
 0001:00158059       ?type_case_p@?$output_processor@DV?$string_output_adapter@D@__crt_stdio_output@@V?$format_validation_base@DV?$string_output_adapter@D@__crt_stdio_output@@@2@@__crt_stdio_output@@AAE_NXZ 00559059 f i libucrt:output.obj
 0001:00158059       ?type_case_p@?$output_processor@DV?$string_output_adapter@D@__crt_stdio_output@@V?$standard_base@DV?$string_output_adapter@D@__crt_stdio_output@@@2@@__crt_stdio_output@@AAE_NXZ 00559059 f i libucrt:output.obj
 0001:00158071       ?type_case_p@?$output_processor@_WV?$string_output_adapter@_W@__crt_stdio_output@@V?$format_validation_base@_WV?$string_output_adapter@_W@__crt_stdio_output@@@2@@__crt_stdio_output@@AAE_NXZ 00559071 f i libucrt:output.obj
 0001:00158089       ?type_case_s@?$output_processor@DV?$string_output_adapter@D@__crt_stdio_output@@V?$standard_base@DV?$string_output_adapter@D@__crt_stdio_output@@@2@@__crt_stdio_output@@AAE_NXZ 00559089 f i libucrt:output.obj
 0001:00158089       ?type_case_s@?$output_processor@DV?$stream_output_adapter@D@__crt_stdio_output@@V?$standard_base@DV?$stream_output_adapter@D@__crt_stdio_output@@@2@@__crt_stdio_output@@AAE_NXZ 00559089 f i libucrt:output.obj
 0001:00158089       ?type_case_s@?$output_processor@DV?$string_output_adapter@D@__crt_stdio_output@@V?$format_validation_base@DV?$string_output_adapter@D@__crt_stdio_output@@@2@@__crt_stdio_output@@AAE_NXZ 00559089 f i libucrt:output.obj
 0001:001580fa       ?type_case_s@?$output_processor@_WV?$string_output_adapter@_W@__crt_stdio_output@@V?$format_validation_base@_WV?$string_output_adapter@_W@__crt_stdio_output@@@2@@__crt_stdio_output@@AAE_NXZ 005590fa f i libucrt:output.obj
 0001:0015816d       ?type_case_s_compute_narrow_string_length@?$output_processor@_WV?$string_output_adapter@_W@__crt_stdio_output@@V?$format_validation_base@_WV?$string_output_adapter@_W@__crt_stdio_output@@@2@@__crt_stdio_output@@ABEHH_W@Z 0055916d f i libucrt:output.obj
 0001:001581b4       ?validate@?$stream_output_adapter@D@__crt_stdio_output@@QBE_NXZ 005591b4 f i libucrt:output.obj
 0001:001581d5       ?validate@?$c_string_character_source@_W@__crt_strtox@@QBE_NXZ 005591d5 f i libucrt:atox.obj
 0001:001581d5       ?validate@?$c_string_character_source@D@__crt_strtox@@QBE_NXZ 005591d5 f i libucrt:atox.obj
 0001:001581d5       ?validate@?$string_output_adapter@_W@__crt_stdio_output@@QBE_NXZ 005591d5 f i libucrt:output.obj
 0001:001581d5       ?validate@?$string_output_adapter@D@__crt_stdio_output@@QBE_NXZ 005591d5 f i libucrt:output.obj
 0001:001581f0       ?validate_and_update_state_at_end_of_format_string@?$format_validation_base@_WV?$string_output_adapter@_W@__crt_stdio_output@@@__crt_stdio_output@@IBE_NXZ 005591f0 f i libucrt:output.obj
 0001:001581f0       ?validate_and_update_state_at_end_of_format_string@?$format_validation_base@DV?$string_output_adapter@D@__crt_stdio_output@@@__crt_stdio_output@@IBE_NXZ 005591f0 f i libucrt:output.obj
 0001:00158212       ?validate_stream_is_ansi_if_required@?$__acrt_stdio_char_traits@D@@SA_NQAU_iobuf@@@Z 00559212 f i libucrt:output.obj
 0001:00158299       ?write_character@?$string_output_adapter@D@__crt_stdio_output@@QBE_NDQAH@Z 00559299 f i libucrt:output.obj
 0001:001582db       ?write_character@?$string_output_adapter@_W@__crt_stdio_output@@QBE_N_WQAH@Z 005592db f i libucrt:output.obj
 0001:00158320       ?write_character_without_count_update@?$stream_output_adapter@D@__crt_stdio_output@@QBE_ND@Z 00559320 f i libucrt:output.obj
 0001:00158356       ?write_stored_string_tchar@?$output_processor@DV?$stream_output_adapter@D@__crt_stdio_output@@V?$standard_base@DV?$stream_output_adapter@D@__crt_stdio_output@@@2@@__crt_stdio_output@@AAE_ND@Z 00559356 f i libucrt:output.obj
 0001:001583fb       ?write_stored_string_tchar@?$output_processor@DV?$string_output_adapter@D@__crt_stdio_output@@V?$format_validation_base@DV?$string_output_adapter@D@__crt_stdio_output@@@2@@__crt_stdio_output@@AAE_ND@Z 005593fb f i libucrt:output.obj
 0001:001583fb       ?write_stored_string_tchar@?$output_processor@DV?$string_output_adapter@D@__crt_stdio_output@@V?$standard_base@DV?$string_output_adapter@D@__crt_stdio_output@@@2@@__crt_stdio_output@@AAE_ND@Z 005593fb f i libucrt:output.obj
 0001:001584a0       ?write_stored_string_tchar@?$output_processor@_WV?$string_output_adapter@_W@__crt_stdio_output@@V?$format_validation_base@_WV?$string_output_adapter@_W@__crt_stdio_output@@@2@@__crt_stdio_output@@AAE_N_W@Z 005594a0 f i libucrt:output.obj
 0001:0015852d       ?write_string@?$stream_output_adapter@D@__crt_stdio_output@@QBEXQBDHQAHAAV__crt_deferred_errno_cache@@@Z 0055952d f i libucrt:output.obj
 0001:00158559       ?write_string@?$string_output_adapter@D@__crt_stdio_output@@QBEXQBDHQAHAAV__crt_deferred_errno_cache@@@Z 00559559 f i libucrt:output.obj
 0001:001585c0       ?write_string@?$string_output_adapter@_W@__crt_stdio_output@@QBEXQB_WHQAHAAV__crt_deferred_errno_cache@@@Z 005595c0 f i libucrt:output.obj
 0001:00158631       ?write_string_impl@?$output_adapter_common@DV?$stream_output_adapter@D@__crt_stdio_output@@@__crt_stdio_output@@IBEXQBDHQAHAAV__crt_deferred_errno_cache@@@Z 00559631 f i libucrt:output.obj
 0001:001586cf       ___acrt_locale_get_ctype_array_value 005596cf f i libucrt:output.obj
 0001:001586f1       ___stdio_common_vfprintf   005596f1 f   libucrt:output.obj
 0001:00158774       ___stdio_common_vsnwprintf_s 00559774 f   libucrt:output.obj
 0001:0015879b       ___stdio_common_vsprintf   0055979b f   libucrt:output.obj
 0001:001587bf       ___stdio_common_vsprintf_s 005597bf f   libucrt:output.obj
 0001:001587e3       __difftime64               005597e3 f   libucrt:difftime.obj
 0001:00158828       __time64                   00559828 f   libucrt:time.obj
 0001:00158b15       __localtime64              00559b15 f   libucrt:localtime.obj
 0001:00158b3c       __localtime64_s            00559b3c f   libucrt:localtime.obj
 0001:00158b50       _strncpy                   00559b50 f   libucrt:strncpy.obj
 0001:00158c74       _rand                      00559c74 f   libucrt:rand.obj
 0001:00158c95       _srand                     00559c95 f   libucrt:rand.obj
 0001:00158ca7       ??$is_overflow_condition@K@__crt_strtox@@YA_NIK@Z 00559ca7 f i libucrt:atox.obj
 0001:00158cd8       ??$is_overflow_condition@_K@__crt_strtox@@YA_NI_K@Z 00559cd8 f i libucrt:atox.obj
 0001:00158d19       ??$parse_integer@KV?$c_string_character_source@D@__crt_strtox@@@__crt_strtox@@YAKQAU__crt_locale_pointers@@V?$c_string_character_source@D@0@H_N@Z 00559d19 f i libucrt:atox.obj
 0001:00158f3c       ??$parse_integer@KV?$c_string_character_source@_W@__crt_strtox@@@__crt_strtox@@YAKQAU__crt_locale_pointers@@V?$c_string_character_source@_W@0@H_N@Z 00559f3c f i libucrt:atox.obj
 0001:00159544       ??$parse_integer@_KV?$c_string_character_source@D@__crt_strtox@@@__crt_strtox@@YA_KQAU__crt_locale_pointers@@V?$c_string_character_source@D@0@H_N@Z 0055a544 f i libucrt:atox.obj
 0001:001597ea       ?unget@?$c_string_character_source@D@__crt_strtox@@QAEXD@Z 0055a7ea f i libucrt:atox.obj
 0001:00159813       ?unget@?$c_string_character_source@_W@__crt_strtox@@QAEX_W@Z 0055a813 f i libucrt:atox.obj
 0001:00159841       __ischartype_l             0055a841 f i libucrt:atox.obj
 0001:00159895       __wtol                     0055a895 f   libucrt:atox.obj
 0001:001598b8       _atoi                      0055a8b8 f   libucrt:atox.obj
 0001:001598db       ___ascii_stricmp           0055a8db f   libucrt:stricmp.obj
 0001:00159914       __stricmp                  0055a914 f   libucrt:stricmp.obj
 0001:0015995d       __stricmp_l                0055a95d f   libucrt:stricmp.obj
 0001:001599eb       _frexp                     0055a9eb f   libucrt:frexp.obj
 0001:00159af0       _strcspn                   0055aaf0 f   libucrt:strcspn.obj
 0001:00159b36       _localeconv                0055ab36 f   libucrt:localeconv.obj
 0001:00159b5e       _calloc                    0055ab5e f   libucrt:calloc.obj
 0001:00159b69       ??$__crt_time_elapsed_leap_years@_J@@YA_J_J@Z 0055ab69 f i libucrt:mktime.obj
 0001:00159bcd       ??$__crt_time_is_leap_year@_J@@YA_N_J@Z 0055abcd f i libucrt:mktime.obj
 0001:00159fde       __mktime64                 0055afde f   libucrt:mktime.obj
 0001:00159ff1       ___acrt_initialize_stdio   0055aff1 f   libucrt:_file.obj
 0001:0015a0b9       ___acrt_iob_func           0055b0b9 f   libucrt:_file.obj
 0001:0015a0c9       ___acrt_uninitialize_stdio 0055b0c9 f   libucrt:_file.obj
 0001:0015a115       __get_stream_buffer_pointers 0055b115 f   libucrt:_file.obj
 0001:0015a15b       __lock_file                0055b15b f   libucrt:_file.obj
 0001:0015a16f       __unlock_file              0055b16f f   libucrt:_file.obj
 0001:0015a3c0       ___acrt_stdio_flush_nolock 0055b3c0 f   libucrt:fflush.obj
 0001:0015a425       __fflush_nolock            0055b425 f   libucrt:fflush.obj
 0001:0015a46d       __flushall                 0055b46d f   libucrt:fflush.obj
 0001:0015a476       _fflush                    0055b476 f   libucrt:fflush.obj
 0001:0015a4d0       _strncmp                   0055b4d0 f   libucrt:strncmp.obj
 0001:0015a550       _isalnum                   0055b550 f   libucrt:_ctype.obj
 0001:0015a5e0       _isalpha                   0055b5e0 f   libucrt:_ctype.obj
 0001:0015a670       _iscntrl                   0055b670 f   libucrt:_ctype.obj
 0001:0015a700       _isdigit                   0055b700 f   libucrt:_ctype.obj
 0001:0015a790       _isgraph                   0055b790 f   libucrt:_ctype.obj
 0001:0015a820       _islower                   0055b820 f   libucrt:_ctype.obj
 0001:0015a8b0       _ispunct                   0055b8b0 f   libucrt:_ctype.obj
 0001:0015a940       _isspace                   0055b940 f   libucrt:_ctype.obj
 0001:0015a9d0       _isupper                   0055b9d0 f   libucrt:_ctype.obj
 0001:0015aa60       _isxdigit                  0055ba60 f   libucrt:_ctype.obj
 0001:0015aaeb       ??$assemble_floating_point_snan@N@__crt_strtox@@YAX_NAAN@Z 0055baeb f i libucrt:atof.obj
 0001:0015ab0c       ??$assemble_floating_point_value_t@M@__crt_strtox@@YA?AW4SLD_STATUS@@_NH_KAAM@Z 0055bb0c f i libucrt:atof.obj
 0001:0015ab3c       ??$assemble_floating_point_value_t@N@__crt_strtox@@YA?AW4SLD_STATUS@@_NH_KAAN@Z 0055bb3c f i libucrt:atof.obj
 0001:0015abe2       ??$convert_decimal_string_to_floating_type@M@__crt_strtox@@YA?AW4SLD_STATUS@@ABUfloating_point_string@0@AAM@Z 0055bbe2 f i libucrt:atof.obj
 0001:0015ac03       ??$convert_decimal_string_to_floating_type@N@__crt_strtox@@YA?AW4SLD_STATUS@@ABUfloating_point_string@0@AAN@Z 0055bc03 f i libucrt:atof.obj
 0001:0015ac24       ??$convert_hexadecimal_string_to_floating_type@M@__crt_strtox@@YA?AW4SLD_STATUS@@ABUfloating_point_string@0@AAM@Z 0055bc24 f i libucrt:atof.obj
 0001:0015ac45       ??$convert_hexadecimal_string_to_floating_type@N@__crt_strtox@@YA?AW4SLD_STATUS@@ABUfloating_point_string@0@AAN@Z 0055bc45 f i libucrt:atof.obj
 0001:0015ac66       ??$parse_floating_point@V?$c_string_character_source@D@__crt_strtox@@N@__crt_strtox@@YA?AW4SLD_STATUS@@QAU__crt_locale_pointers@@V?$c_string_character_source@D@0@QAN@Z 0055bc66 f i libucrt:atof.obj
 0001:0015acda       ??$parse_floating_point_from_source@V?$c_string_character_source@D@__crt_strtox@@@__crt_strtox@@YA?AW4floating_point_parse_result@0@QAU__crt_locale_pointers@@AAV?$c_string_character_source@D@0@AAUfloating_point_string@0@@Z 0055bcda f i libucrt:atof.obj
 0001:0015b0c3       ??$parse_floating_point_possible_infinity@DV?$c_string_character_source@D@__crt_strtox@@PBD@__crt_strtox@@YA?AW4floating_point_parse_result@0@AADAAV?$c_string_character_source@D@0@PBD@Z 0055c0c3 f i libucrt:atof.obj
 0001:0015b165       ??$parse_floating_point_possible_nan@DV?$c_string_character_source@D@__crt_strtox@@PBD@__crt_strtox@@YA?AW4floating_point_parse_result@0@AADAAV?$c_string_character_source@D@0@PBD@Z 0055c165 f i libucrt:atof.obj
 0001:0015b274       ??$parse_floating_point_possible_nan_is_ind@DV?$c_string_character_source@D@__crt_strtox@@@__crt_strtox@@YA_NAADAAV?$c_string_character_source@D@0@@Z 0055c274 f i libucrt:atof.obj
 0001:0015b2b0       ??$parse_floating_point_possible_nan_is_snan@DV?$c_string_character_source@D@__crt_strtox@@@__crt_strtox@@YA_NAADAAV?$c_string_character_source@D@0@@Z 0055c2b0 f i libucrt:atof.obj
 0001:0015b2ec       ??$parse_floating_point_write_result@M@__crt_strtox@@YA?AW4SLD_STATUS@@W4floating_point_parse_result@0@ABUfloating_point_string@0@QAM@Z 0055c2ec f i libucrt:atof.obj
 0001:0015b458       ??$parse_floating_point_write_result@N@__crt_strtox@@YA?AW4SLD_STATUS@@W4floating_point_parse_result@0@ABUfloating_point_string@0@QAN@Z 0055c458 f i libucrt:atof.obj
 0001:0015b5a2       ?as_double@floating_point_value@__crt_strtox@@QBEAANXZ 0055c5a2 f i libucrt:atof.obj
 0001:0015b5c7       ?as_float@floating_point_value@__crt_strtox@@QBEAAMXZ 0055c5c7 f i libucrt:atof.obj
 0001:0015b5ec       ?assemble_floating_point_infinity@__crt_strtox@@YAX_NABVfloating_point_value@1@@Z 0055c5ec f i libucrt:atof.obj
 0001:0015b62c       ?assemble_floating_point_value@__crt_strtox@@YA?AW4SLD_STATUS@@_KH_N1ABVfloating_point_value@1@@Z 0055c62c f i libucrt:atof.obj
 0001:0015b981       ?assemble_floating_point_value_from_big_integer@__crt_strtox@@YA?AW4SLD_STATUS@@ABUbig_integer@1@I_N1ABVfloating_point_value@1@@Z 0055c981 f i libucrt:atof.obj
 0001:0015bb15       ?assemble_floating_point_zero@__crt_strtox@@YAX_NABVfloating_point_value@1@@Z 0055cb15 f i libucrt:atof.obj
 0001:0015bb4a       ?convert_decimal_string_to_floating_type_common@__crt_strtox@@YA?AW4SLD_STATUS@@ABUfloating_point_string@1@ABVfloating_point_value@1@@Z 0055cb4a f i libucrt:atof.obj
 0001:0015d81e       ?convert_hexadecimal_string_to_floating_type_common@__crt_strtox@@YA?AW4SLD_STATUS@@ABUfloating_point_string@1@ABVfloating_point_value@1@@Z 0055e81e f i libucrt:atof.obj
 0001:0015d8c4       ?denormal_mantissa_mask@floating_point_value@__crt_strtox@@QBE_KXZ 0055e8c4 f i libucrt:atof.obj
 0001:0015d8e0       ?divide@__crt_strtox@@YA_KAAUbig_integer@1@ABU21@@Z 0055e8e0 f i libucrt:atof.obj
 0001:0015dd78       ?normal_mantissa_mask@floating_point_value@__crt_strtox@@QBE_KXZ 0055ed78 f i libucrt:atof.obj
 0001:0015dd8f       _atof                      0055ed8f f   libucrt:atof.obj
 0001:0015de56       ??$make_input_adapter_character_source@V?$string_input_adapter@D@__crt_stdio_input@@@__crt_strtox@@YA?AV?$input_adapter_character_source@V?$string_input_adapter@D@__crt_stdio_input@@@0@QAV?$string_input_adapter@D@__crt_stdio_input@@_KQA_N@Z 0055ee56 f i libucrt:input.obj
 0001:0015de74       ??$parse_floating_point@V?$input_adapter_character_source@V?$string_input_adapter@D@__crt_stdio_input@@@__crt_strtox@@M@__crt_strtox@@YA?AW4SLD_STATUS@@QAU__crt_locale_pointers@@V?$input_adapter_character_source@V?$string_input_adapter@D@__crt_stdio_input@@@0@QAM@Z 0055ee74 f i libucrt:input.obj
 0001:0015deed       ??$parse_floating_point@V?$input_adapter_character_source@V?$string_input_adapter@D@__crt_stdio_input@@@__crt_strtox@@N@__crt_strtox@@YA?AW4SLD_STATUS@@QAU__crt_locale_pointers@@V?$input_adapter_character_source@V?$string_input_adapter@D@__crt_stdio_input@@@0@QAN@Z 0055eeed f i libucrt:input.obj
 0001:0015df66       ??$parse_floating_point_from_source@V?$input_adapter_character_source@V?$string_input_adapter@D@__crt_stdio_input@@@__crt_strtox@@@__crt_strtox@@YA?AW4floating_point_parse_result@0@QAU__crt_locale_pointers@@AAV?$input_adapter_character_source@V?$string_input_adapter@D@__crt_stdio_input@@@0@AAUfloating_point_string@0@@Z 0055ef66 f i libucrt:input.obj
 0001:0015e3c3       ??$parse_floating_point_possible_infinity@DV?$input_adapter_character_source@V?$string_input_adapter@D@__crt_stdio_input@@@__crt_strtox@@_K@__crt_strtox@@YA?AW4floating_point_parse_result@0@AADAAV?$input_adapter_character_source@V?$string_input_adapter@D@__crt_stdio_input@@@0@_K@Z 0055f3c3 f i libucrt:input.obj
 0001:0015e482       ??$parse_floating_point_possible_nan@DV?$input_adapter_character_source@V?$string_input_adapter@D@__crt_stdio_input@@@__crt_strtox@@_K@__crt_strtox@@YA?AW4floating_point_parse_result@0@AADAAV?$input_adapter_character_source@V?$string_input_adapter@D@__crt_stdio_input@@@0@_K@Z 0055f482 f i libucrt:input.obj
 0001:0015e59d       ??$parse_floating_point_possible_nan_is_ind@DV?$input_adapter_character_source@V?$string_input_adapter@D@__crt_stdio_input@@@__crt_strtox@@@__crt_strtox@@YA_NAADAAV?$input_adapter_character_source@V?$string_input_adapter@D@__crt_stdio_input@@@0@@Z 0055f59d f i libucrt:input.obj
 0001:0015e5d7       ??$parse_floating_point_possible_nan_is_snan@DV?$input_adapter_character_source@V?$string_input_adapter@D@__crt_stdio_input@@@__crt_strtox@@@__crt_strtox@@YA_NAADAAV?$input_adapter_character_source@V?$string_input_adapter@D@__crt_stdio_input@@@0@@Z 0055f5d7 f i libucrt:input.obj
 0001:0015e611       ??$parse_integer@_KV?$input_adapter_character_source@V?$string_input_adapter@D@__crt_stdio_input@@@__crt_strtox@@@__crt_strtox@@YA_KQAU__crt_locale_pointers@@V?$input_adapter_character_source@V?$string_input_adapter@D@__crt_stdio_input@@@0@H_N@Z 0055f611 f i libucrt:input.obj
 0001:0015e8cf       ??$process_floating_point_specifier_t@M@?$input_processor@DV?$string_input_adapter@D@__crt_stdio_input@@@__crt_stdio_input@@AAE_NXZ 0055f8cf f i libucrt:input.obj
 0001:0015e935       ??$process_floating_point_specifier_t@N@?$input_processor@DV?$string_input_adapter@D@__crt_stdio_input@@@__crt_stdio_input@@AAE_NXZ 0055f935 f i libucrt:input.obj
 0001:0015e99b       ??$process_string_specifier_tchar@D@?$input_processor@DV?$string_input_adapter@D@__crt_stdio_input@@@__crt_stdio_input@@AAE_NW4conversion_mode@1@D@Z 0055f99b f i libucrt:input.obj
 0001:0015eaf8       ??$process_string_specifier_tchar@_W@?$input_processor@DV?$string_input_adapter@D@__crt_stdio_input@@@__crt_stdio_input@@AAE_NW4conversion_mode@1@_W@Z 0055faf8 f i libucrt:input.obj
 0001:0015ec5f       ??$skip_whitespace@Vstring_input_adapter@__crt_stdio_input@@D@__crt_stdio_input@@YAHAAV?$string_input_adapter@D@0@QAU__crt_locale_pointers@@@Z 0055fc5f f i libucrt:input.obj
 0001:0015ec8e       ??$write_floating_point@M@?$input_processor@DV?$string_input_adapter@D@__crt_stdio_input@@@__crt_stdio_input@@AAE_NABM@Z 0055fc8e f i libucrt:input.obj
 0001:0015ecc2       ??$write_floating_point@N@?$input_processor@DV?$string_input_adapter@D@__crt_stdio_input@@@__crt_stdio_input@@AAE_NABN@Z 0055fcc2 f i libucrt:input.obj
 0001:0015ecfc       ??0?$format_string_parser@D@__crt_stdio_input@@QAE@_KQBE@Z 0055fcfc f i libucrt:input.obj
 0001:0015ed46       ??0?$input_adapter_character_source@V?$string_input_adapter@D@__crt_stdio_input@@@__crt_strtox@@QAE@QAV?$string_input_adapter@D@__crt_stdio_input@@_KQA_N@Z 0055fd46 f i libucrt:input.obj
 0001:0015ed77       ??0?$input_processor@DV?$string_input_adapter@D@__crt_stdio_input@@@__crt_stdio_input@@QAE@ABV?$string_input_adapter@D@1@_KQBDQAU__crt_locale_pointers@@QAD@Z 0055fd77 f i libucrt:input.obj
 0001:0015ede5       ?advance@?$format_string_parser@D@__crt_stdio_input@@QAE_NXZ 0055fde5 f i libucrt:input.obj
 0001:0015eefd       ?get@?$input_adapter_character_source@V?$string_input_adapter@D@__crt_stdio_input@@@__crt_strtox@@QAEDXZ 0055fefd f i libucrt:input.obj
 0001:0015ef34       ?get@?$string_input_adapter@D@__crt_stdio_input@@QAEHXZ 0055ff34 f i libucrt:input.obj
 0001:0015ef4a       ?invert@?$scanset_buffer@E@__crt_stdio_input@@QAEXXZ 0055ff4a f i libucrt:input.obj
 0001:0015ef68       ?is_character_allowed_in_string@?$input_processor@DV?$string_input_adapter@D@__crt_stdio_input@@@__crt_stdio_input@@ABE_NW4conversion_mode@2@H@Z 0055ff68 f i libucrt:input.obj
 0001:0015efb8       ?length@?$format_string_parser@D@__crt_stdio_input@@QBEIXZ 0055ffb8 f i libucrt:input.obj
 0001:0015eff9       ?process@?$input_processor@DV?$string_input_adapter@D@__crt_stdio_input@@@__crt_stdio_input@@QAEHXZ 0055fff9 f i libucrt:input.obj
 0001:0015f07d       ?process_character_count_specifier@?$input_processor@DV?$string_input_adapter@D@__crt_stdio_input@@@__crt_stdio_input@@AAE_NXZ 0056007d f i libucrt:input.obj
 0001:0015f095       ?process_conversion_specifier@?$input_processor@DV?$string_input_adapter@D@__crt_stdio_input@@@__crt_stdio_input@@AAE_NXZ 00560095 f i libucrt:input.obj
 0001:0015f109       ?process_floating_point_specifier@?$input_processor@DV?$string_input_adapter@D@__crt_stdio_input@@@__crt_stdio_input@@AAE_NXZ 00560109 f i libucrt:input.obj
 0001:0015f139       ?process_integer_specifier@?$input_processor@DV?$string_input_adapter@D@__crt_stdio_input@@@__crt_stdio_input@@AAE_NI_N@Z 00560139 f i libucrt:input.obj
 0001:0015f19b       ?process_literal_character@?$input_processor@DV?$string_input_adapter@D@__crt_stdio_input@@@__crt_stdio_input@@AAE_NXZ 0056019b f i libucrt:input.obj
 0001:0015f1d1       ?process_literal_character_tchar@?$input_processor@DV?$string_input_adapter@D@__crt_stdio_input@@@__crt_stdio_input@@AAE_ND@Z 005601d1 f i libucrt:input.obj
 0001:0015f21f       ?process_state@?$input_processor@DV?$string_input_adapter@D@__crt_stdio_input@@@__crt_stdio_input@@AAE_NXZ 0056021f f i libucrt:input.obj
 0001:0015f261       ?process_string_specifier@?$input_processor@DV?$string_input_adapter@D@__crt_stdio_input@@@__crt_stdio_input@@AAE_NW4conversion_mode@2@@Z 00560261 f i libucrt:input.obj
 0001:0015f2a9       ?process_whitespace@?$input_processor@DV?$string_input_adapter@D@__crt_stdio_input@@@__crt_stdio_input@@AAE_NXZ 005602a9 f i libucrt:input.obj
 0001:0015f2c6       ?restore_state@?$input_adapter_character_source@V?$string_input_adapter@D@__crt_stdio_input@@@__crt_strtox@@QAE_N_K@Z 005602c6 f i libucrt:input.obj
 0001:0015f2eb       ?scan_conversion_specifier@?$format_string_parser@D@__crt_stdio_input@@AAE_NXZ 005602eb f i libucrt:input.obj
 0001:0015f456       ?scan_optional_field_width@?$format_string_parser@D@__crt_stdio_input@@AAE_NXZ 00560456 f i libucrt:input.obj
 0001:0015f4f3       ?scan_optional_length_modifier@?$format_string_parser@D@__crt_stdio_input@@AAEXXZ 005604f3 f i libucrt:input.obj
 0001:0015f602       ?scan_optional_literal_character_trail_bytes_tchar@?$format_string_parser@D@__crt_stdio_input@@AAE_ND@Z 00560602 f i libucrt:input.obj
 0001:0015f654       ?scan_optional_wide_modifier@?$format_string_parser@D@__crt_stdio_input@@AAEXXZ 00560654 f i libucrt:input.obj
 0001:0015f672       ?scan_scanset_range@?$format_string_parser@D@__crt_stdio_input@@AAE_NXZ 00560672 f i libucrt:input.obj
 0001:0015f7aa       ?set_wide_for_c_s_or_scanset@?$format_string_parser@D@__crt_stdio_input@@AAEXXZ 005607aa f i libucrt:input.obj
 0001:0015f7ca       ?to_floating_point_length@__crt_stdio_input@@YAIW4length_modifier@1@@Z 005607ca f i libucrt:input.obj
 0001:0015f7ed       ?to_integer_length@__crt_stdio_input@@YAIW4length_modifier@1@@Z 005607ed f i libucrt:input.obj
 0001:0015f840       ?unget@?$input_adapter_character_source@V?$string_input_adapter@D@__crt_stdio_input@@@__crt_strtox@@QAEXD@Z 00560840 f i libucrt:input.obj
 0001:0015f887       ?unget@?$string_input_adapter@D@__crt_stdio_input@@QAEXH@Z 00560887 f i libucrt:input.obj
 0001:0015f8a6       ?validate@?$format_string_parser@D@__crt_stdio_input@@QBE_NXZ 005608a6 f i libucrt:input.obj
 0001:0015f8c2       ?validate@?$input_adapter_character_source@V?$string_input_adapter@D@__crt_stdio_input@@@__crt_strtox@@QBE_NXZ 005608c2 f i libucrt:input.obj
 0001:0015f8e3       ?validate@?$string_input_adapter@D@__crt_stdio_input@@QAE_NXZ 005608e3 f i libucrt:input.obj
 0001:0015f905       ?write_character@?$input_processor@DV?$string_input_adapter@D@__crt_stdio_input@@@__crt_stdio_input@@AAE_NQA_WIAAPA_WAAID@Z 00560905 f i libucrt:input.obj
 0001:0015f972       ?write_integer@?$input_processor@DV?$string_input_adapter@D@__crt_stdio_input@@@__crt_stdio_input@@AAE_N_K@Z 00560972 f i libucrt:input.obj
 0001:0015f9e0       ___stdio_common_vsscanf    005609e0 f   libucrt:input.obj
 0001:0015fa04       __fgetc_nolock             00560a04 f   libucrt:fgetc.obj
 0001:0015fa40       __getc_nolock              00560a40 f   libucrt:fgetc.obj
 0001:0015fa4b       _fgetc                     00560a4b f   libucrt:fgetc.obj
 0001:0015fb53       _getc                      00560b53 f   libucrt:fgetc.obj
 0001:0015fb5e       __fputc_nolock             00560b5e f   libucrt:fputc.obj
 0001:0015fb87       _fputc                     00560b87 f   libucrt:fputc.obj
 0001:0015fc91       __ungetc_nolock            00560c91 f   libucrt:ungetc.obj
 0001:0015fd8b       _ungetc                    00560d8b f   libucrt:ungetc.obj
 0001:0015ff29       _setvbuf                   00560f29 f   libucrt:setvbuf.obj
 0001:0015ffab       _fsetpos                   00560fab f   libucrt:fsetpos.obj
 0001:0015ffe6       ?LongLongSub@@YAJ_J0PA_J@Z 00560fe6 f i libucrt:fseek.obj
 0001:001602a2       __fseeki64                 005612a2 f   libucrt:fseek.obj
 0001:001602bd       _fseek                     005612bd f   libucrt:fseek.obj
 0001:001602d8       _fgetpos                   005612d8 f   libucrt:fgetpos.obj
 0001:001603d1       __fwrite_nolock            005613d1 f   libucrt:fwrite.obj
 0001:00160552       _fwrite                    00561552 f   libucrt:fwrite.obj
 0001:001605b5       __tolower_l                005615b5 f   libucrt:tolower_toupper.obj
 0001:001606b9       __toupper_l                005616b9 f   libucrt:tolower_toupper.obj
 0001:001607be       _tolower                   005617be f   libucrt:tolower_toupper.obj
 0001:001607ee       _toupper                   005617ee f   libucrt:tolower_toupper.obj
 0001:0016081e       _strcat_s                  0056181e f   libucrt:strcat_s.obj
 0001:00160890       _modf                      00561890 f   libucrt:modf_pentium4.obj
 0001:001608d0       __modf_pentium4            005618d0 f   libucrt:modf_pentium4.obj
 0001:001609d8       ??$__crt_time_is_leap_year@H@@YA_NH@Z 005619d8 f i libucrt:asctime.obj
 0001:00160bc4       ?__crt_time_is_day_valid@@YA_NHHH@Z 00561bc4 f i libucrt:asctime.obj
 0001:00160c07       _asctime_s                 00561c07 f   libucrt:asctime.obj
 0001:00160cd5       _fgets                     00561cd5 f   libucrt:fgets.obj
 0001:00160ce0       _feof                      00561ce0 f   libucrt:feoferr.obj
 0001:00160d0c       _ferror                    00561d0c f   libucrt:feoferr.obj
 0001:00160f8d       _setlocale                 00561f8d f   libucrt:setlocale.obj
 0001:00160fc5       ___acrt_initialize_locks   00561fc5 f   libucrt:locks.obj
 0001:00161006       ___acrt_lock               00562006 f   libucrt:locks.obj
 0001:0016101d       ___acrt_uninitialize_locks 0056201d f   libucrt:locks.obj
 0001:0016104e       ___acrt_unlock             0056204e f   libucrt:locks.obj
 0001:00161065       __lock_locales             00562065 f   libucrt:locks.obj
 0001:00161073       __unlock_locales           00562073 f   libucrt:locks.obj
 0001:0016107c       ___pctype_func             0056207c f   libucrt:ctype.obj
 0001:001610a0       ____lc_codepage_func       005620a0 f   libucrt:initctype.obj
 0001:001610c5       ____lc_locale_name_func    005620c5 f   libucrt:initctype.obj
 0001:001610ec       ____mb_cur_max_func        005620ec f   libucrt:initctype.obj
 0001:00161111       ___acrt_locale_initialize_ctype 00562111 f   libucrt:initctype.obj
 0001:0016156f       __wcsdup                   0056256f f   libucrt:wcsdup.obj
 0001:001615ce       _terminate                 005625ce f   libucrt:terminate.obj
 0001:0016160a       _rand_s                    0056260a f   libucrt:rand_s.obj
 0001:00161652       _ldexp                     00562652 f   libucrt:ldexp.obj
 0001:00161844       _realloc                   00562844 f   libucrt:realloc.obj
 0001:001618d8       ??$make_c_string_character_source@_WPAPA_W@__crt_strtox@@YA?AV?$c_string_character_source@_W@0@QB_WQAPA_W@Z 005628d8 f i libucrt:strtod.obj
 0001:001618d8       ??$make_c_string_character_source@DPAPAD@__crt_strtox@@YA?AV?$c_string_character_source@D@0@QBDQAPAD@Z 005628d8 f i libucrt:strtod.obj
 0001:001618f3       _strtod                    005628f3 f   libucrt:strtod.obj
 0001:00161910       __CIpow                    00562910 f   libucrt:pow_impl.obj
 0001:0016194b       __CIpow_default            0056294b f   libucrt:pow_impl.obj
 0001:00161964       __pow_default              00562964     libucrt:pow_impl.obj
 0001:00161b59       _abort                     00562b59 f   libucrt:abort.obj
 0001:00161b9d       ___strncnt                 00562b9d f   libucrt:strncnt.obj
 0001:00161d32       ??$__acrt_mbs_to_wcs_cp@U__crt_win32_buffer_internal_dynamic_resizing@@@@YAHQBDAAV?$__crt_win32_buffer@_WU__crt_win32_buffer_internal_dynamic_resizing@@@@I@Z 00562d32 f i libucrt:strftime.obj
 0001:00161d4f       ??$__acrt_wcs_to_mbs_cp@U__crt_win32_buffer_no_resizing@@@@YAHQB_WAAV?$__crt_win32_buffer@DU__crt_win32_buffer_no_resizing@@@@I@Z 00562d4f f i libucrt:strftime.obj
 0001:00161d6c       ?_deallocate@?$__crt_win32_buffer@DU__crt_win32_buffer_internal_dynamic_resizing@@@@AAEXXZ 00562d6c f i libucrt:argv_wildcards.obj
 0001:00161d6c       ?_deallocate@?$__crt_win32_buffer@_WU__crt_win32_buffer_internal_dynamic_resizing@@@@AAEXXZ 00562d6c f i libucrt:strftime.obj
 0001:00161d86       ?allocate@?$__crt_win32_buffer@DU__crt_win32_buffer_no_resizing@@@@QAEHI@Z 00562d86 f i libucrt:strftime.obj
 0001:00161dad       ?allocate@?$__crt_win32_buffer@_WU__crt_win32_buffer_internal_dynamic_resizing@@@@QAEHI@Z 00562dad f i libucrt:strftime.obj
 0001:00161dec       ?allocate@__crt_win32_buffer_internal_dynamic_resizing@@SAHQAPAXIABV__crt_win32_buffer_empty_debug_info@@@Z 00562dec f i libucrt:strftime.obj
 0001:00161e0b       ?set_to_nullptr@?$__crt_win32_buffer@DU__crt_win32_buffer_no_resizing@@@@QAEXXZ 00562e0b f i libucrt:strftime.obj
 0001:00161e1f       __Strftime_l               00562e1f f   libucrt:strftime.obj
 0001:00161f1c       _strftime                  00562f1c f   libucrt:strftime.obj
 0001:00162f7f       __Wcsftime_l               00563f7f f   libucrt:wcsftime.obj
 0001:001630f0       _strnlen                   005640f0 f   libucrt:strnlen.obj
 0001:00163212       _wcsnlen                   00564212 f   libucrt:strnlen.obj
 0001:001633c2       __recalloc_base            005643c2 f   libucrt:recalloc.obj
 0001:00163537       _freopen                   00564537 f   libucrt:freopen.obj
 0001:001635d2       __get_sys_err_msg          005645d2 f i libucrt:strerror.obj
 0001:0016361e       _strerror                  0056461e f   libucrt:strerror.obj
 0001:00163629       __strcoll_l                00564629 f   libucrt:strcoll.obj
 0001:001636d8       _strcoll                   005646d8 f   libucrt:strcoll.obj
 0001:001636f0       _strpbrk                   005646f0 f   libucrt:strpbrk.obj
 0001:00163730       _strspn                    00564730 f   libucrt:strspn.obj
 0001:001637da       ___acrt_initialize_clock   005647da f   libucrt:clock.obj
 0001:0016383e       _clock                     0056483e f   libucrt:clock.obj
 0001:00163c26       __dupenv_s                 00564c26 f   libucrt:getenv.obj
 0001:00163c44       __wgetenv_s                00564c44 f   libucrt:getenv.obj
 0001:00163c4f       _getenv                    00564c4f f   libucrt:getenv.obj
 0001:00163ca7       ??$__crt_fast_encode_pointer@P6GXPAXK0@Z@@YAP6GXPAXK0@ZQ6GX0K0@Z@Z 00564ca7 f i libucrt:exit.obj
 0001:00163ca7       ??$__crt_fast_encode_pointer@P6GHPA_WKJ@Z@@YAP6GHPA_WKJ@ZQ6GH0KJ@Z@Z 00564ca7 f i libucrt:winapi_thunks.obj
 0001:00163ca7       ??$__crt_fast_encode_pointer@PAP6AXXZ@@YAPAP6AXXZQAP6AXXZ@Z 00564ca7 f i libucrt:onexit.obj
 0001:00163ca7       ??$__crt_fast_encode_pointer@P6AHPAU_exception@@@Z@@YAP6AHPAU_exception@@@ZQ6AH0@Z@Z 00564ca7 f i libucrt:matherr.obj
 0001:00163ca7       ??$__crt_fast_encode_pointer@P6AHXZ@@YAP6AHXZQ6AHXZ@Z 00564ca7 f i libucrt:onexit.obj
 0001:00163ca7       ??$__crt_fast_encode_pointer@PAX@@YAPAXQAX@Z 00564ca7 f i libucrt:initialization.obj
 0001:00163eac       ___acrt_initialize_thread_local_exit_callback 00564eac f   libucrt:exit.obj
 0001:00163ebb       __c_exit                   00564ebb f   libucrt:exit.obj
 0001:00163eca       __cexit                    00564eca f   libucrt:exit.obj
 0001:00163ed9       __exit                     00564ed9 f   libucrt:exit.obj
 0001:00163eef       __register_thread_local_exe_atexit_callback 00564eef f   libucrt:exit.obj
 0001:00163f15       _exit                      00564f15 f   libucrt:exit.obj
 0001:00163f2b       ?__acrt_get_utf8_acp_compatibility_codepage@@YAIXZ 00564f2b f i libucrt:unlink.obj
 0001:00163f6a       _remove                    00564f6a f   libucrt:unlink.obj
 0001:00163fd4       ??$__crt_time_elapsed_leap_years@H@@YAHH@Z 00564fd4 f i libucrt:gmtime.obj
 0001:00164211       ___getgmtimebuf            00565211 f   libucrt:gmtime.obj
 0001:0016424f       __gmtime64                 0056524f f   libucrt:gmtime.obj
 0001:00164276       __gmtime64_s               00565276 f   libucrt:gmtime.obj
 0001:0016437f       _system                    0056537f f   libucrt:system.obj
 0001:0016438a       _rename                    0056538a f   libucrt:rename.obj
 0001:001648f6       ___acrt_stdio_free_tmpfile_name_buffers_nolock 005658f6 f   libucrt:tmpfile.obj
 0001:00164951       _tmpfile                   00565951 f   libucrt:tmpfile.obj
 0001:0016496d       _tmpnam                    0056596d f   libucrt:tmpfile.obj
 0001:00164992       _clearerr                  00565992 f   libucrt:clearerr.obj
 0001:00164997       _clearerr_s                00565997 f   libucrt:clearerr.obj
 0001:00164f39       ?__crt_stdio_path_requires_backslash@@YA_NQBD@Z 00565f39 f i libucrt:popen.obj
 0001:00164ff0       __pclose                   00565ff0 f   libucrt:popen.obj
 0001:001650c7       __popen                    005660c7 f   libucrt:popen.obj
 0001:001656a3       __ftelli64                 005666a3 f   libucrt:ftell.obj
 0001:001656ae       __ftelli64_nolock          005666ae f   libucrt:ftell.obj
 0001:001656b9       _strtol                    005666b9 f   libucrt:strtox.obj
 0001:001656e3       _strtoull                  005666e3 f   libucrt:strtox.obj
 0001:0016570d       _wcstol                    0056670d f   libucrt:strtox.obj
 0001:00165737       ___acrt_initialize_new_handler 00566737 f   libucrt:new_handler.obj
 0001:00165746       __callnewh                 00566746 f   libucrt:new_handler.obj
 0001:00165773       __query_new_handler        00566773 f   libucrt:new_handler.obj
 0001:001657cf       __seh_filter_exe           005667cf f   libucrt:exception_filter.obj
 0001:00165bd1       ___acrt_allocate_buffer_for_argv 00566bd1 f   libucrt:argv_parsing.obj
 0001:00165c20       __configure_narrow_argv    00566c20 f   libucrt:argv_parsing.obj
 0001:00166030       ??$uninitialize@A6AXAAPAPAD@Z@?$dual_state_global@PAPAD@__crt_state_management@@QAEXA6AXAAPAPAD@Z@Z 00567030 f i libucrt:environment_initialization.obj
 0001:00166030       ??$uninitialize@A6AXAAPAPA_W@Z@?$dual_state_global@PAPA_W@__crt_state_management@@QAEXA6AXAAPAPA_W@Z@Z 00567030 f i libucrt:environment_initialization.obj
 0001:0016608f       ___dcrt_get_or_create_narrow_environment_nolock 0056708f f   libucrt:environment_initialization.obj
 0001:00166094       ___dcrt_get_or_create_wide_environment_nolock 00567094 f   libucrt:environment_initialization.obj
 0001:00166099       ___dcrt_uninitialize_environments_nolock 00567099 f   libucrt:environment_initialization.obj
 0001:001660d0       __initialize_narrow_environment 005670d0 f   libucrt:environment_initialization.obj
 0001:0016638e       __crt_atexit               0056738e f   libucrt:onexit.obj
 0001:001663a4       __execute_onexit_table     005673a4 f   libucrt:onexit.obj
 0001:001663d1       __initialize_onexit_table  005673d1 f   libucrt:onexit.obj
 0001:001663fa       __register_onexit_function 005673fa f   libucrt:onexit.obj
 0001:00166528       ___acrt_initialize         00567528 f   libucrt:initialization.obj
 0001:0016653a       ___acrt_uninitialize       0056753a f   libucrt:initialization.obj
 0001:0016656a       __query_app_type           0056756a f   libucrt:report_runtime_error.obj
 0001:00166570       __set_app_type             00567570 f   libucrt:report_runtime_error.obj
 0001:0016657f       ___acrt_has_user_matherr   0056757f f   libucrt:matherr.obj
 0001:00166597       ___acrt_initialize_user_matherr 00567597 f   libucrt:matherr.obj
 0001:001665a6       ___acrt_invoke_user_matherr 005675a6 f   libucrt:matherr.obj
 0001:001665d8       ___setusermatherr          005675d8 f   libucrt:matherr.obj
 0001:001665ed       __get_narrow_winmain_command_line 005675ed f   libucrt:argv_winmain.obj
 0001:00166640       __initterm                 00567640 f   libucrt:initterm.obj
 0001:00166685       __initterm_e               00567685 f   libucrt:initterm.obj
 0001:001666b3       __get_fmode                005676b3 f   libucrt:setmode.obj
 0001:001666e0       __set_fmode                005676e0 f   libucrt:setmode.obj
 0001:0016671d       __setmode_nolock           0056771d f   libucrt:setmode.obj
 0001:001668ec       ??0_expandlocale_locale_name_cache@@QAE@QA_WIQAU__crt_qualified_locale_data@@@Z 005678ec f i libucrt:wsetlocale.obj
 0001:00166936       ??1_expandlocale_locale_name_cache@@QAE@XZ 00567936 f i libucrt:wsetlocale.obj
 0001:00166ace       ?commit_locale_name@_expandlocale_locale_name_cache@@QAEXQB_WI@Z 00567ace f i libucrt:wsetlocale.obj
 0001:00166b12       ?commit_locale_name_cache_already_updated@_expandlocale_locale_name_cache@@QAEXQB_WI@Z 00567b12 f i libucrt:wsetlocale.obj
 0001:00166b47       ___acrt_copy_locale_name   00567b47 f   libucrt:wsetlocale.obj
 0001:00166ba7       ___acrt_set_locale_changed 00567ba7 f   libucrt:wsetlocale.obj
 0001:00166bb2       ___acrt_uninitialize_locale 00567bb2 f   libucrt:wsetlocale.obj
 0001:00166bd9       ___lc_lctowcs              00567bd9 f   libucrt:wsetlocale.obj
 0001:00166c49       ___lc_wcstolc              00567c49 f   libucrt:wsetlocale.obj
 0001:00166d99       __configthreadlocale       00567d99 f   libucrt:wsetlocale.obj
 0001:001671f0       __wcscats                  005681f0 f   libucrt:wsetlocale.obj
 0001:00167231       __wsetlocale               00568231 f   libucrt:wsetlocale.obj
 0001:00167f14       __query_new_mode           00568f14 f   libucrt:new_mode.obj
 0001:00167f1b       __set_new_mode             00568f1b f   libucrt:new_mode.obj
 0001:00167f4a       ___p__commode              00568f4a f   libucrt:ncommode.obj
 0001:00167f50       __controlfp_s              00568f50 f   libucrt:contrlfp.obj
 0001:00167faf       _wcsncmp                   00568faf f   libucrt:wcsncmp.obj
 0001:00167fe9       ?__acrt_stdio_allocate_stream@@YA?AV__crt_stdio_stream@@XZ 00568fe9 f   libucrt:stream.obj
 0001:00168052       ?__acrt_stdio_free_stream@@YAXV__crt_stdio_stream@@@Z 00569052 f   libucrt:stream.obj
 0001:0016814f       ??$__acrt_stdio_parse_mode@D@@YA?AU__acrt_stdio_stream_mode@@QBD@Z 0056914f f i libucrt:openfile.obj
 0001:001683fc       ?__acrt_stdio_parse_mode_D@@YA_NAAU__acrt_stdio_stream_mode@@@Z 005693fc f i libucrt:openfile.obj
 0001:00168417       ?__acrt_stdio_parse_mode_T@@YA_NAAU__acrt_stdio_stream_mode@@@Z 00569417 f i libucrt:openfile.obj
 0001:00168436       ?__acrt_stdio_parse_mode_b@@YA_NAAU__acrt_stdio_stream_mode@@@Z 00569436 f i libucrt:openfile.obj
 0001:00168456       ?__acrt_stdio_parse_mode_c@@YA_NAAU__acrt_stdio_stream_mode@@AA_N@Z 00569456 f i libucrt:openfile.obj
 0001:00168478       ?__acrt_stdio_parse_mode_n@@YA_NAAU__acrt_stdio_stream_mode@@AA_N@Z 00569478 f i libucrt:openfile.obj
 0001:0016849a       ?__acrt_stdio_parse_mode_plus@@YA_NAAU__acrt_stdio_stream_mode@@AA_N@Z 0056949a f i libucrt:openfile.obj
 0001:001684d0       ?__acrt_stdio_parse_mode_t@@YA_NAAU__acrt_stdio_stream_mode@@@Z 005694d0 f i libucrt:openfile.obj
 0001:001684f0       ?__acrt_stdio_parse_mode_x@@YA_NAAU__acrt_stdio_stream_mode@@@Z 005694f0 f i libucrt:openfile.obj
 0001:00168510       __openfile                 00569510 f   libucrt:openfile.obj
 0001:0016851b       __malloc_base              0056951b f   libucrt:malloc_base.obj
 0001:00168569       __free_base                00569569 f   libucrt:free_base.obj
 0001:0016862f       __close                    0056962f f   libucrt:close.obj
 0001:001686bc       __close_nolock             005696bc f   libucrt:close.obj
 0001:00168758       __fileno                   00569758 f   libucrt:fileno.obj
 0001:0016877f       ___acrt_stdio_free_buffer_nolock 0056977f f   libucrt:_freebuf.obj
 0001:00168c94       __read                     00569c94 f   libucrt:read.obj
 0001:00168da8       __read_nolock              00569da8 f   libucrt:read.obj
 0001:001692e2       ___acrt_stdio_refill_and_read_narrow_nolock 0056a2e2 f   libucrt:_filbuf.obj
 0001:0016962b       ___acrt_getptd             0056a62b f   libucrt:per_thread_data.obj
 0001:001696e8       ___acrt_getptd_head        0056a6e8 f   libucrt:per_thread_data.obj
 0001:00169782       ___acrt_getptd_noexit      0056a782 f   libucrt:per_thread_data.obj
 0001:00169837       ___acrt_initialize_ptd     0056a837 f   libucrt:per_thread_data.obj
 0001:00169863       ___acrt_uninitialize_ptd   0056a863 f   libucrt:per_thread_data.obj
 0001:0016987d       __mbtowc_l                 0056a87d f   libucrt:mbtowc.obj
 0001:001699bf       _mbtowc                    0056a9bf f   libucrt:mbtowc.obj
 0001:001699d9       __wctomb_s_l               0056a9d9 f   libucrt:wctomb.obj
 0001:00169b34       ___acrt_update_locale_info 0056ab34 f   libucrt:locale_update.obj
 0001:00169b61       ___acrt_update_multibyte_info 0056ab61 f   libucrt:locale_update.obj
 0001:00169b8e       ?__acrt_fp_classify@@YA?AW4__acrt_fp_class@@ABN@Z 0056ab8e f i libucrt:cvt.obj
 0001:0016a541       ___acrt_fp_format          0056b541 f   libucrt:cvt.obj
 0001:0016a69d       __get_printf_count_output  0056b69d f   libucrt:printf_count_output.obj
 0001:0016a6b2       ___acrt_should_use_temporary_buffer 0056b6b2 f   libucrt:_sftbuf.obj
 0001:0016a6ed       ___acrt_stdio_begin_temporary_buffering_nolock 0056b6ed f   libucrt:_sftbuf.obj
 0001:0016a799       ___acrt_stdio_end_temporary_buffering_nolock 0056b799 f   libucrt:_sftbuf.obj
 0001:0016a93d       ___acrt_initialize_lowio   0056b93d f   libucrt:ioinit.obj
 0001:0016a99d       ___acrt_uninitialize_lowio 0056b99d f   libucrt:ioinit.obj
 0001:0016ace9       ___acrt_AppPolicyGetProcessTerminationMethodInternal@4 0056bce9 f   libucrt:winapi_thunks.obj
 0001:0016ad29       ___acrt_AreFileApisANSI@0  0056bd29 f   libucrt:winapi_thunks.obj
 0001:0016ad48       ___acrt_CompareStringEx@36 0056bd48 f   libucrt:winapi_thunks.obj
 0001:0016ada5       ___acrt_EnumSystemLocalesEx@16 0056bda5 f   libucrt:winapi_thunks.obj
 0001:0016adf9       ___acrt_FlsAlloc@4         0056bdf9 f   libucrt:winapi_thunks.obj
 0001:0016ae38       ___acrt_FlsFree@4          0056be38 f   libucrt:winapi_thunks.obj
 0001:0016ae77       ___acrt_FlsGetValue@4      0056be77 f   libucrt:winapi_thunks.obj
 0001:0016aeb6       ___acrt_FlsSetValue@8      0056beb6 f   libucrt:winapi_thunks.obj
 0001:0016aef8       ___acrt_GetDateFormatEx@28 0056bef8 f   libucrt:winapi_thunks.obj
 0001:0016af4f       ___acrt_GetLocaleInfoEx@16 0056bf4f f   libucrt:winapi_thunks.obj
 0001:0016af8e       ___acrt_GetTimeFormatEx@24 0056bf8e f   libucrt:winapi_thunks.obj
 0001:0016afd3       ___acrt_GetUserDefaultLocaleName@8 0056bfd3 f   libucrt:winapi_thunks.obj
 0001:0016b00f       ___acrt_InitializeCriticalSectionEx@12 0056c00f f   libucrt:winapi_thunks.obj
 0001:0016b05a       ___acrt_IsValidLocaleName@4 0056c05a f   libucrt:winapi_thunks.obj
 0001:0016b092       ___acrt_LCIDToLocaleName@16 0056c092 f   libucrt:winapi_thunks.obj
 0001:0016b0d1       ___acrt_LCMapStringEx@36   0056c0d1 f   libucrt:winapi_thunks.obj
 0001:0016b12e       ___acrt_LocaleNameToLCID@8 0056c12e f   libucrt:winapi_thunks.obj
 0001:0016b15f       ___acrt_RtlGenRandom@8     0056c15f f   libucrt:winapi_thunks.obj
 0001:0016b19f       ___acrt_can_use_vista_locale_apis 0056c19f f   libucrt:winapi_thunks.obj
 0001:0016b1aa       ___acrt_eagerly_load_locale_apis 0056c1aa f   libucrt:winapi_thunks.obj
 0001:0016b1e1       ___acrt_initialize_winapi_thunks 0056c1e1 f   libucrt:winapi_thunks.obj
 0001:0016b20c       ___acrt_uninitialize_winapi_thunks 0056c20c f   libucrt:winapi_thunks.obj
 0001:0016b242       ___acrt_initialize_timeset 0056c242 f   libucrt:timeset.obj
 0001:0016b277       ___daylight                0056c277 f   libucrt:timeset.obj
 0001:0016b27d       ___dstbias                 0056c27d f   libucrt:timeset.obj
 0001:0016b283       ___timezone                0056c283 f   libucrt:timeset.obj
 0001:0016b289       ___tzname                  0056c289 f   libucrt:timeset.obj
 0001:0016b28f       ___wide_tzname             0056c28f f   libucrt:timeset.obj
 0001:0016b295       __get_daylight             0056c295 f   libucrt:timeset.obj
 0001:0016b2c1       __get_dstbias              0056c2c1 f   libucrt:timeset.obj
 0001:0016b2ed       __get_timezone             0056c2ed f   libucrt:timeset.obj
 0001:0016bbdc       ___tzset                   0056cbdc f   libucrt:tzset.obj
 0001:0016bc39       __isindst                  0056cc39 f   libucrt:tzset.obj
 0001:0016bc8d       _iswctype                  0056cc8d f   libucrt:iswctype.obj
 0001:0016bcf6       __isctype_l                0056ccf6 f   libucrt:isctype.obj
 0001:0016bdc1       __dsign                    0056cdc1 f   libucrt:nan.obj
 0001:0016bdd1       __errcode                  0056cdd1 f   libucrt:fpexcept.obj
 0001:0016be05       __except1                  0056ce05 f   libucrt:fpexcept.obj
 0001:0016bed3       __except2                  0056ced3 f   libucrt:fpexcept.obj
 0001:0016bfb5       __handle_exc               0056cfb5 f   libucrt:fpexcept.obj
 0001:0016c1a0       __handle_qnan2             0056d1a0 f   libucrt:fpexcept.obj
 0001:0016c1ad       __raise_exc                0056d1ad f   libucrt:fpexcept.obj
 0001:0016c1d0       __raise_exc_ex             0056d1d0 f   libucrt:fpexcept.obj
 0001:0016c4c6       __set_errno_from_matherr   0056d4c6 f   libucrt:fpexcept.obj
 0001:0016c4f5       __umatherr                 0056d4f5 f   libucrt:fpexcept.obj
 0001:0016c595       __decomp                   0056d595 f   libucrt:util.obj
 0001:0016c667       __set_exp                  0056d667 f   libucrt:util.obj
 0001:0016c694       __sptype                   0056d694 f   libucrt:util.obj
 0001:0016c6f2       ___set_fpsr_sse2           0056d6f2 f   libucrt:fpctrl.obj
 0001:0016c772       __clrfp                    0056d772 f   libucrt:fpctrl.obj
 0001:0016c783       __ctrlfp                   0056d783 f   libucrt:fpctrl.obj
 0001:0016c7ad       __set_statfp               0056d7ad f   libucrt:fpctrl.obj
 0001:0016c806       __statfp                   0056d806 f   libucrt:fpctrl.obj
 0001:0016c816       __calloc_base              0056d816 f   libucrt:calloc_base.obj
 0001:0016c873       __fcloseall                0056d873 f   libucrt:closeall.obj
 0001:0016c9c0       __commit                   0056d9c0 f   libucrt:commit.obj
 0001:0016d1b8       __write                    0056e1b8 f   libucrt:write.obj
 0001:0016d2aa       __write_nolock             0056e2aa f   libucrt:write.obj
 0001:0016d484       _fegetround                0056e484 f   libucrt:fegetround.obj
 0001:0016d6d2       ___acrt_stdio_flush_and_write_narrow_nolock 0056e6d2 f   libucrt:_flsbuf.obj
 0001:0016d6dd       ___acrt_stdio_allocate_buffer_nolock 0056e6dd f   libucrt:_getbuf.obj
 0001:0016d8c1       __lseeki64                 0056e8c1 f   libucrt:lseek.obj
 0001:0016d8dc       __lseeki64_nolock          0056e8dc f   libucrt:lseek.obj
 0001:0016d8f7       __isleadbyte_l             0056e8f7 f i libucrt:_wctype.obj
 0001:0016db1b       ___acrt_LCMapStringA       0056eb1b f   libucrt:lcmapstringa.obj
 0001:0016db64       ___acrt_initialize_sse2    0056eb64 f   libucrt:mathfcns.obj
 0001:0016db74       __modf_default             0056eb74 f   libucrt:modf.obj
 0001:0016dc7a       ___libm_error_support      0056ec7a f   libucrt:libm_error.obj
 0001:0016e011       __mbstowcs_s_l             0056f011 f   libucrt:mbstowcs.obj
 0001:0016e0f1       _mbstowcs_s                0056f0f1 f   libucrt:mbstowcs.obj
 0001:0016e3b0       __wcstombs_s_l             0056f3b0 f   libucrt:wcstombs.obj
 0001:0016e556       ___acrt_GetLocaleInfoA     0056f556 f   libucrt:getlocaleinfoa.obj
 0001:0016e706       ___acrt_GetStringTypeA     0056f706 f   libucrt:getstringtypea.obj
 0001:0016e809       _wcscpy_s                  0056f809 f   libucrt:wcscpy_s.obj
 0001:0016e86d       __copysign                 0056f86d f   libucrt:ieeemisc.obj
 0001:0016e890       __fpclass                  0056f890 f   libucrt:ieeemisc.obj
 0001:0016e934       __realloc_base             0056f934 f   libucrt:realloc_base.obj
 0001:0016e9a0       __CIpow_pentium4           0056f9a0 f   libucrt:pow_pentium4.obj
 0001:0016e9b9       __pow_pentium4             0056f9b9     libucrt:pow_pentium4.obj
 0001:0016f4e0       __fFEXP                    005704e0 f   libucrt:87tran.obj
 0001:0016f537       __rtinfpopse               00570537     libucrt:87tran.obj
 0001:0016f539       __rtinfnpopse              00570539     libucrt:87tran.obj
 0001:0016f549       __fFLN                     00570549     libucrt:87tran.obj
 0001:0016f5fe       __rtinfpop                 005705fe     libucrt:87tran.obj
 0001:0016f600       __rtinfnpop                00570600     libucrt:87tran.obj
 0001:0016f610       __rtforexpinf              00570610 f   libucrt:87tran.obj
 0001:0016f61d       __ffexpm1                  0057061d     libucrt:87tran.obj
 0001:0016f6d0       __trandisp1                005706d0 f   libucrt:87disp.obj
 0001:0016f745       __trandisp2                00570745 f   libucrt:87disp.obj
 0001:0016f7df       __rttospopde               005707df     libucrt:87disp.obj
 0001:0016f7e4       __rttospop                 005707e4     libucrt:87disp.obj
 0001:0016f7f0       __rtnospop                 005707f0 f   libucrt:87disp.obj
 0001:0016f800       __rttosnpop                00570800 f   libucrt:87disp.obj
 0001:0016f801       __rtnospopde               00570801     libucrt:87disp.obj
 0001:0016f808       __rtzeropop                00570808     libucrt:87disp.obj
 0001:0016f80a       __rtzeronpop               0057080a     libucrt:87disp.obj
 0001:0016f810       __rtzerospop               00570810 f   libucrt:87disp.obj
 0001:0016f81d       __rtonepop                 0057081d     libucrt:87disp.obj
 0001:0016f820       __rtonenpop                00570820 f   libucrt:87disp.obj
 0001:0016f830       __tosnan1                  00570830 f   libucrt:87disp.obj
 0001:0016f860       __nosnan2                  00570860 f   libucrt:87disp.obj
 0001:0016f870       __tosnan2                  00570870 f   libucrt:87disp.obj
 0001:0016f8a0       __nan2                     005708a0 f   libucrt:87disp.obj
 0001:0016f8e0       __rtindfpop                005708e0 f   libucrt:87disp.obj
 0001:0016f8e2       __rtindfnpop               005708e2     libucrt:87disp.obj
 0001:0016f8f3       __rttosnpopde              005708f3     libucrt:87disp.obj
 0001:0016f900       __rtatan2inf               00570900 f   libucrt:87disp.obj
 0001:0016f91d       __rtchsifneg               0057091d     libucrt:87disp.obj
 0001:0016f930       __startTwoArgErrorHandling 00570930 f   libucrt:genexcep.obj
 0001:0016f947       __startOneArgErrorHandling 00570947 f   libucrt:genexcep.obj
 0001:0016f990       __twoToTOS                 00570990 f   libucrt:common.obj
 0001:0016f9a5       __load_CW                  005709a5 f   libucrt:common.obj
 0001:0016f9bc       __convertTOStoQNaN         005709bc f   libucrt:common.obj
 0001:0016f9d5       __fload_withFB             005709d5 f   libucrt:common.obj
 0001:0016fa18       __checkTOS_withFB          00570a18 f   libucrt:common.obj
 0001:0016fa2e       __fast_exit                00570a2e f   libucrt:common.obj
 0001:0016fa3b       __math_exit                00570a3b f   libucrt:common.obj
 0001:0016fa65       __check_overflow_exit      00570a65 f   libucrt:common.obj
 0001:0016fa79       __check_range_exit         00570a79 f   libucrt:common.obj
 0001:0016fb1c       __d_inttype                00570b1c f   libucrt:powhlp.obj
 0001:0016fb84       __powhlp                   00570b84 f   libucrt:powhlp.obj
 0001:0016fd7d       ___acrt_get_sigabrt_handler 00570d7d f   libucrt:signal.obj
 0001:0016fda4       ___acrt_initialize_signal_handlers 00570da4 f   libucrt:signal.obj
 0001:0016fdc2       _raise                     00570dc2 f   libucrt:signal.obj
 0001:0016ffb5       ___acrt_MultiByteToWideChar 00570fb5 f   libucrt:multibytetowidechar.obj
 0001:00170031       ___acrt_WideCharToMultiByte 00571031 f   libucrt:widechartomultibyte.obj
 0001:001700e8       ___ascii_wcsicmp           005710e8 f   libucrt:wcsicmp.obj
 0001:00170125       __towlower_internal        00571125 f i libucrt:wcsicmp.obj
 0001:00170164       __wcsicmp                  00571164 f   libucrt:wcsicmp.obj
 0001:001701ad       __wcsicmp_l                005711ad f   libucrt:wcsicmp.obj
 0001:00170265       __msize_base               00571265 f   libucrt:msize.obj
 0001:00170298       ___sys_errlist             00571298 f   libucrt:syserr.obj
 0001:0017029e       ___sys_nerr                0057129e f   libucrt:syserr.obj
 0001:00170357       _strncpy_s                 00571357 f   libucrt:strncpy_s.obj
 0001:001705ed       ___acrt_CompareStringA     005715ed f   libucrt:comparestringa.obj
 0001:00170633       __wcsnicoll                00571633 f   libucrt:wcsnicol.obj
 0001:001706a0       __wcsnicoll_l              005716a0 f   libucrt:wcsnicol.obj
 0001:00170760       __strnicoll                00571760 f   libucrt:strnicol.obj
 0001:00170789       __strnicoll_l              00571789 f   libucrt:strnicol.obj
 0001:00170851       ___acrt_get_process_end_policy 00571851 f   libucrt:win_policies.obj
 0001:00170882       __wremove                  00571882 f   libucrt:wunlink.obj
 0001:00170e78       __spawnve                  00571e78 f   libucrt:spawnv.obj
 0001:0017111e       __spawnvpe                 0057211e f   libucrt:spawnvp.obj
 0001:00171129       __waccess_s                00572129 f   libucrt:waccess.obj
 0001:001711e7       __access_s                 005721e7 f   libucrt:access.obj
 0001:00171259       __wrename                  00572259 f   libucrt:wrename.obj
 0001:001714e5       __itow_s                   005724e5 f   libucrt:xtoa.obj
 0001:00171518       __ui64toa_s                00572518 f   libucrt:xtoa.obj
 0001:00171538       __strdup                   00572538 f   libucrt:strdup.obj
 0001:0017158c       ___acrt_GetTempPathA       0057258c f   libucrt:gettemppath.obj
 0001:00171bda       __sopen_nolock             00572bda f   libucrt:open.obj
 0001:00171c48       __sopen_s                  00572c48 f   libucrt:open.obj
 0001:00171c68       __wsopen_nolock            00572c68 f   libucrt:open.obj
 0001:00171f92       ___acrt_uninitialize_tmpfile 00572f92 f   libucrt:rmtmp.obj
 0001:00171f9c       __rmtmp                    00572f9c f   libucrt:rmtmp.obj
 0001:0017203e       _wcscat_s                  0057303e f   libucrt:wcscat_s.obj
 0001:001720b3       __cwait                    005730b3 f   libucrt:wait.obj
 0001:00172201       ___acrt_getpath            00573201 f   libucrt:getpath.obj
 0001:0017220c       ___acrt_CreateProcessA     0057320c f   libucrt:createprocessa.obj
 0001:001722fa       __pipe                     005732fa f   libucrt:pipe.obj
 0001:00172676       __fdopen                   00573676 f   libucrt:fdopen.obj
 0001:00172681       __mbsrchr                  00573681 f   libucrt:mbsrchr.obj
 0001:00172698       __mbsrchr_l                00573698 f   libucrt:mbsrchr.obj
 0001:00172d0d       ?allocate@?$__crt_win32_buffer@DU__crt_win32_buffer_internal_dynamic_resizing@@@@QAEHI@Z 00573d0d f i libucrt:argv_wildcards.obj
 0001:00172dd0       ___acrt_expand_narrow_argv_wildcards 00573dd0 f   libucrt:argv_wildcards.obj
 0001:00172ddb       ___acrt_GetModuleFileNameA 00573ddb f   libucrt:getmodulefilenamea.obj
 0001:00173394       ___acrt_initialize_multibyte 00574394 f   libucrt:mbctype.obj
 0001:001733dc       ___acrt_update_thread_multibyte_data 005743dc f   libucrt:mbctype.obj
 0001:001733ef       __setmbcp_nolock           005743ef f   libucrt:mbctype.obj
 0001:00173639       __ismbblead                00574639 f   libucrt:ismbbyte.obj
 0001:00173651       ___acrt_initialize_command_line 00574651 f   libucrt:argv_data.obj
 0001:001736a1       ___dcrt_get_narrow_environment_from_os 005746a1 f   libucrt:get_environment_from_os.obj
 0001:00173725       ___dcrt_get_wide_environment_from_os 00574725 f   libucrt:get_environment_from_os.obj
 0001:00173e55       ___dcrt_set_variable_in_narrow_environment_nolock 00574e55 f   libucrt:setenv.obj
 0001:00173e60       ___dcrt_set_variable_in_wide_environment_nolock 00574e60 f   libucrt:setenv.obj
 0001:00173e6b       ___acrt_initialize_heap    00574e6b f   libucrt:heap_handle.obj
 0001:00173e7c       ___acrt_uninitialize_heap  00574e7c f   libucrt:heap_handle.obj
 0001:00173e86       ___acrt_execute_initializers 00574e86 f   libucrt:shared_initialization.obj
 0001:00173eee       ___acrt_execute_uninitializers 00574eee f   libucrt:shared_initialization.obj
 0001:00173fea       _wcsncpy_s                 00574fea f   libucrt:wcsncpy_s.obj
 0001:00173ff5       ___acrt_lowio_create_handle_array 00574ff5 f   libucrt:osfinfo.obj
 0001:00174070       ___acrt_lowio_destroy_handle_array 00575070 f   libucrt:osfinfo.obj
 0001:001740a5       ___acrt_lowio_ensure_fh_exists 005750a5 f   libucrt:osfinfo.obj
 0001:00174143       ___acrt_lowio_lock_fh      00575143 f   libucrt:osfinfo.obj
 0001:00174166       ___acrt_lowio_set_os_handle 00575166 f   libucrt:osfinfo.obj
 0001:001741f8       ___acrt_lowio_unlock_fh    005751f8 f   libucrt:osfinfo.obj
 0001:0017421b       __alloc_osfhnd             0057521b f   libucrt:osfinfo.obj
 0001:0017432e       __free_osfhnd              0057532e f   libucrt:osfinfo.obj
 0001:001743bf       __get_osfhandle            005753bf f   libucrt:osfinfo.obj
 0001:00174429       ___acrt_initialize_fmode   00575429 f   libucrt:txtmode.obj
 0001:0017443f       ___acrt_locale_free_monetary 0057543f f   libucrt:initmon.obj
 0001:0017453d       ___acrt_locale_initialize_monetary 0057553d f   libucrt:initmon.obj
 0001:001748f3       ___acrt_locale_free_numeric 005758f3 f   libucrt:initnum.obj
 0001:0017495c       ___acrt_locale_initialize_numeric 0057595c f   libucrt:initnum.obj
 0001:00174e1e       ___acrt_locale_free_time   00575e1e f   libucrt:inittime.obj
 0001:00174f02       ___acrt_locale_initialize_time 00575f02 f   libucrt:inittime.obj
 0001:00175064       _wcsncat_s                 00576064 f   libucrt:wcsncat_s.obj
 0001:0017506f       _wcscspn                   0057606f f   libucrt:wcscspn.obj
 0001:001750c8       _wcspbrk                   005760c8 f   libucrt:wcspbrk.obj
 0001:00175116       ___acrt_add_locale_ref     00576116 f   libucrt:locale_refcounting.obj
 0001:00175193       ___acrt_free_locale        00576193 f   libucrt:locale_refcounting.obj
 0001:001752db       ___acrt_locale_add_lc_time_reference 005762db f   libucrt:locale_refcounting.obj
 0001:00175304       ___acrt_locale_free_lc_time_if_unreferenced 00576304 f   libucrt:locale_refcounting.obj
 0001:00175335       ___acrt_locale_release_lc_time_reference 00576335 f   libucrt:locale_refcounting.obj
 0001:0017535e       ___acrt_release_locale_ref 0057635e f   libucrt:locale_refcounting.obj
 0001:001753df       ___acrt_update_thread_locale_data 005763df f   libucrt:locale_refcounting.obj
 0001:00175460       __updatetlocinfoEx_nolock  00576460 f   libucrt:locale_refcounting.obj
 0001:00175bac       ___acrt_get_qualified_locale 00576bac f   libucrt:get_qualified_locale.obj
 0001:0017650d       ___acrt_get_qualified_locale_downlevel 0057750d f   libucrt:getqloc_downlevel.obj
 0001:001767a9       __clearfp                  005777a9 f   libucrt:ieee87.obj
 0001:00176887       __control87                00577887 f   libucrt:ieee87.obj
 0001:00176c26       ___ascii_wcsnicmp          00577c26 f   libucrt:wcsnicmp.obj
 0001:00176c75       __wcsnicmp                 00577c75 f   libucrt:wcsnicmp.obj
 0001:00176cc1       __wcsnicmp_l               00577cc1 f   libucrt:wcsnicmp.obj
 0001:00176d94       __strnicmp                 00577d94 f   libucrt:strnicmp.obj
 0001:00176e01       __strnicmp_l               00577e01 f   libucrt:strnicmp.obj
 0001:00176eca       __isatty                   00577eca f   libucrt:isatty.obj
 0001:00176f4c       ?__mbrtowc_utf8@__crt_mbstring@@YAIPA_WPBDIPAU_Mbstatet@@@Z 00577f4c f   libucrt:mbrtowc.obj
 0001:00176f8c       ?__mbsrtowcs_utf8@__crt_mbstring@@YAIPA_WPAPBDIPAU_Mbstatet@@@Z 00577f8c f   libucrt:mbrtowc.obj
 0001:00177087       ?__c32rtomb_utf8@__crt_mbstring@@YAIPAD_UPAU_Mbstatet@@@Z 00578087 f   libucrt:c32rtomb.obj
 0001:00177132       ?return_illegal_sequence@__crt_mbstring@@YAIPAU_Mbstatet@@@Z 00578132 f i libucrt:c32rtomb.obj
 0001:00177151       _c32rtomb                  00578151 f   libucrt:c32rtomb.obj
 0001:001771d6       ___acrt_fp_strflt_to_string 005781d6 f   libucrt:_fptostr.obj
 0001:001772b4       ___acrt_fltout             005782b4 f   libucrt:cfout.obj
 0001:0017880b       ___acrt_DownlevelLCIDToLocaleName 0057980b f   libucrt:lcidtoname_downlevel.obj
 0001:001788b5       ___acrt_DownlevelLocaleNameToLCID 005798b5 f   libucrt:lcidtoname_downlevel.obj
 0001:001788e1       ___acrt_GetStringTypeW     005798e1 f   libucrt:getstringtypew.obj
 0001:001788fa       __putwch_nolock            005798fa f   libucrt:putwch.obj
 0001:00178c49       ___acrt_fenv_get_common_round_control 00579c49 f   libucrt:_fenvutils.obj
 0001:00178c6b       ___acrt_fenv_get_control   00579c6b f   libucrt:_fenvutils.obj
 0001:00178ceb       ___acrt_fenv_get_status    00579ceb f   libucrt:_fenvutils.obj
 0001:00178da3       ___acrt_fenv_set_control   00579da3 f   libucrt:_fenvutils.obj
 0001:00178e0b       ___acrt_fenv_set_status    00579e0b f   libucrt:_fenvutils.obj
 0001:00178f02       __frnd                     00579f02 f   libucrt:frnd.obj
 0001:00178f16       ?__wcsrtombs_utf8@__crt_mbstring@@YAIPADPAPB_WIPAU_Mbstatet@@@Z 00579f16 f   libucrt:wcrtomb.obj
 0001:00179014       __87except                 0057a014 f   libucrt:87except.obj
 0001:0017911e       __towlower_l               0057a11e f   libucrt:towlower.obj
 0001:001791c0       ___acrt_CompareStringW     0057a1c0 f   libucrt:comparestringw.obj
 0001:001795a3       ___acrt_pack_narrow_command_line_and_environment 0057a5a3 f   libucrt:cenvarg.obj
 0001:0017961c       ??0__crt_seek_guard@@QAE@H_J@Z 0057a61c f i libucrt:chsize.obj
 0001:00179669       __chsize_nolock            0057a669 f   libucrt:chsize.obj
 0001:001797e0       _qsort                     0057a7e0 f   libucrt:qsort.obj
 0001:00179cce       __mbsdec                   0057acce f   libucrt:mbsdec.obj
 0001:00179ce5       __mbsdec_l                 0057ace5 f   libucrt:mbsdec.obj
 0001:00179d81       ___acrt_SetEnvironmentVariableA 0057ad81 f   libucrt:setenvironmentvariablea.obj
 0001:00179e20       ___ascii_strnicmp          0057ae20 f   libucrt:_strnicm.obj
 0001:00179e81       ?__mbrtoc32_utf8@__crt_mbstring@@YAIPA_UPBDIPAU_Mbstatet@@@Z 0057ae81 f   libucrt:mbrtoc32.obj
 0001:0017a028       _fegetenv                  0057b028 f   libucrt:fegetenv.obj
 0001:0017a045       _fesetenv                  0057b045 f   libucrt:fesetenv.obj
 0001:0017a090       _feholdexcept              0057b090 f   libucrt:feholdexcept.obj
 0001:0017a0e0       __CIlog10                  0057b0e0 f   libucrt:log10_impl.obj
 0001:0017a11b       __CIlog10_default          0057b11b f   libucrt:log10_impl.obj
 0001:0017a12f       __log10_default            0057b12f     libucrt:log10_impl.obj
 0001:0017a1f0       _ceil                      0057b1f0 f   libucrt:ceil_pentium4.obj
 0001:0017a230       __ceil_pentium4            0057b230 f   libucrt:ceil_pentium4.obj
 0001:0017a32c       ___dcrt_lowio_ensure_console_output_initialized 0057b32c f   libucrt:initcon.obj
 0001:0017a34b       ___dcrt_terminate_console_output 0057b34b f   libucrt:initcon.obj
 0001:0017a362       ___dcrt_write_console      0057b362 f   libucrt:initcon.obj
 0001:0017a3b7       ?__c16rtomb_utf8@__crt_mbstring@@YAIPAD_SPAU_Mbstatet@@@Z 0057b3b7 f   libucrt:c16rtomb.obj
 0001:0017a451       ___acrt_LCMapStringW       0057b451 f   libucrt:lcmapstringw.obj
 0001:0017a490       __CIlog10_pentium4         0057b490 f   libucrt:log10_pentium4.obj
 0001:0017a4a8       __log10_pentium4           0057b4a8     libucrt:log10_pentium4.obj
 0001:0017a720       __ceil_default             0057b720 f   libucrt:ceil.obj
 0001:0017a7d5       _RtlUnwind@16              0057b7d5 f   kernel32:KERNEL32.dll
 0001:0017a7e0       __FindPESection            0057b7e0 f   LIBCMT:pesect.obj
 0001:0017a830       __IsNonwritableInCurrentImage 0057b830 f   LIBCMT:pesect.obj
 0001:0017a8f0       __ValidateImageBase        0057b8f0 f   LIBCMT:pesect.obj
 0001:0017a930       __aulldvrm                 0057b930 f   LIBCMT:ulldvrm.obj
 0001:0017a9d0       __alldiv                   0057b9d0 f   LIBCMT:lldiv.obj
 0001:0017aa80       __alldvrm                  0057ba80 f   LIBCMT:lldvrm.obj
 0001:0017ab60       __allrem                   0057bb60 f   LIBCMT:llrem.obj
 0001:0017ac20       __allshl                   0057bc20 f   LIBCMT:llshl.obj
 0001:0017ac40       __aullshr                  0057bc40 f   LIBCMT:ullshr.obj
 0001:0017ac60       __ftol2_sse                0057bc60 f   LIBCMT:ftol2.obj
 0001:0017ac70       __ftoi2                    0057bc70 f   LIBCMT:ftol2.obj
 0001:0017acec       _wcschr                    0057bcec f   libvcruntime:wcschr.obj
 0001:0017adb3       __filter_x86_sse2_floating_point_exception 0057bdb3 f   LIBCMT:x86_exception_filter.obj
 0001:0017adb3       __filter_x86_sse2_floating_point_exception_default 0057bdb3 f   LIBCMT:x86_exception_filter.obj
 0001:0017ae30       __aullrem                  0057be30 f   LIBCMT:ullrem.obj
 0001:0017aeb0       __ftoui3                   0057beb0 f   LIBCMT:ftol3.obj
 0001:0017af00       __ftol3                    0057bf00 f   LIBCMT:ftol3.obj
 0001:0017af70       __dtoui3                   0057bf70 f   LIBCMT:ftol3.obj
 0001:0017aff0       __dtoul3                   0057bff0 f   LIBCMT:ftol3.obj
 0001:0017b0a0       __dtol3                    0057c0a0 f   LIBCMT:ftol3.obj
 0001:0017b150       __ultod3                   0057c150 f   LIBCMT:ftol3.obj
 0001:0017b1b0       __ltod3                    0057c1b0 f   LIBCMT:ftol3.obj
 0001:0017b200       __setjmp3                  0057c200 f   libvcruntime:setjmp3.obj
 0001:0017b2a0       __CIatan2                  0057c2a0 f   libucrt:87ctriga.obj
 0001:0017b2b0       __CIfmod                   0057c2b0 f   libucrt:87fmod_impl.obj
 0001:0017b2c0       __fFMOD                    0057c2c0 f   libucrt:87fmod_impl.obj
 0001:0017b2d0       __libm_sse2_acos_precise   0057c2d0 f   libucrt:acos_sse2_precise.obj
 0001:0017b7f0       __libm_sse2_asin_precise   0057c7f0 f   libucrt:asin_sse2_precise.obj
 0001:0017bd40       __libm_sse2_cos_precise    0057cd40 f   libucrt:cos_sse2_precise.obj
 0001:0017bf00       __libm_sse2_exp_precise    0057cf00 f   libucrt:exp_sse2_precise.obj
 0001:0017c1e0       __libm_sse2_log10_precise  0057d1e0 f   libucrt:log10_sse2_precise.obj
 0001:0017c490       __libm_sse2_log_precise    0057d490 f   libucrt:log_sse2_precise.obj
 0001:0017c730       __libm_sse2_pow_precise    0057d730 f   libucrt:pow_sse2_precise.obj
 0001:0017d280       __libm_sse2_sin_precise    0057e280 f   libucrt:sin_sse2_precise.obj
 0001:0017d450       __libm_sse2_sqrt_precise   0057e450 f   libucrt:sqrt_sse2_precise.obj
 0001:0017d550       __libm_sse2_tan_precise    0057e550 f   libucrt:tan_sse2_precise.obj
 0001:0017d7c0       _floor                     0057e7c0 f   libucrt:floor_pentium4.obj
 0001:0017d800       __floor_pentium4           0057e800 f   libucrt:floor_pentium4.obj
 0001:0017d8e0       __fFATN2                   0057e8e0 f   libucrt:87triga.obj
 0001:0017d930       __rtpiby2                  0057e930     libucrt:87triga.obj
 0001:0017d940       __rtforatn20               0057e940 f   libucrt:87triga.obj
 0001:0017d970       __rtforatnby0              0057e970 f   libucrt:87triga.obj
 0001:0017d980       __cintrindisp2             0057e980 f   libucrt:87cdisp.obj
